Archive member included to satisfy reference by file (symbol)

c:/intelfpga_lite/18.1/nios2eds/bin/gnu/h-x86_64-mingw32/bin/../lib/gcc/nios2-elf/5.3.0/../../../../../H-x86_64-mingw32/nios2-elf/lib\libc.a(lib_a-ctype_.o)
                              obj/default/network_utilities.o (__ctype_ptr__)
c:/intelfpga_lite/18.1/nios2eds/bin/gnu/h-x86_64-mingw32/bin/../lib/gcc/nios2-elf/5.3.0/../../../../../H-x86_64-mingw32/nios2-elf/lib\libc.a(lib_a-fprintf.o)
                              obj/default/alt_error_handler.o (fprintf)
c:/intelfpga_lite/18.1/nios2eds/bin/gnu/h-x86_64-mingw32/bin/../lib/gcc/nios2-elf/5.3.0/../../../../../H-x86_64-mingw32/nios2-elf/lib\libc.a(lib_a-fwrite.o)
                              obj/default/alt_error_handler.o (fwrite)
c:/intelfpga_lite/18.1/nios2eds/bin/gnu/h-x86_64-mingw32/bin/../lib/gcc/nios2-elf/5.3.0/../../../../../H-x86_64-mingw32/nios2-elf/lib\libc.a(lib_a-getc.o)
                              obj/default/network_utilities.o (getc)
c:/intelfpga_lite/18.1/nios2eds/bin/gnu/h-x86_64-mingw32/bin/../lib/gcc/nios2-elf/5.3.0/../../../../../H-x86_64-mingw32/nios2-elf/lib\libc.a(lib_a-impure.o)
                              obj/default/alt_error_handler.o (_impure_ptr)
c:/intelfpga_lite/18.1/nios2eds/bin/gnu/h-x86_64-mingw32/bin/../lib/gcc/nios2-elf/5.3.0/../../../../../H-x86_64-mingw32/nios2-elf/lib\libc.a(lib_a-memcpy.o)
                              obj/default/simple_socket_server.o (memcpy)
c:/intelfpga_lite/18.1/nios2eds/bin/gnu/h-x86_64-mingw32/bin/../lib/gcc/nios2-elf/5.3.0/../../../../../H-x86_64-mingw32/nios2-elf/lib\libc.a(lib_a-memmove.o)
                              obj/default/simple_socket_server.o (memmove)
c:/intelfpga_lite/18.1/nios2eds/bin/gnu/h-x86_64-mingw32/bin/../lib/gcc/nios2-elf/5.3.0/../../../../../H-x86_64-mingw32/nios2-elf/lib\libc.a(lib_a-memset.o)
                              obj/default/iniche_init.o (memset)
c:/intelfpga_lite/18.1/nios2eds/bin/gnu/h-x86_64-mingw32/bin/../lib/gcc/nios2-elf/5.3.0/../../../../../H-x86_64-mingw32/nios2-elf/lib\libc.a(lib_a-perror.o)
                              obj/default/alt_error_handler.o (perror)
c:/intelfpga_lite/18.1/nios2eds/bin/gnu/h-x86_64-mingw32/bin/../lib/gcc/nios2-elf/5.3.0/../../../../../H-x86_64-mingw32/nios2-elf/lib\libc.a(lib_a-printf.o)
                              obj/default/alt_error_handler.o (printf)
c:/intelfpga_lite/18.1/nios2eds/bin/gnu/h-x86_64-mingw32/bin/../lib/gcc/nios2-elf/5.3.0/../../../../../H-x86_64-mingw32/nios2-elf/lib\libc.a(lib_a-putc.o)
                              obj/default/network_utilities.o (putc)
c:/intelfpga_lite/18.1/nios2eds/bin/gnu/h-x86_64-mingw32/bin/../lib/gcc/nios2-elf/5.3.0/../../../../../H-x86_64-mingw32/nios2-elf/lib\libc.a(lib_a-putchar.o)
                              obj/default/iniche_init.o (putchar)
c:/intelfpga_lite/18.1/nios2eds/bin/gnu/h-x86_64-mingw32/bin/../lib/gcc/nios2-elf/5.3.0/../../../../../H-x86_64-mingw32/nios2-elf/lib\libc.a(lib_a-puts.o)
                              obj/default/alt_error_handler.o (puts)
c:/intelfpga_lite/18.1/nios2eds/bin/gnu/h-x86_64-mingw32/bin/../lib/gcc/nios2-elf/5.3.0/../../../../../H-x86_64-mingw32/nios2-elf/lib\libc.a(lib_a-rget.o)
                              c:/intelfpga_lite/18.1/nios2eds/bin/gnu/h-x86_64-mingw32/bin/../lib/gcc/nios2-elf/5.3.0/../../../../../H-x86_64-mingw32/nios2-elf/lib\libc.a(lib_a-getc.o) (__srget_r)
c:/intelfpga_lite/18.1/nios2eds/bin/gnu/h-x86_64-mingw32/bin/../lib/gcc/nios2-elf/5.3.0/../../../../../H-x86_64-mingw32/nios2-elf/lib\libc.a(lib_a-sprintf.o)
                              obj/default/simple_socket_server.o (sprintf)
c:/intelfpga_lite/18.1/nios2eds/bin/gnu/h-x86_64-mingw32/bin/../lib/gcc/nios2-elf/5.3.0/../../../../../H-x86_64-mingw32/nios2-elf/lib\libc.a(lib_a-strchr.o)
                              obj/default/simple_socket_server.o (strchr)
c:/intelfpga_lite/18.1/nios2eds/bin/gnu/h-x86_64-mingw32/bin/../lib/gcc/nios2-elf/5.3.0/../../../../../H-x86_64-mingw32/nios2-elf/lib\libc.a(lib_a-strerror.o)
                              c:/intelfpga_lite/18.1/nios2eds/bin/gnu/h-x86_64-mingw32/bin/../lib/gcc/nios2-elf/5.3.0/../../../../../H-x86_64-mingw32/nios2-elf/lib\libc.a(lib_a-perror.o) (_strerror_r)
c:/intelfpga_lite/18.1/nios2eds/bin/gnu/h-x86_64-mingw32/bin/../lib/gcc/nios2-elf/5.3.0/../../../../../H-x86_64-mingw32/nios2-elf/lib\libc.a(lib_a-strlen.o)
                              c:/intelfpga_lite/18.1/nios2eds/bin/gnu/h-x86_64-mingw32/bin/../lib/gcc/nios2-elf/5.3.0/../../../../../H-x86_64-mingw32/nios2-elf/lib\libc.a(lib_a-puts.o) (strlen)
c:/intelfpga_lite/18.1/nios2eds/bin/gnu/h-x86_64-mingw32/bin/../lib/gcc/nios2-elf/5.3.0/../../../../../H-x86_64-mingw32/nios2-elf/lib\libc.a(lib_a-strstr.o)
                              obj/default/iniche_init.o (strstr)
c:/intelfpga_lite/18.1/nios2eds/bin/gnu/h-x86_64-mingw32/bin/../lib/gcc/nios2-elf/5.3.0/../../../../../H-x86_64-mingw32/nios2-elf/lib\libc.a(lib_a-svfprintf.o)
                              c:/intelfpga_lite/18.1/nios2eds/bin/gnu/h-x86_64-mingw32/bin/../lib/gcc/nios2-elf/5.3.0/../../../../../H-x86_64-mingw32/nios2-elf/lib\libc.a(lib_a-sprintf.o) (___svfprintf_internal_r)
c:/intelfpga_lite/18.1/nios2eds/bin/gnu/h-x86_64-mingw32/bin/../lib/gcc/nios2-elf/5.3.0/../../../../../H-x86_64-mingw32/nios2-elf/lib\libc.a(lib_a-u_strerr.o)
                              c:/intelfpga_lite/18.1/nios2eds/bin/gnu/h-x86_64-mingw32/bin/../lib/gcc/nios2-elf/5.3.0/../../../../../H-x86_64-mingw32/nios2-elf/lib\libc.a(lib_a-strerror.o) (_user_strerror)
c:/intelfpga_lite/18.1/nios2eds/bin/gnu/h-x86_64-mingw32/bin/../lib/gcc/nios2-elf/5.3.0/../../../../../H-x86_64-mingw32/nios2-elf/lib\libc.a(lib_a-vfprintf.o)
                              c:/intelfpga_lite/18.1/nios2eds/bin/gnu/h-x86_64-mingw32/bin/../lib/gcc/nios2-elf/5.3.0/../../../../../H-x86_64-mingw32/nios2-elf/lib\libc.a(lib_a-printf.o) (___vfprintf_internal_r)
c:/intelfpga_lite/18.1/nios2eds/bin/gnu/h-x86_64-mingw32/bin/../lib/gcc/nios2-elf/5.3.0/../../../../../H-x86_64-mingw32/nios2-elf/lib\libc.a(lib_a-wbuf.o)
                              c:/intelfpga_lite/18.1/nios2eds/bin/gnu/h-x86_64-mingw32/bin/../lib/gcc/nios2-elf/5.3.0/../../../../../H-x86_64-mingw32/nios2-elf/lib\libc.a(lib_a-putc.o) (__swbuf_r)
c:/intelfpga_lite/18.1/nios2eds/bin/gnu/h-x86_64-mingw32/bin/../lib/gcc/nios2-elf/5.3.0/../../../../../H-x86_64-mingw32/nios2-elf/lib\libc.a(lib_a-wsetup.o)
                              c:/intelfpga_lite/18.1/nios2eds/bin/gnu/h-x86_64-mingw32/bin/../lib/gcc/nios2-elf/5.3.0/../../../../../H-x86_64-mingw32/nios2-elf/lib\libc.a(lib_a-vfprintf.o) (__swsetup_r)
c:/intelfpga_lite/18.1/nios2eds/bin/gnu/h-x86_64-mingw32/bin/../lib/gcc/nios2-elf/5.3.0/../../../../../H-x86_64-mingw32/nios2-elf/lib\libc.a(lib_a-dtoa.o)
                              c:/intelfpga_lite/18.1/nios2eds/bin/gnu/h-x86_64-mingw32/bin/../lib/gcc/nios2-elf/5.3.0/../../../../../H-x86_64-mingw32/nios2-elf/lib\libc.a(lib_a-svfprintf.o) (_dtoa_r)
c:/intelfpga_lite/18.1/nios2eds/bin/gnu/h-x86_64-mingw32/bin/../lib/gcc/nios2-elf/5.3.0/../../../../../H-x86_64-mingw32/nios2-elf/lib\libc.a(lib_a-fflush.o)
                              c:/intelfpga_lite/18.1/nios2eds/bin/gnu/h-x86_64-mingw32/bin/../lib/gcc/nios2-elf/5.3.0/../../../../../H-x86_64-mingw32/nios2-elf/lib\libc.a(lib_a-vfprintf.o) (_fflush_r)
c:/intelfpga_lite/18.1/nios2eds/bin/gnu/h-x86_64-mingw32/bin/../lib/gcc/nios2-elf/5.3.0/../../../../../H-x86_64-mingw32/nios2-elf/lib\libc.a(lib_a-findfp.o)
                              c:/intelfpga_lite/18.1/nios2eds/bin/gnu/h-x86_64-mingw32/bin/../lib/gcc/nios2-elf/5.3.0/../../../../../H-x86_64-mingw32/nios2-elf/lib\libc.a(lib_a-fwrite.o) (__sinit)
c:/intelfpga_lite/18.1/nios2eds/bin/gnu/h-x86_64-mingw32/bin/../lib/gcc/nios2-elf/5.3.0/../../../../../H-x86_64-mingw32/nios2-elf/lib\libc.a(lib_a-fputc.o)
                              c:/intelfpga_lite/18.1/nios2eds/bin/gnu/h-x86_64-mingw32/bin/../lib/gcc/nios2-elf/5.3.0/../../../../../H-x86_64-mingw32/nios2-elf/lib\libc.a(lib_a-perror.o) (fputc)
c:/intelfpga_lite/18.1/nios2eds/bin/gnu/h-x86_64-mingw32/bin/../lib/gcc/nios2-elf/5.3.0/../../../../../H-x86_64-mingw32/nios2-elf/lib\libc.a(lib_a-fputs.o)
                              c:/intelfpga_lite/18.1/nios2eds/bin/gnu/h-x86_64-mingw32/bin/../lib/gcc/nios2-elf/5.3.0/../../../../../H-x86_64-mingw32/nios2-elf/lib\libc.a(lib_a-perror.o) (fputs)
c:/intelfpga_lite/18.1/nios2eds/bin/gnu/h-x86_64-mingw32/bin/../lib/gcc/nios2-elf/5.3.0/../../../../../H-x86_64-mingw32/nios2-elf/lib\libc.a(lib_a-freer.o)
                              c:/intelfpga_lite/18.1/nios2eds/bin/gnu/h-x86_64-mingw32/bin/../lib/gcc/nios2-elf/5.3.0/../../../../../H-x86_64-mingw32/nios2-elf/lib\libc.a(lib_a-wsetup.o) (_free_r)
c:/intelfpga_lite/18.1/nios2eds/bin/gnu/h-x86_64-mingw32/bin/../lib/gcc/nios2-elf/5.3.0/../../../../../H-x86_64-mingw32/nios2-elf/lib\libc.a(lib_a-fvwrite.o)
                              c:/intelfpga_lite/18.1/nios2eds/bin/gnu/h-x86_64-mingw32/bin/../lib/gcc/nios2-elf/5.3.0/../../../../../H-x86_64-mingw32/nios2-elf/lib\libc.a(lib_a-fwrite.o) (__sfvwrite_r)
c:/intelfpga_lite/18.1/nios2eds/bin/gnu/h-x86_64-mingw32/bin/../lib/gcc/nios2-elf/5.3.0/../../../../../H-x86_64-mingw32/nios2-elf/lib\libc.a(lib_a-fwalk.o)
                              c:/intelfpga_lite/18.1/nios2eds/bin/gnu/h-x86_64-mingw32/bin/../lib/gcc/nios2-elf/5.3.0/../../../../../H-x86_64-mingw32/nios2-elf/lib\libc.a(lib_a-findfp.o) (_fwalk)
c:/intelfpga_lite/18.1/nios2eds/bin/gnu/h-x86_64-mingw32/bin/../lib/gcc/nios2-elf/5.3.0/../../../../../H-x86_64-mingw32/nios2-elf/lib\libc.a(lib_a-locale.o)
                              c:/intelfpga_lite/18.1/nios2eds/bin/gnu/h-x86_64-mingw32/bin/../lib/gcc/nios2-elf/5.3.0/../../../../../H-x86_64-mingw32/nios2-elf/lib\libc.a(lib_a-svfprintf.o) (_localeconv_r)
c:/intelfpga_lite/18.1/nios2eds/bin/gnu/h-x86_64-mingw32/bin/../lib/gcc/nios2-elf/5.3.0/../../../../../H-x86_64-mingw32/nios2-elf/lib\libc.a(lib_a-makebuf.o)
                              c:/intelfpga_lite/18.1/nios2eds/bin/gnu/h-x86_64-mingw32/bin/../lib/gcc/nios2-elf/5.3.0/../../../../../H-x86_64-mingw32/nios2-elf/lib\libc.a(lib_a-wsetup.o) (__smakebuf_r)
c:/intelfpga_lite/18.1/nios2eds/bin/gnu/h-x86_64-mingw32/bin/../lib/gcc/nios2-elf/5.3.0/../../../../../H-x86_64-mingw32/nios2-elf/lib\libc.a(lib_a-mallocr.o)
                              c:/intelfpga_lite/18.1/nios2eds/bin/gnu/h-x86_64-mingw32/bin/../lib/gcc/nios2-elf/5.3.0/../../../../../H-x86_64-mingw32/nios2-elf/lib\libc.a(lib_a-svfprintf.o) (_malloc_r)
c:/intelfpga_lite/18.1/nios2eds/bin/gnu/h-x86_64-mingw32/bin/../lib/gcc/nios2-elf/5.3.0/../../../../../H-x86_64-mingw32/nios2-elf/lib\libc.a(lib_a-memchr.o)
                              c:/intelfpga_lite/18.1/nios2eds/bin/gnu/h-x86_64-mingw32/bin/../lib/gcc/nios2-elf/5.3.0/../../../../../H-x86_64-mingw32/nios2-elf/lib\libc.a(lib_a-strstr.o) (memchr)
c:/intelfpga_lite/18.1/nios2eds/bin/gnu/h-x86_64-mingw32/bin/../lib/gcc/nios2-elf/5.3.0/../../../../../H-x86_64-mingw32/nios2-elf/lib\libc.a(lib_a-memcmp.o)
                              c:/intelfpga_lite/18.1/nios2eds/bin/gnu/h-x86_64-mingw32/bin/../lib/gcc/nios2-elf/5.3.0/../../../../../H-x86_64-mingw32/nios2-elf/lib\libc.a(lib_a-strstr.o) (memcmp)
c:/intelfpga_lite/18.1/nios2eds/bin/gnu/h-x86_64-mingw32/bin/../lib/gcc/nios2-elf/5.3.0/../../../../../H-x86_64-mingw32/nios2-elf/lib\libc.a(lib_a-mprec.o)
                              c:/intelfpga_lite/18.1/nios2eds/bin/gnu/h-x86_64-mingw32/bin/../lib/gcc/nios2-elf/5.3.0/../../../../../H-x86_64-mingw32/nios2-elf/lib\libc.a(lib_a-dtoa.o) (_Balloc)
c:/intelfpga_lite/18.1/nios2eds/bin/gnu/h-x86_64-mingw32/bin/../lib/gcc/nios2-elf/5.3.0/../../../../../H-x86_64-mingw32/nios2-elf/lib\libc.a(lib_a-reallocr.o)
                              c:/intelfpga_lite/18.1/nios2eds/bin/gnu/h-x86_64-mingw32/bin/../lib/gcc/nios2-elf/5.3.0/../../../../../H-x86_64-mingw32/nios2-elf/lib\libc.a(lib_a-fvwrite.o) (_realloc_r)
c:/intelfpga_lite/18.1/nios2eds/bin/gnu/h-x86_64-mingw32/bin/../lib/gcc/nios2-elf/5.3.0/../../../../../H-x86_64-mingw32/nios2-elf/lib\libc.a(lib_a-refill.o)
                              c:/intelfpga_lite/18.1/nios2eds/bin/gnu/h-x86_64-mingw32/bin/../lib/gcc/nios2-elf/5.3.0/../../../../../H-x86_64-mingw32/nios2-elf/lib\libc.a(lib_a-rget.o) (__srefill_r)
c:/intelfpga_lite/18.1/nios2eds/bin/gnu/h-x86_64-mingw32/bin/../lib/gcc/nios2-elf/5.3.0/../../../../../H-x86_64-mingw32/nios2-elf/lib\libc.a(lib_a-s_fpclassify.o)
                              c:/intelfpga_lite/18.1/nios2eds/bin/gnu/h-x86_64-mingw32/bin/../lib/gcc/nios2-elf/5.3.0/../../../../../H-x86_64-mingw32/nios2-elf/lib\libc.a(lib_a-svfprintf.o) (__fpclassifyd)
c:/intelfpga_lite/18.1/nios2eds/bin/gnu/h-x86_64-mingw32/bin/../lib/gcc/nios2-elf/5.3.0/../../../../../H-x86_64-mingw32/nios2-elf/lib\libc.a(lib_a-sbrkr.o)
                              c:/intelfpga_lite/18.1/nios2eds/bin/gnu/h-x86_64-mingw32/bin/../lib/gcc/nios2-elf/5.3.0/../../../../../H-x86_64-mingw32/nios2-elf/lib\libc.a(lib_a-freer.o) (_sbrk_r)
c:/intelfpga_lite/18.1/nios2eds/bin/gnu/h-x86_64-mingw32/bin/../lib/gcc/nios2-elf/5.3.0/../../../../../H-x86_64-mingw32/nios2-elf/lib\libc.a(lib_a-stdio.o)
                              c:/intelfpga_lite/18.1/nios2eds/bin/gnu/h-x86_64-mingw32/bin/../lib/gcc/nios2-elf/5.3.0/../../../../../H-x86_64-mingw32/nios2-elf/lib\libc.a(lib_a-findfp.o) (__sread)
c:/intelfpga_lite/18.1/nios2eds/bin/gnu/h-x86_64-mingw32/bin/../lib/gcc/nios2-elf/5.3.0/../../../../../H-x86_64-mingw32/nios2-elf/lib\libc.a(lib_a-strcmp.o)
                              c:/intelfpga_lite/18.1/nios2eds/bin/gnu/h-x86_64-mingw32/bin/../lib/gcc/nios2-elf/5.3.0/../../../../../H-x86_64-mingw32/nios2-elf/lib\libc.a(lib_a-locale.o) (strcmp)
c:/intelfpga_lite/18.1/nios2eds/bin/gnu/h-x86_64-mingw32/bin/../lib/gcc/nios2-elf/5.3.0/../../../../../H-x86_64-mingw32/nios2-elf/lib\libc.a(lib_a-svfiprintf.o)
                              c:/intelfpga_lite/18.1/nios2eds/bin/gnu/h-x86_64-mingw32/bin/../lib/gcc/nios2-elf/5.3.0/../../../../../H-x86_64-mingw32/nios2-elf/lib\libc.a(lib_a-svfprintf.o) (__ssprint_r)
c:/intelfpga_lite/18.1/nios2eds/bin/gnu/h-x86_64-mingw32/bin/../lib/gcc/nios2-elf/5.3.0/../../../../../H-x86_64-mingw32/nios2-elf/lib\libc.a(lib_a-vfiprintf.o)
                              c:/intelfpga_lite/18.1/nios2eds/bin/gnu/h-x86_64-mingw32/bin/../lib/gcc/nios2-elf/5.3.0/../../../../../H-x86_64-mingw32/nios2-elf/lib\libc.a(lib_a-vfprintf.o) (__sprint_r)
c:/intelfpga_lite/18.1/nios2eds/bin/gnu/h-x86_64-mingw32/bin/../lib/gcc/nios2-elf/5.3.0/../../../../../H-x86_64-mingw32/nios2-elf/lib\libc.a(lib_a-writer.o)
                              c:/intelfpga_lite/18.1/nios2eds/bin/gnu/h-x86_64-mingw32/bin/../lib/gcc/nios2-elf/5.3.0/../../../../../H-x86_64-mingw32/nios2-elf/lib\libc.a(lib_a-stdio.o) (_write_r)
c:/intelfpga_lite/18.1/nios2eds/bin/gnu/h-x86_64-mingw32/bin/../lib/gcc/nios2-elf/5.3.0/../../../../../H-x86_64-mingw32/nios2-elf/lib\libc.a(closer.o)
                              c:/intelfpga_lite/18.1/nios2eds/bin/gnu/h-x86_64-mingw32/bin/../lib/gcc/nios2-elf/5.3.0/../../../../../H-x86_64-mingw32/nios2-elf/lib\libc.a(lib_a-stdio.o) (_close_r)
c:/intelfpga_lite/18.1/nios2eds/bin/gnu/h-x86_64-mingw32/bin/../lib/gcc/nios2-elf/5.3.0/../../../../../H-x86_64-mingw32/nios2-elf/lib\libc.a(lib_a-callocr.o)
                              c:/intelfpga_lite/18.1/nios2eds/bin/gnu/h-x86_64-mingw32/bin/../lib/gcc/nios2-elf/5.3.0/../../../../../H-x86_64-mingw32/nios2-elf/lib\libc.a(lib_a-mprec.o) (_calloc_r)
c:/intelfpga_lite/18.1/nios2eds/bin/gnu/h-x86_64-mingw32/bin/../lib/gcc/nios2-elf/5.3.0/../../../../../H-x86_64-mingw32/nios2-elf/lib\libc.a(lib_a-fclose.o)
                              c:/intelfpga_lite/18.1/nios2eds/bin/gnu/h-x86_64-mingw32/bin/../lib/gcc/nios2-elf/5.3.0/../../../../../H-x86_64-mingw32/nios2-elf/lib\libc.a(lib_a-findfp.o) (_fclose_r)
c:/intelfpga_lite/18.1/nios2eds/bin/gnu/h-x86_64-mingw32/bin/../lib/gcc/nios2-elf/5.3.0/../../../../../H-x86_64-mingw32/nios2-elf/lib\libc.a(lib_a-fputwc.o)
                              c:/intelfpga_lite/18.1/nios2eds/bin/gnu/h-x86_64-mingw32/bin/../lib/gcc/nios2-elf/5.3.0/../../../../../H-x86_64-mingw32/nios2-elf/lib\libc.a(lib_a-vfiprintf.o) (_fputwc_r)
c:/intelfpga_lite/18.1/nios2eds/bin/gnu/h-x86_64-mingw32/bin/../lib/gcc/nios2-elf/5.3.0/../../../../../H-x86_64-mingw32/nios2-elf/lib\libc.a(lib_a-fstatr.o)
                              c:/intelfpga_lite/18.1/nios2eds/bin/gnu/h-x86_64-mingw32/bin/../lib/gcc/nios2-elf/5.3.0/../../../../../H-x86_64-mingw32/nios2-elf/lib\libc.a(lib_a-makebuf.o) (_fstat_r)
c:/intelfpga_lite/18.1/nios2eds/bin/gnu/h-x86_64-mingw32/bin/../lib/gcc/nios2-elf/5.3.0/../../../../../H-x86_64-mingw32/nios2-elf/lib\libc.a(lib_a-int_errno.o)
                              c:/intelfpga_lite/18.1/nios2eds/bin/gnu/h-x86_64-mingw32/bin/../lib/gcc/nios2-elf/5.3.0/../../../../../H-x86_64-mingw32/nios2-elf/lib\libc.a(lib_a-sbrkr.o) (errno)
c:/intelfpga_lite/18.1/nios2eds/bin/gnu/h-x86_64-mingw32/bin/../lib/gcc/nios2-elf/5.3.0/../../../../../H-x86_64-mingw32/nios2-elf/lib\libc.a(lib_a-isattyr.o)
                              c:/intelfpga_lite/18.1/nios2eds/bin/gnu/h-x86_64-mingw32/bin/../lib/gcc/nios2-elf/5.3.0/../../../../../H-x86_64-mingw32/nios2-elf/lib\libc.a(lib_a-makebuf.o) (_isatty_r)
c:/intelfpga_lite/18.1/nios2eds/bin/gnu/h-x86_64-mingw32/bin/../lib/gcc/nios2-elf/5.3.0/../../../../../H-x86_64-mingw32/nios2-elf/lib\libc.a(lib_a-lseekr.o)
                              c:/intelfpga_lite/18.1/nios2eds/bin/gnu/h-x86_64-mingw32/bin/../lib/gcc/nios2-elf/5.3.0/../../../../../H-x86_64-mingw32/nios2-elf/lib\libc.a(lib_a-stdio.o) (_lseek_r)
c:/intelfpga_lite/18.1/nios2eds/bin/gnu/h-x86_64-mingw32/bin/../lib/gcc/nios2-elf/5.3.0/../../../../../H-x86_64-mingw32/nios2-elf/lib\libc.a(lib_a-readr.o)
                              c:/intelfpga_lite/18.1/nios2eds/bin/gnu/h-x86_64-mingw32/bin/../lib/gcc/nios2-elf/5.3.0/../../../../../H-x86_64-mingw32/nios2-elf/lib\libc.a(lib_a-stdio.o) (_read_r)
c:/intelfpga_lite/18.1/nios2eds/bin/gnu/h-x86_64-mingw32/bin/../lib/gcc/nios2-elf/5.3.0/../../../../../H-x86_64-mingw32/nios2-elf/lib\libc.a(lib_a-wcrtomb.o)
                              c:/intelfpga_lite/18.1/nios2eds/bin/gnu/h-x86_64-mingw32/bin/../lib/gcc/nios2-elf/5.3.0/../../../../../H-x86_64-mingw32/nios2-elf/lib\libc.a(lib_a-fputwc.o) (_wcrtomb_r)
c:/intelfpga_lite/18.1/nios2eds/bin/gnu/h-x86_64-mingw32/bin/../lib/gcc/nios2-elf/5.3.0/../../../../../H-x86_64-mingw32/nios2-elf/lib\libc.a(lib_a-wctomb_r.o)
                              c:/intelfpga_lite/18.1/nios2eds/bin/gnu/h-x86_64-mingw32/bin/../lib/gcc/nios2-elf/5.3.0/../../../../../H-x86_64-mingw32/nios2-elf/lib\libc.a(lib_a-wcrtomb.o) (__wctomb)
c:/intelfpga_lite/18.1/nios2eds/bin/gnu/h-x86_64-mingw32/bin/../lib/gcc/nios2-elf/5.3.0\libgcc.a(_udivdi3.o)
                              c:/intelfpga_lite/18.1/nios2eds/bin/gnu/h-x86_64-mingw32/bin/../lib/gcc/nios2-elf/5.3.0/../../../../../H-x86_64-mingw32/nios2-elf/lib\libc.a(lib_a-svfprintf.o) (__udivdi3)
c:/intelfpga_lite/18.1/nios2eds/bin/gnu/h-x86_64-mingw32/bin/../lib/gcc/nios2-elf/5.3.0\libgcc.a(_umoddi3.o)
                              c:/intelfpga_lite/18.1/nios2eds/bin/gnu/h-x86_64-mingw32/bin/../lib/gcc/nios2-elf/5.3.0/../../../../../H-x86_64-mingw32/nios2-elf/lib\libc.a(lib_a-svfprintf.o) (__umoddi3)
c:/intelfpga_lite/18.1/nios2eds/bin/gnu/h-x86_64-mingw32/bin/../lib/gcc/nios2-elf/5.3.0\libgcc.a(lib2-divmod.o)
                              c:/intelfpga_lite/18.1/nios2eds/bin/gnu/h-x86_64-mingw32/bin/../lib/gcc/nios2-elf/5.3.0/../../../../../H-x86_64-mingw32/nios2-elf/lib\libc.a(lib_a-svfprintf.o) (__divsi3)
c:/intelfpga_lite/18.1/nios2eds/bin/gnu/h-x86_64-mingw32/bin/../lib/gcc/nios2-elf/5.3.0\libgcc.a(adddf3.o)
                              c:/intelfpga_lite/18.1/nios2eds/bin/gnu/h-x86_64-mingw32/bin/../lib/gcc/nios2-elf/5.3.0/../../../../../H-x86_64-mingw32/nios2-elf/lib\libc.a(lib_a-dtoa.o) (__adddf3)
c:/intelfpga_lite/18.1/nios2eds/bin/gnu/h-x86_64-mingw32/bin/../lib/gcc/nios2-elf/5.3.0\libgcc.a(divdf3.o)
                              c:/intelfpga_lite/18.1/nios2eds/bin/gnu/h-x86_64-mingw32/bin/../lib/gcc/nios2-elf/5.3.0/../../../../../H-x86_64-mingw32/nios2-elf/lib\libc.a(lib_a-dtoa.o) (__divdf3)
c:/intelfpga_lite/18.1/nios2eds/bin/gnu/h-x86_64-mingw32/bin/../lib/gcc/nios2-elf/5.3.0\libgcc.a(eqdf2.o)
                              c:/intelfpga_lite/18.1/nios2eds/bin/gnu/h-x86_64-mingw32/bin/../lib/gcc/nios2-elf/5.3.0/../../../../../H-x86_64-mingw32/nios2-elf/lib\libc.a(lib_a-svfprintf.o) (__eqdf2)
c:/intelfpga_lite/18.1/nios2eds/bin/gnu/h-x86_64-mingw32/bin/../lib/gcc/nios2-elf/5.3.0\libgcc.a(gedf2.o)
                              c:/intelfpga_lite/18.1/nios2eds/bin/gnu/h-x86_64-mingw32/bin/../lib/gcc/nios2-elf/5.3.0/../../../../../H-x86_64-mingw32/nios2-elf/lib\libc.a(lib_a-dtoa.o) (__gedf2)
c:/intelfpga_lite/18.1/nios2eds/bin/gnu/h-x86_64-mingw32/bin/../lib/gcc/nios2-elf/5.3.0\libgcc.a(ledf2.o)
                              c:/intelfpga_lite/18.1/nios2eds/bin/gnu/h-x86_64-mingw32/bin/../lib/gcc/nios2-elf/5.3.0/../../../../../H-x86_64-mingw32/nios2-elf/lib\libc.a(lib_a-svfprintf.o) (__ltdf2)
c:/intelfpga_lite/18.1/nios2eds/bin/gnu/h-x86_64-mingw32/bin/../lib/gcc/nios2-elf/5.3.0\libgcc.a(muldf3.o)
                              c:/intelfpga_lite/18.1/nios2eds/bin/gnu/h-x86_64-mingw32/bin/../lib/gcc/nios2-elf/5.3.0/../../../../../H-x86_64-mingw32/nios2-elf/lib\libc.a(lib_a-dtoa.o) (__muldf3)
c:/intelfpga_lite/18.1/nios2eds/bin/gnu/h-x86_64-mingw32/bin/../lib/gcc/nios2-elf/5.3.0\libgcc.a(subdf3.o)
                              c:/intelfpga_lite/18.1/nios2eds/bin/gnu/h-x86_64-mingw32/bin/../lib/gcc/nios2-elf/5.3.0/../../../../../H-x86_64-mingw32/nios2-elf/lib\libc.a(lib_a-dtoa.o) (__subdf3)
c:/intelfpga_lite/18.1/nios2eds/bin/gnu/h-x86_64-mingw32/bin/../lib/gcc/nios2-elf/5.3.0\libgcc.a(fixdfsi.o)
                              c:/intelfpga_lite/18.1/nios2eds/bin/gnu/h-x86_64-mingw32/bin/../lib/gcc/nios2-elf/5.3.0/../../../../../H-x86_64-mingw32/nios2-elf/lib\libc.a(lib_a-dtoa.o) (__fixdfsi)
c:/intelfpga_lite/18.1/nios2eds/bin/gnu/h-x86_64-mingw32/bin/../lib/gcc/nios2-elf/5.3.0\libgcc.a(floatsidf.o)
                              c:/intelfpga_lite/18.1/nios2eds/bin/gnu/h-x86_64-mingw32/bin/../lib/gcc/nios2-elf/5.3.0/../../../../../H-x86_64-mingw32/nios2-elf/lib\libc.a(lib_a-dtoa.o) (__floatsidf)
c:/intelfpga_lite/18.1/nios2eds/bin/gnu/h-x86_64-mingw32/bin/../lib/gcc/nios2-elf/5.3.0\libgcc.a(floatunsidf.o)
                              c:/intelfpga_lite/18.1/nios2eds/bin/gnu/h-x86_64-mingw32/bin/../lib/gcc/nios2-elf/5.3.0/../../../../../H-x86_64-mingw32/nios2-elf/lib\libc.a(lib_a-dtoa.o) (__floatunsidf)
c:/intelfpga_lite/18.1/nios2eds/bin/gnu/h-x86_64-mingw32/bin/../lib/gcc/nios2-elf/5.3.0\libgcc.a(_clz.o)
                              c:/intelfpga_lite/18.1/nios2eds/bin/gnu/h-x86_64-mingw32/bin/../lib/gcc/nios2-elf/5.3.0\libgcc.a(_udivdi3.o) (__clz_tab)
c:/intelfpga_lite/18.1/nios2eds/bin/gnu/h-x86_64-mingw32/bin/../lib/gcc/nios2-elf/5.3.0\libgcc.a(_clzsi2.o)
                              c:/intelfpga_lite/18.1/nios2eds/bin/gnu/h-x86_64-mingw32/bin/../lib/gcc/nios2-elf/5.3.0\libgcc.a(adddf3.o) (__clzsi2)
../FPGAEncrypt_bsp/\libucosii_bsp.a(alt_fstat.o)
                              c:/intelfpga_lite/18.1/nios2eds/bin/gnu/h-x86_64-mingw32/bin/../lib/gcc/nios2-elf/5.3.0/../../../../../H-x86_64-mingw32/nios2-elf/lib\libc.a(lib_a-fstatr.o) (fstat)
../FPGAEncrypt_bsp/\libucosii_bsp.a(alt_isatty.o)
                              c:/intelfpga_lite/18.1/nios2eds/bin/gnu/h-x86_64-mingw32/bin/../lib/gcc/nios2-elf/5.3.0/../../../../../H-x86_64-mingw32/nios2-elf/lib\libc.a(lib_a-isattyr.o) (isatty)
../FPGAEncrypt_bsp/\libucosii_bsp.a(alt_lseek.o)
                              c:/intelfpga_lite/18.1/nios2eds/bin/gnu/h-x86_64-mingw32/bin/../lib/gcc/nios2-elf/5.3.0/../../../../../H-x86_64-mingw32/nios2-elf/lib\libc.a(lib_a-lseekr.o) (lseek)
../FPGAEncrypt_bsp/\libucosii_bsp.a(alt_main.o)
                              ../FPGAEncrypt_bsp//obj/HAL/src/crt0.o (alt_main)
../FPGAEncrypt_bsp/\libucosii_bsp.a(alt_sbrk.o)
                              c:/intelfpga_lite/18.1/nios2eds/bin/gnu/h-x86_64-mingw32/bin/../lib/gcc/nios2-elf/5.3.0/../../../../../H-x86_64-mingw32/nios2-elf/lib\libc.a(lib_a-sbrkr.o) (sbrk)
../FPGAEncrypt_bsp/\libucosii_bsp.a(alt_env_lock.o)
                              ../FPGAEncrypt_bsp/\libucosii_bsp.a(alt_main.o) (alt_envsem)
../FPGAEncrypt_bsp/\libucosii_bsp.a(alt_malloc_lock.o)
                              ../FPGAEncrypt_bsp/\libucosii_bsp.a(alt_main.o) (alt_heapsem)
../FPGAEncrypt_bsp/\libucosii_bsp.a(os_core.o)
                              ../FPGAEncrypt_bsp/\libucosii_bsp.a(alt_malloc_lock.o) (OSRunning)
../FPGAEncrypt_bsp/\libucosii_bsp.a(os_dbg.o)
                              ../FPGAEncrypt_bsp/\libucosii_bsp.a(os_core.o) (OSDebugInit)
../FPGAEncrypt_bsp/\libucosii_bsp.a(os_flag.o)
                              obj/default/simple_socket_server.o (OSFlagCreate)
../FPGAEncrypt_bsp/\libucosii_bsp.a(os_mem.o)
                              ../FPGAEncrypt_bsp/\libucosii_bsp.a(os_core.o) (OS_MemInit)
../FPGAEncrypt_bsp/\libucosii_bsp.a(os_q.o)
                              obj/default/simple_socket_server.o (OSQCreate)
../FPGAEncrypt_bsp/\libucosii_bsp.a(os_sem.o)
                              obj/default/simple_socket_server.o (OSSemCreate)
../FPGAEncrypt_bsp/\libucosii_bsp.a(os_task.o)
                              obj/default/iniche_init.o (OSTaskCreateExt)
../FPGAEncrypt_bsp/\libucosii_bsp.a(os_time.o)
                              obj/default/iniche_init.o (OSTimeDly)
../FPGAEncrypt_bsp/\libucosii_bsp.a(alt_sys_init.o)
                              ../FPGAEncrypt_bsp/\libucosii_bsp.a(alt_main.o) (alt_irq_init)
../FPGAEncrypt_bsp/\libucosii_bsp.a(altera_avalon_jtag_uart_fd.o)
                              ../FPGAEncrypt_bsp/\libucosii_bsp.a(alt_sys_init.o) (altera_avalon_jtag_uart_read_fd)
../FPGAEncrypt_bsp/\libucosii_bsp.a(altera_avalon_jtag_uart_init.o)
                              ../FPGAEncrypt_bsp/\libucosii_bsp.a(alt_sys_init.o) (altera_avalon_jtag_uart_init)
../FPGAEncrypt_bsp/\libucosii_bsp.a(altera_avalon_jtag_uart_ioctl.o)
                              ../FPGAEncrypt_bsp/\libucosii_bsp.a(altera_avalon_jtag_uart_fd.o) (altera_avalon_jtag_uart_ioctl)
../FPGAEncrypt_bsp/\libucosii_bsp.a(altera_avalon_jtag_uart_read.o)
                              ../FPGAEncrypt_bsp/\libucosii_bsp.a(altera_avalon_jtag_uart_fd.o) (altera_avalon_jtag_uart_read)
../FPGAEncrypt_bsp/\libucosii_bsp.a(altera_avalon_jtag_uart_write.o)
                              ../FPGAEncrypt_bsp/\libucosii_bsp.a(altera_avalon_jtag_uart_fd.o) (altera_avalon_jtag_uart_write)
../FPGAEncrypt_bsp/\libucosii_bsp.a(altera_avalon_timer_sc.o)
                              ../FPGAEncrypt_bsp/\libucosii_bsp.a(alt_sys_init.o) (alt_avalon_timer_sc_init)
../FPGAEncrypt_bsp/\libucosii_bsp.a(altera_epcq_controller2.o)
                              ../FPGAEncrypt_bsp/\libucosii_bsp.a(alt_sys_init.o) (alt_epcq_controller2_lock)
../FPGAEncrypt_bsp/\libucosii_bsp.a(altera_msgdma.o)
                              ../FPGAEncrypt_bsp/\libucosii_bsp.a(alt_sys_init.o) (alt_msgdma_init)
../FPGAEncrypt_bsp/\libucosii_bsp.a(altera_remote_update.o)
                              ../FPGAEncrypt_bsp/\libucosii_bsp.a(alt_sys_init.o) (altera_remote_update_init)
../FPGAEncrypt_bsp/\libucosii_bsp.a(ins_tse_mac.o)
                              ../FPGAEncrypt_bsp/\libucosii_bsp.a(alt_sys_init.o) (number_of_tse_mac)
../FPGAEncrypt_bsp/\libucosii_bsp.a(alt_iniche_close.o)
                              obj/default/iniche_init.o (close)
../FPGAEncrypt_bsp/\libucosii_bsp.a(alt_iniche_dev.o)
                              ../FPGAEncrypt_bsp/\libucosii_bsp.a(alt_sys_init.o) (alt_iniche_dev_list)
../FPGAEncrypt_bsp/\libucosii_bsp.a(alt_iniche_read.o)
                              c:/intelfpga_lite/18.1/nios2eds/bin/gnu/h-x86_64-mingw32/bin/../lib/gcc/nios2-elf/5.3.0/../../../../../H-x86_64-mingw32/nios2-elf/lib\libc.a(lib_a-readr.o) (read)
../FPGAEncrypt_bsp/\libucosii_bsp.a(alt_iniche_write.o)
                              c:/intelfpga_lite/18.1/nios2eds/bin/gnu/h-x86_64-mingw32/bin/../lib/gcc/nios2-elf/5.3.0/../../../../../H-x86_64-mingw32/nios2-elf/lib\libc.a(lib_a-writer.o) (write)
../FPGAEncrypt_bsp/\libucosii_bsp.a(ipnet.o)
                              ../FPGAEncrypt_bsp/\libucosii_bsp.a(ins_tse_mac.o) (rcvdq)
../FPGAEncrypt_bsp/\libucosii_bsp.a(ipstart.o)
                              ../FPGAEncrypt_bsp/\libucosii_bsp.a(ins_tse_mac.o) (nets)
../FPGAEncrypt_bsp/\libucosii_bsp.a(igmp_cmn.o)
                              ../FPGAEncrypt_bsp/\libucosii_bsp.a(ipstart.o) (igmp_all_hosts_group)
../FPGAEncrypt_bsp/\libucosii_bsp.a(bsdsock.o)
                              obj/default/iniche_init.o (bsd_accept)
../FPGAEncrypt_bsp/\libucosii_bsp.a(cksum.o)
                              ../FPGAEncrypt_bsp/\libucosii_bsp.a(igmp_cmn.o) (cksum)
../FPGAEncrypt_bsp/\libucosii_bsp.a(in_utils.o)
                              ../FPGAEncrypt_bsp/\libucosii_bsp.a(ins_tse_mac.o) (ns_printf)
../FPGAEncrypt_bsp/\libucosii_bsp.a(netmain.o)
                              obj/default/iniche_init.o (iniche_net_ready)
../FPGAEncrypt_bsp/\libucosii_bsp.a(tk_crnos.o)
                              ../FPGAEncrypt_bsp/\libucosii_bsp.a(ipnet.o) (tk_yield)
../FPGAEncrypt_bsp/\libucosii_bsp.a(dhcpclnt.o)
                              ../FPGAEncrypt_bsp/\libucosii_bsp.a(netmain.o) (dhc_second)
../FPGAEncrypt_bsp/\libucosii_bsp.a(dhcputil.o)
                              ../FPGAEncrypt_bsp/\libucosii_bsp.a(dhcpclnt.o) (find_opt)
../FPGAEncrypt_bsp/\libucosii_bsp.a(pktalloc.o)
                              ../FPGAEncrypt_bsp/\libucosii_bsp.a(ipnet.o) (bigfreeq)
../FPGAEncrypt_bsp/\libucosii_bsp.a(q.o)
                              ../FPGAEncrypt_bsp/\libucosii_bsp.a(ipnet.o) (getq)
../FPGAEncrypt_bsp/\libucosii_bsp.a(udp_open.o)
                              ../FPGAEncrypt_bsp/\libucosii_bsp.a(dhcpclnt.o) (udp_open)
../FPGAEncrypt_bsp/\libucosii_bsp.a(asm_cksum.o)
                              ../FPGAEncrypt_bsp/\libucosii_bsp.a(cksum.o) (asm_cksum)
../FPGAEncrypt_bsp/\libucosii_bsp.a(brdutils.o)
                              ../FPGAEncrypt_bsp/\libucosii_bsp.a(ipnet.o) (dtrap)
../FPGAEncrypt_bsp/\libucosii_bsp.a(osportco.o)
                              ../FPGAEncrypt_bsp/\libucosii_bsp.a(ins_tse_mac.o) (cticks)
../FPGAEncrypt_bsp/\libucosii_bsp.a(targnios.o)
                              ../FPGAEncrypt_bsp/\libucosii_bsp.a(ins_tse_mac.o) (rcvdq_sem_ptr)
../FPGAEncrypt_bsp/\libucosii_bsp.a(nptcp.o)
                              ../FPGAEncrypt_bsp/\libucosii_bsp.a(bsdsock.o) (soq)
../FPGAEncrypt_bsp/\libucosii_bsp.a(rawsock.o)
                              ../FPGAEncrypt_bsp/\libucosii_bsp.a(nptcp.o) (rawip_usrreq)
../FPGAEncrypt_bsp/\libucosii_bsp.a(sockcall.o)
                              obj/default/iniche_init.o (t_socket)
../FPGAEncrypt_bsp/\libucosii_bsp.a(socket.o)
                              ../FPGAEncrypt_bsp/\libucosii_bsp.a(sockcall.o) (socreate)
../FPGAEncrypt_bsp/\libucosii_bsp.a(socket2.o)
                              ../FPGAEncrypt_bsp/\libucosii_bsp.a(sockcall.o) (soqremque)
../FPGAEncrypt_bsp/\libucosii_bsp.a(soselect.o)
                              ../FPGAEncrypt_bsp/\libucosii_bsp.a(bsdsock.o) (t_select)
../FPGAEncrypt_bsp/\libucosii_bsp.a(tcp_in.o)
                              ../FPGAEncrypt_bsp/\libucosii_bsp.a(nptcp.o) (tcp_input)
../FPGAEncrypt_bsp/\libucosii_bsp.a(tcp_out.o)
                              ../FPGAEncrypt_bsp/\libucosii_bsp.a(tcp_in.o) (tcp_output)
../FPGAEncrypt_bsp/\libucosii_bsp.a(tcp_subr.o)
                              ../FPGAEncrypt_bsp/\libucosii_bsp.a(nptcp.o) (tcpstat)
../FPGAEncrypt_bsp/\libucosii_bsp.a(tcp_timr.o)
                              ../FPGAEncrypt_bsp/\libucosii_bsp.a(tcp_in.o) (tcp_keepidle)
../FPGAEncrypt_bsp/\libucosii_bsp.a(tcp_usr.o)
                              ../FPGAEncrypt_bsp/\libucosii_bsp.a(nptcp.o) (tcp_usrreq)
../FPGAEncrypt_bsp/\libucosii_bsp.a(tcpport.o)
                              ../FPGAEncrypt_bsp/\libucosii_bsp.a(ipstart.o) (tcpinit)
../FPGAEncrypt_bsp/\libucosii_bsp.a(udpsock.o)
                              ../FPGAEncrypt_bsp/\libucosii_bsp.a(nptcp.o) (udp_usrreq)
../FPGAEncrypt_bsp/\libucosii_bsp.a(alt_alarm_start.o)
                              ../FPGAEncrypt_bsp/\libucosii_bsp.a(altera_avalon_jtag_uart_init.o) (alt_alarm_start)
../FPGAEncrypt_bsp/\libucosii_bsp.a(alt_busy_sleep.o)
                              ../FPGAEncrypt_bsp/\libucosii_bsp.a(altera_epcq_controller2.o) (alt_busy_sleep)
../FPGAEncrypt_bsp/\libucosii_bsp.a(alt_close.o)
                              ../FPGAEncrypt_bsp/\libucosii_bsp.a(alt_iniche_close.o) (alt_close)
../FPGAEncrypt_bsp/\libucosii_bsp.a(alt_dcache_flush.o)
                              ../FPGAEncrypt_bsp/\libucosii_bsp.a(altera_msgdma.o) (alt_dcache_flush)
../FPGAEncrypt_bsp/\libucosii_bsp.a(alt_dev.o)
                              ../FPGAEncrypt_bsp/\libucosii_bsp.a(alt_sys_init.o) (alt_dev_list)
../FPGAEncrypt_bsp/\libucosii_bsp.a(alt_dev_llist_insert.o)
                              ../FPGAEncrypt_bsp/\libucosii_bsp.a(alt_sys_init.o) (alt_dev_llist_insert)
../FPGAEncrypt_bsp/\libucosii_bsp.a(alt_do_ctors.o)
                              ../FPGAEncrypt_bsp/\libucosii_bsp.a(alt_main.o) (_do_ctors)
../FPGAEncrypt_bsp/\libucosii_bsp.a(alt_do_dtors.o)
                              ../FPGAEncrypt_bsp/\libucosii_bsp.a(alt_main.o) (_do_dtors)
../FPGAEncrypt_bsp/\libucosii_bsp.a(alt_errno.o)
                              ../FPGAEncrypt_bsp/\libucosii_bsp.a(alt_fstat.o) (alt_errno)
../FPGAEncrypt_bsp/\libucosii_bsp.a(alt_find_dev.o)
                              ../FPGAEncrypt_bsp/\libucosii_bsp.a(altera_msgdma.o) (alt_find_dev)
../FPGAEncrypt_bsp/\libucosii_bsp.a(alt_flash_dev.o)
                              ../FPGAEncrypt_bsp/\libucosii_bsp.a(altera_epcq_controller2.o) (alt_flash_dev_list)
../FPGAEncrypt_bsp/\libucosii_bsp.a(alt_iic.o)
                              ../FPGAEncrypt_bsp/\libucosii_bsp.a(altera_avalon_jtag_uart_init.o) (alt_ic_isr_register)
../FPGAEncrypt_bsp/\libucosii_bsp.a(alt_iic_isr_register.o)
                              ../FPGAEncrypt_bsp/\libucosii_bsp.a(alt_iic.o) (alt_iic_isr_register)
../FPGAEncrypt_bsp/\libucosii_bsp.a(alt_io_redirect.o)
                              ../FPGAEncrypt_bsp/\libucosii_bsp.a(alt_main.o) (alt_io_redirect)
../FPGAEncrypt_bsp/\libucosii_bsp.a(alt_irq_entry.o)
                              ../FPGAEncrypt_bsp/\libucosii_bsp.a(alt_iic_isr_register.o) (alt_irq_entry)
../FPGAEncrypt_bsp/\libucosii_bsp.a(alt_irq_handler.o)
                              ../FPGAEncrypt_bsp/\libucosii_bsp.a(alt_iic_isr_register.o) (alt_irq)
../FPGAEncrypt_bsp/\libucosii_bsp.a(alt_irq_vars.o)
                              ../FPGAEncrypt_bsp/\libucosii_bsp.a(alt_iic.o) (alt_irq_active)
../FPGAEncrypt_bsp/\libucosii_bsp.a(alt_open.o)
                              ../FPGAEncrypt_bsp/\libucosii_bsp.a(alt_io_redirect.o) (open)
../FPGAEncrypt_bsp/\libucosii_bsp.a(alt_printf.o)
                              ../FPGAEncrypt_bsp/\libucosii_bsp.a(altera_msgdma.o) (alt_printf)
../FPGAEncrypt_bsp/\libucosii_bsp.a(alt_putchar.o)
                              ../FPGAEncrypt_bsp/\libucosii_bsp.a(alt_printf.o) (alt_putchar)
../FPGAEncrypt_bsp/\libucosii_bsp.a(alt_read.o)
                              ../FPGAEncrypt_bsp/\libucosii_bsp.a(alt_iniche_read.o) (alt_read)
../FPGAEncrypt_bsp/\libucosii_bsp.a(alt_release_fd.o)
                              ../FPGAEncrypt_bsp/\libucosii_bsp.a(alt_close.o) (alt_release_fd)
../FPGAEncrypt_bsp/\libucosii_bsp.a(alt_remap_cached.o)
                              ../FPGAEncrypt_bsp/\libucosii_bsp.a(ins_tse_mac.o) (alt_remap_cached)
../FPGAEncrypt_bsp/\libucosii_bsp.a(alt_tick.o)
                              ../FPGAEncrypt_bsp/\libucosii_bsp.a(altera_avalon_jtag_uart_init.o) (_alt_tick_rate)
../FPGAEncrypt_bsp/\libucosii_bsp.a(alt_uncached_free.o)
                              ../FPGAEncrypt_bsp/\libucosii_bsp.a(targnios.o) (alt_uncached_free)
../FPGAEncrypt_bsp/\libucosii_bsp.a(alt_uncached_malloc.o)
                              ../FPGAEncrypt_bsp/\libucosii_bsp.a(ins_tse_mac.o) (alt_uncached_malloc)
../FPGAEncrypt_bsp/\libucosii_bsp.a(alt_write.o)
                              ../FPGAEncrypt_bsp/\libucosii_bsp.a(alt_iniche_write.o) (alt_write)
../FPGAEncrypt_bsp/\libucosii_bsp.a(altera_nios2_gen2_irq.o)
                              ../FPGAEncrypt_bsp/\libucosii_bsp.a(alt_sys_init.o) (altera_nios2_gen2_irq_init)
../FPGAEncrypt_bsp/\libucosii_bsp.a(os_cpu_a.o)
                              ../FPGAEncrypt_bsp/\libucosii_bsp.a(os_core.o) (OSIntCtxSw)
../FPGAEncrypt_bsp/\libucosii_bsp.a(os_cpu_c.o)
                              ../FPGAEncrypt_bsp/\libucosii_bsp.a(os_task.o) (OSTaskStkInit)
../FPGAEncrypt_bsp/\libucosii_bsp.a(altera_avalon_tse.o)
                              ../FPGAEncrypt_bsp/\libucosii_bsp.a(ins_tse_mac.o) (tse_mac_initTransInfo2)
../FPGAEncrypt_bsp/\libucosii_bsp.a(allports.o)
                              ../FPGAEncrypt_bsp/\libucosii_bsp.a(dhcpclnt.o) (name)
../FPGAEncrypt_bsp/\libucosii_bsp.a(timeouts.o)
                              ../FPGAEncrypt_bsp/\libucosii_bsp.a(netmain.o) (inet_timer)
../FPGAEncrypt_bsp/\libucosii_bsp.a(tk_misc.o)
                              ../FPGAEncrypt_bsp/\libucosii_bsp.a(netmain.o) (create_apptasks)
../FPGAEncrypt_bsp/\libucosii_bsp.a(alt_iniche_fcntl.o)
                              ../FPGAEncrypt_bsp/\libucosii_bsp.a(brdutils.o) (fcntl)
../FPGAEncrypt_bsp/\libucosii_bsp.a(et_arp.o)
                              ../FPGAEncrypt_bsp/\libucosii_bsp.a(ipstart.o) (etainit)
../FPGAEncrypt_bsp/\libucosii_bsp.a(iface.o)
                              ../FPGAEncrypt_bsp/\libucosii_bsp.a(ipnet.o) (netlist)
../FPGAEncrypt_bsp/\libucosii_bsp.a(ip.o)
                              ../FPGAEncrypt_bsp/\libucosii_bsp.a(igmp_cmn.o) (ip_mib)
../FPGAEncrypt_bsp/\libucosii_bsp.a(ip_reasm.o)
                              ../FPGAEncrypt_bsp/\libucosii_bsp.a(timeouts.o) (ire_cticks)
../FPGAEncrypt_bsp/\libucosii_bsp.a(ipdemux.o)
                              ../FPGAEncrypt_bsp/\libucosii_bsp.a(ipnet.o) (ip_rcv)
../FPGAEncrypt_bsp/\libucosii_bsp.a(ipmc.o)
                              ../FPGAEncrypt_bsp/\libucosii_bsp.a(ipstart.o) (in_addmulti)
../FPGAEncrypt_bsp/\libucosii_bsp.a(ipport.o)
                              ../FPGAEncrypt_bsp/\libucosii_bsp.a(targnios.o) (port_prep)
../FPGAEncrypt_bsp/\libucosii_bsp.a(ipraw.o)
                              ../FPGAEncrypt_bsp/\libucosii_bsp.a(rawsock.o) (ipraw_eps)
../FPGAEncrypt_bsp/\libucosii_bsp.a(iproute.o)
                              ../FPGAEncrypt_bsp/\libucosii_bsp.a(ip.o) (cachedRoute)
../FPGAEncrypt_bsp/\libucosii_bsp.a(udp.o)
                              ../FPGAEncrypt_bsp/\libucosii_bsp.a(ipdemux.o) (udpdemux)
../FPGAEncrypt_bsp/\libucosii_bsp.a(igmp.o)
                              ../FPGAEncrypt_bsp/\libucosii_bsp.a(igmp_cmn.o) (igmpv1_input)
../FPGAEncrypt_bsp/\libucosii_bsp.a(igmp2.o)
                              ../FPGAEncrypt_bsp/\libucosii_bsp.a(igmp_cmn.o) (igmpv2_input)
../FPGAEncrypt_bsp/\libucosii_bsp.a(ipopt.o)
                              ../FPGAEncrypt_bsp/\libucosii_bsp.a(socket.o) (ip_setmoptions)
../FPGAEncrypt_bsp/\libucosii_bsp.a(u_mctest.o)
                              ../FPGAEncrypt_bsp/\libucosii_bsp.a(allports.o) (u_mctest_init)
../FPGAEncrypt_bsp/\libucosii_bsp.a(dhcsetup.o)
                              ../FPGAEncrypt_bsp/\libucosii_bsp.a(allports.o) (dhc_setup)
../FPGAEncrypt_bsp/\libucosii_bsp.a(memdev.o)
                              ../FPGAEncrypt_bsp/\libucosii_bsp.a(allports.o) (init_memdev)
../FPGAEncrypt_bsp/\libucosii_bsp.a(parseip.o)
                              ../FPGAEncrypt_bsp/\libucosii_bsp.a(u_mctest.o) (inet_addr)
../FPGAEncrypt_bsp/\libucosii_bsp.a(tcpcksum.o)
                              ../FPGAEncrypt_bsp/\libucosii_bsp.a(nptcp.o) (tcp_cksum)
../FPGAEncrypt_bsp/\libucosii_bsp.a(in_pcb.o)
                              ../FPGAEncrypt_bsp/\libucosii_bsp.a(tcp_usr.o) (in_pcballoc)
../FPGAEncrypt_bsp/\libucosii_bsp.a(vfsfiles.o)
                              ../FPGAEncrypt_bsp/\libucosii_bsp.a(memdev.o) (vfsystems)
../FPGAEncrypt_bsp/\libucosii_bsp.a(vfsport.o)
                              ../FPGAEncrypt_bsp/\libucosii_bsp.a(allports.o) (prep_vfs)
../FPGAEncrypt_bsp/\libucosii_bsp.a(alt_exception_entry.o)
                              ../FPGAEncrypt_bsp/\libucosii_bsp.a(alt_irq_entry.o) (alt_exception)
../FPGAEncrypt_bsp/\libucosii_bsp.a(alt_fcntl.o)
                              ../FPGAEncrypt_bsp/\libucosii_bsp.a(alt_iniche_fcntl.o) (alt_fcntl)
../FPGAEncrypt_bsp/\libucosii_bsp.a(alt_find_file.o)
                              ../FPGAEncrypt_bsp/\libucosii_bsp.a(alt_open.o) (alt_find_file)
../FPGAEncrypt_bsp/\libucosii_bsp.a(alt_get_fd.o)
                              ../FPGAEncrypt_bsp/\libucosii_bsp.a(alt_open.o) (alt_get_fd)
../FPGAEncrypt_bsp/\libucosii_bsp.a(alt_instruction_exception_entry.o)
                              ../FPGAEncrypt_bsp/\libucosii_bsp.a(alt_exception_entry.o) (alt_instruction_exception_entry)
../FPGAEncrypt_bsp/\libucosii_bsp.a(alt_usleep.o)
                              ../FPGAEncrypt_bsp/\libucosii_bsp.a(altera_avalon_tse.o) (usleep)
../FPGAEncrypt_bsp/\libucosii_bsp.a(icmp.o)
                              ../FPGAEncrypt_bsp/\libucosii_bsp.a(ipdemux.o) (icmprcv)
c:/intelfpga_lite/18.1/nios2eds/bin/gnu/h-x86_64-mingw32/bin/../lib/gcc/nios2-elf/5.3.0/../../../../../H-x86_64-mingw32/nios2-elf/lib\libc.a(lib_a-atexit.o)
                              ../FPGAEncrypt_bsp/\libucosii_bsp.a(alt_main.o) (atexit)
c:/intelfpga_lite/18.1/nios2eds/bin/gnu/h-x86_64-mingw32/bin/../lib/gcc/nios2-elf/5.3.0/../../../../../H-x86_64-mingw32/nios2-elf/lib\libc.a(lib_a-atoi.o)
                              ../FPGAEncrypt_bsp/\libucosii_bsp.a(parseip.o) (atoi)
c:/intelfpga_lite/18.1/nios2eds/bin/gnu/h-x86_64-mingw32/bin/../lib/gcc/nios2-elf/5.3.0/../../../../../H-x86_64-mingw32/nios2-elf/lib\libc.a(lib_a-exit.o)
                              ../FPGAEncrypt_bsp/\libucosii_bsp.a(alt_main.o) (exit)
c:/intelfpga_lite/18.1/nios2eds/bin/gnu/h-x86_64-mingw32/bin/../lib/gcc/nios2-elf/5.3.0/../../../../../H-x86_64-mingw32/nios2-elf/lib\libc.a(lib_a-malign.o)
                              ../FPGAEncrypt_bsp/\libucosii_bsp.a(alt_uncached_malloc.o) (memalign)
c:/intelfpga_lite/18.1/nios2eds/bin/gnu/h-x86_64-mingw32/bin/../lib/gcc/nios2-elf/5.3.0/../../../../../H-x86_64-mingw32/nios2-elf/lib\libc.a(lib_a-malignr.o)
                              c:/intelfpga_lite/18.1/nios2eds/bin/gnu/h-x86_64-mingw32/bin/../lib/gcc/nios2-elf/5.3.0/../../../../../H-x86_64-mingw32/nios2-elf/lib\libc.a(lib_a-malign.o) (_memalign_r)
c:/intelfpga_lite/18.1/nios2eds/bin/gnu/h-x86_64-mingw32/bin/../lib/gcc/nios2-elf/5.3.0/../../../../../H-x86_64-mingw32/nios2-elf/lib\libc.a(lib_a-malloc.o)
                              ../FPGAEncrypt_bsp/\libucosii_bsp.a(targnios.o) (malloc)
c:/intelfpga_lite/18.1/nios2eds/bin/gnu/h-x86_64-mingw32/bin/../lib/gcc/nios2-elf/5.3.0/../../../../../H-x86_64-mingw32/nios2-elf/lib\libc.a(lib_a-strcpy.o)
                              ../FPGAEncrypt_bsp/\libucosii_bsp.a(altera_avalon_tse.o) (strcpy)
c:/intelfpga_lite/18.1/nios2eds/bin/gnu/h-x86_64-mingw32/bin/../lib/gcc/nios2-elf/5.3.0/../../../../../H-x86_64-mingw32/nios2-elf/lib\libc.a(lib_a-strncmp.o)
                              ../FPGAEncrypt_bsp/\libucosii_bsp.a(vfsfiles.o) (strncmp)
c:/intelfpga_lite/18.1/nios2eds/bin/gnu/h-x86_64-mingw32/bin/../lib/gcc/nios2-elf/5.3.0/../../../../../H-x86_64-mingw32/nios2-elf/lib\libc.a(lib_a-strncpy.o)
                              ../FPGAEncrypt_bsp/\libucosii_bsp.a(dhcpclnt.o) (strncpy)
c:/intelfpga_lite/18.1/nios2eds/bin/gnu/h-x86_64-mingw32/bin/../lib/gcc/nios2-elf/5.3.0/../../../../../H-x86_64-mingw32/nios2-elf/lib\libc.a(lib_a-strtol.o)
                              c:/intelfpga_lite/18.1/nios2eds/bin/gnu/h-x86_64-mingw32/bin/../lib/gcc/nios2-elf/5.3.0/../../../../../H-x86_64-mingw32/nios2-elf/lib\libc.a(lib_a-atoi.o) (_strtol_r)
c:/intelfpga_lite/18.1/nios2eds/bin/gnu/h-x86_64-mingw32/bin/../lib/gcc/nios2-elf/5.3.0/../../../../../H-x86_64-mingw32/nios2-elf/lib\libc.a(lib_a-vprintf.o)
                              ../FPGAEncrypt_bsp/\libucosii_bsp.a(in_utils.o) (vprintf)
c:/intelfpga_lite/18.1/nios2eds/bin/gnu/h-x86_64-mingw32/bin/../lib/gcc/nios2-elf/5.3.0/../../../../../H-x86_64-mingw32/nios2-elf/lib\libc.a(lib_a-vsprintf.o)
                              ../FPGAEncrypt_bsp/\libucosii_bsp.a(in_utils.o) (vsprintf)
c:/intelfpga_lite/18.1/nios2eds/bin/gnu/h-x86_64-mingw32/bin/../lib/gcc/nios2-elf/5.3.0/../../../../../H-x86_64-mingw32/nios2-elf/lib\libc.a(lib_a-__atexit.o)
                              c:/intelfpga_lite/18.1/nios2eds/bin/gnu/h-x86_64-mingw32/bin/../lib/gcc/nios2-elf/5.3.0/../../../../../H-x86_64-mingw32/nios2-elf/lib\libc.a(lib_a-atexit.o) (__register_exitproc)
c:/intelfpga_lite/18.1/nios2eds/bin/gnu/h-x86_64-mingw32/bin/../lib/gcc/nios2-elf/5.3.0/../../../../../H-x86_64-mingw32/nios2-elf/lib\libc.a(lib_a-__call_atexit.o)
                              c:/intelfpga_lite/18.1/nios2eds/bin/gnu/h-x86_64-mingw32/bin/../lib/gcc/nios2-elf/5.3.0/../../../../../H-x86_64-mingw32/nios2-elf/lib\libc.a(lib_a-exit.o) (__call_exitprocs)
c:/intelfpga_lite/18.1/nios2eds/bin/gnu/h-x86_64-mingw32/bin/../lib/gcc/nios2-elf/5.3.0/../../../../../H-x86_64-mingw32/nios2-elf/lib\libc.a(lib_a-vfprintfr_1.o)
                              c:/intelfpga_lite/18.1/nios2eds/bin/gnu/h-x86_64-mingw32/bin/../lib/gcc/nios2-elf/5.3.0/../../../../../H-x86_64-mingw32/nios2-elf/lib\libc.a(lib_a-vprintf.o) (_vfprintf_r)
../FPGAEncrypt_bsp/\libucosii_bsp.a(alt_exit.o)
                              c:/intelfpga_lite/18.1/nios2eds/bin/gnu/h-x86_64-mingw32/bin/../lib/gcc/nios2-elf/5.3.0/../../../../../H-x86_64-mingw32/nios2-elf/lib\libc.a(lib_a-exit.o) (_exit)

Allocating common symbols
Common symbol       size              file

soq                 0x14              ../FPGAEncrypt_bsp/\libucosii_bsp.a(nptcp.o)
alt_irq             0x100             ../FPGAEncrypt_bsp/\libucosii_bsp.a(alt_irq_handler.o)
tcp_optionbuf       0x4               ../FPGAEncrypt_bsp/\libucosii_bsp.a(tcp_out.o)
last_flash_sector_offset
                    0x4               obj/default/network_utilities.o
rt_mib              0x4               ../FPGAEncrypt_bsp/\libucosii_bsp.a(ip.o)
so_evtmap_create    0x4               ../FPGAEncrypt_bsp/\libucosii_bsp.a(ipport.o)
SSSLEDCommandQ      0x4               obj/default/simple_socket_server.o
eth_tse_if          0xe0              ../FPGAEncrypt_bsp/\libucosii_bsp.a(alt_sys_init.o)
OSLockNesting       0x1               ../FPGAEncrypt_bsp/\libucosii_bsp.a(os_core.o)
tcb                 0x2c              ../FPGAEncrypt_bsp/\libucosii_bsp.a(tcp_subr.o)
OSRunning           0x1               ../FPGAEncrypt_bsp/\libucosii_bsp.a(os_core.o)
dhc_states          0xf0              ../FPGAEncrypt_bsp/\libucosii_bsp.a(dhcpclnt.o)
tcpstat             0xe0              ../FPGAEncrypt_bsp/\libucosii_bsp.a(tcp_subr.o)
OSIdleCtr           0x4               ../FPGAEncrypt_bsp/\libucosii_bsp.a(os_core.o)
SSSLEDLightshowSem  0x4               obj/default/simple_socket_server.o
udp_mib             0x10              ../FPGAEncrypt_bsp/\libucosii_bsp.a(udp.o)
to_netmain          0x1               ../FPGAEncrypt_bsp/\libucosii_bsp.a(netmain.o)
OSPrioHighRdy       0x1               ../FPGAEncrypt_bsp/\libucosii_bsp.a(os_core.o)
errno               0x4               c:/intelfpga_lite/18.1/nios2eds/bin/gnu/h-x86_64-mingw32/bin/../lib/gcc/nios2-elf/5.3.0/../../../../../H-x86_64-mingw32/nios2-elf/lib\libc.a(lib_a-int_errno.o)
lilfreeq            0x14              ../FPGAEncrypt_bsp/\libucosii_bsp.a(pktalloc.o)
icmp_mib            0x68              ../FPGAEncrypt_bsp/\libucosii_bsp.a(icmp.o)
pmac_groups         0x10              ../FPGAEncrypt_bsp/\libucosii_bsp.a(altera_avalon_tse.o)
resid_semaphore     0x40              ../FPGAEncrypt_bsp/\libucosii_bsp.a(targnios.o)
alt_heapsem         0x4               ../FPGAEncrypt_bsp/\libucosii_bsp.a(alt_malloc_lock.o)
OSFlagTbl           0x370             ../FPGAEncrypt_bsp/\libucosii_bsp.a(os_core.o)
mbstat              0x8               ../FPGAEncrypt_bsp/\libucosii_bsp.a(nptcp.o)
netq_intmask        0x4               ../FPGAEncrypt_bsp/\libucosii_bsp.a(osportco.o)
select_wait         0x2               ../FPGAEncrypt_bsp/\libucosii_bsp.a(nptcp.o)
tse_iniche_dev_driver_data
                    0x30              ../FPGAEncrypt_bsp/\libucosii_bsp.a(ins_tse_mac.o)
tcpmib              0x3c              ../FPGAEncrypt_bsp/\libucosii_bsp.a(nptcp.o)
OSPrioCur           0x1               ../FPGAEncrypt_bsp/\libucosii_bsp.a(os_core.o)
tse                 0x290             ../FPGAEncrypt_bsp/\libucosii_bsp.a(ins_tse_mac.o)
mheap_sem_ptr       0x4               ../FPGAEncrypt_bsp/\libucosii_bsp.a(targnios.o)
netlist             0x14              ../FPGAEncrypt_bsp/\libucosii_bsp.a(iface.o)
mbufq               0x14              ../FPGAEncrypt_bsp/\libucosii_bsp.a(nptcp.o)
OSTCBList           0x4               ../FPGAEncrypt_bsp/\libucosii_bsp.a(os_core.o)
alt_fd_list_lock    0x4               ../FPGAEncrypt_bsp/\libucosii_bsp.a(alt_dev.o)
OSMemTbl            0xc30             ../FPGAEncrypt_bsp/\libucosii_bsp.a(os_core.o)
OSTickStepState     0x1               ../FPGAEncrypt_bsp/\libucosii_bsp.a(os_core.o)
OSTaskStatStk       0x800             ../FPGAEncrypt_bsp/\libucosii_bsp.a(os_core.o)
OSCtxSwCtr          0x4               ../FPGAEncrypt_bsp/\libucosii_bsp.a(os_core.o)
igmpstats           0x64              ../FPGAEncrypt_bsp/\libucosii_bsp.a(igmp_cmn.o)
ire_stats           0x18              ../FPGAEncrypt_bsp/\libucosii_bsp.a(ip_reasm.o)
old_mode            0x4               ../FPGAEncrypt_bsp/\libucosii_bsp.a(osportco.o)
vfs_dir_stale       0x4               ../FPGAEncrypt_bsp/\libucosii_bsp.a(vfsfiles.o)
pphy_profiles       0x20              ../FPGAEncrypt_bsp/\libucosii_bsp.a(altera_avalon_tse.o)
cticks_factor       0x4               ../FPGAEncrypt_bsp/\libucosii_bsp.a(brdutils.o)
OSIdleCtrMax        0x4               ../FPGAEncrypt_bsp/\libucosii_bsp.a(os_core.o)
memestats           0x10              ../FPGAEncrypt_bsp/\libucosii_bsp.a(pktalloc.o)
intimers            0x64              ../FPGAEncrypt_bsp/\libucosii_bsp.a(timeouts.o)
OSTCBFreeList       0x4               ../FPGAEncrypt_bsp/\libucosii_bsp.a(os_core.o)
global_TCPwakeup_setIndx
                    0x4               ../FPGAEncrypt_bsp/\libucosii_bsp.a(osportco.o)
SSSInitialTaskStk   0x2000            obj/default/iniche_init.o
rcvdq               0x14              ../FPGAEncrypt_bsp/\libucosii_bsp.a(ipnet.o)
global_tcb_ext      0xfc              ../FPGAEncrypt_bsp/\libucosii_bsp.a(osportco.o)
netstatic           0x300             ../FPGAEncrypt_bsp/\libucosii_bsp.a(ipstart.o)
tcp_maxidle         0x4               ../FPGAEncrypt_bsp/\libucosii_bsp.a(tcp_timr.o)
LED7SegLightshowTaskStk
                    0x2000            obj/default/simple_socket_server.o
OSCPUUsage          0x1               ../FPGAEncrypt_bsp/\libucosii_bsp.a(os_core.o)
nets                0x10              ../FPGAEncrypt_bsp/\libucosii_bsp.a(ipstart.o)
pktlog              0xf0              ../FPGAEncrypt_bsp/\libucosii_bsp.a(pktalloc.o)
OSTaskCtr           0x1               ../FPGAEncrypt_bsp/\libucosii_bsp.a(os_core.o)
SSSLEDEventFlag     0x4               obj/default/simple_socket_server.o
OSMemFreeList       0x4               ../FPGAEncrypt_bsp/\libucosii_bsp.a(os_core.o)
vfs_open_files      0x4               ../FPGAEncrypt_bsp/\libucosii_bsp.a(vfsfiles.o)
cticks              0x4               ../FPGAEncrypt_bsp/\libucosii_bsp.a(osportco.o)
to_nettick          0x1               ../FPGAEncrypt_bsp/\libucosii_bsp.a(netmain.o)
last_flash_sector   0x4               obj/default/network_utilities.o
OSQTbl              0x1e0             ../FPGAEncrypt_bsp/\libucosii_bsp.a(os_core.o)
OSTCBHighRdy        0x4               ../FPGAEncrypt_bsp/\libucosii_bsp.a(os_core.o)
OSQFreeList         0x4               ../FPGAEncrypt_bsp/\libucosii_bsp.a(os_core.o)
OSRdyGrp            0x1               ../FPGAEncrypt_bsp/\libucosii_bsp.a(os_core.o)
ip_mib              0x50              ../FPGAEncrypt_bsp/\libucosii_bsp.a(ip.o)
SSSLEDCommandQTbl   0x78              obj/default/simple_socket_server.o
OS_TPS              0x4               ../FPGAEncrypt_bsp/\libucosii_bsp.a(brdutils.o)
OSRdyTbl            0x3               ../FPGAEncrypt_bsp/\libucosii_bsp.a(os_core.o)
igmp_all_hosts_group
                    0x4               ../FPGAEncrypt_bsp/\libucosii_bsp.a(igmp_cmn.o)
eth_prt_buf         0x12              ../FPGAEncrypt_bsp/\libucosii_bsp.a(in_utils.o)
app_semaphore       0x18              ../FPGAEncrypt_bsp/\libucosii_bsp.a(targnios.o)
LEDManagementTaskStk
                    0x2000            obj/default/simple_socket_server.o
rcvdq_sem_ptr       0x4               ../FPGAEncrypt_bsp/\libucosii_bsp.a(targnios.o)
OSEventFreeList     0x4               ../FPGAEncrypt_bsp/\libucosii_bsp.a(os_core.o)
mfreeq              0x14              ../FPGAEncrypt_bsp/\libucosii_bsp.a(nptcp.o)
global_TCPwakeup_set
                    0xf0              ../FPGAEncrypt_bsp/\libucosii_bsp.a(osportco.o)
bigfreeq            0x14              ../FPGAEncrypt_bsp/\libucosii_bsp.a(pktalloc.o)
so_evtmap_delete    0x4               ../FPGAEncrypt_bsp/\libucosii_bsp.a(ipport.o)
tcp_saveti          0x28              ../FPGAEncrypt_bsp/\libucosii_bsp.a(tcp_in.o)
OSIntNesting        0x1               ../FPGAEncrypt_bsp/\libucosii_bsp.a(os_core.o)
so_evtmap           0x1               ../FPGAEncrypt_bsp/\libucosii_bsp.a(ipport.o)
OSTCBCur            0x4               ../FPGAEncrypt_bsp/\libucosii_bsp.a(os_core.o)
arp_table           0x100             ../FPGAEncrypt_bsp/\libucosii_bsp.a(et_arp.o)
tcp_iss             0x4               ../FPGAEncrypt_bsp/\libucosii_bsp.a(tcp_timr.o)
vfs_total_rw_space  0x4               ../FPGAEncrypt_bsp/\libucosii_bsp.a(vfsfiles.o)
OSTime              0x4               ../FPGAEncrypt_bsp/\libucosii_bsp.a(os_core.o)
OSTaskIdleStk       0x800             ../FPGAEncrypt_bsp/\libucosii_bsp.a(os_core.o)
OSEventTbl          0xb40             ../FPGAEncrypt_bsp/\libucosii_bsp.a(os_core.o)
vfs_total_dyna_files
                    0x4               ../FPGAEncrypt_bsp/\libucosii_bsp.a(vfsfiles.o)
OSTCBTbl            0x510             ../FPGAEncrypt_bsp/\libucosii_bsp.a(os_core.o)
ipreturn            0x12              ../FPGAEncrypt_bsp/\libucosii_bsp.a(in_utils.o)
OSFlagFreeList      0x4               ../FPGAEncrypt_bsp/\libucosii_bsp.a(os_core.o)
dropline            0x4               ../FPGAEncrypt_bsp/\libucosii_bsp.a(tcp_in.o)
OSStatRdy           0x1               ../FPGAEncrypt_bsp/\libucosii_bsp.a(os_core.o)
OSTCBPrioTbl        0x54              ../FPGAEncrypt_bsp/\libucosii_bsp.a(os_core.o)
igmp_all_rtrs_group
                    0x4               ../FPGAEncrypt_bsp/\libucosii_bsp.a(igmp_cmn.o)
alt_envsem          0x4               ../FPGAEncrypt_bsp/\libucosii_bsp.a(alt_env_lock.o)
OSIdleCtrRun        0x4               ../FPGAEncrypt_bsp/\libucosii_bsp.a(os_core.o)

Memory Configuration

Name             Origin             Length             Attributes
ext_epcq_flash_avl_mem_BEFORE_RESET 0x0000000000000000 0x0000000000300000
reset            0x0000000000300000 0x0000000000000020
ext_epcq_flash_avl_mem 0x0000000000300020 0x00000000004fffe0
descriptor_memory 0x0000000001004000 0x0000000000002000
sll_hyperbus_controller_top_0_BEFORE_EXCEPTION 0x0000000005000000 0x0000000000000120
sll_hyperbus_controller_top_0 0x0000000005000120 0x0000000000fffee0
onchip_ram       0x0000000007000800 0x0000000000000800
*default*        0x0000000000000000 0xffffffffffffffff

Linker script and memory map

LOAD ../FPGAEncrypt_bsp//obj/HAL/src/crt0.o
LOAD obj/default/alt_error_handler.o
LOAD obj/default/iniche_init.o
LOAD obj/default/led.o
LOAD obj/default/network_utilities.o
LOAD obj/default/simple_socket_server.o
LOAD obj/default/tse_my_system.o
LOAD c:/intelfpga_lite/18.1/nios2eds/bin/gnu/h-x86_64-mingw32/bin/../lib/gcc/nios2-elf/5.3.0/../../../../../H-x86_64-mingw32/nios2-elf/lib\libstdc++.a
LOAD c:/intelfpga_lite/18.1/nios2eds/bin/gnu/h-x86_64-mingw32/bin/../lib/gcc/nios2-elf/5.3.0/../../../../../H-x86_64-mingw32/nios2-elf/lib\libm.a
LOAD c:/intelfpga_lite/18.1/nios2eds/bin/gnu/h-x86_64-mingw32/bin/../lib/gcc/nios2-elf/5.3.0\libgcc.a
START GROUP
LOAD c:/intelfpga_lite/18.1/nios2eds/bin/gnu/h-x86_64-mingw32/bin/../lib/gcc/nios2-elf/5.3.0/../../../../../H-x86_64-mingw32/nios2-elf/lib\libc.a
LOAD c:/intelfpga_lite/18.1/nios2eds/bin/gnu/h-x86_64-mingw32/bin/../lib/gcc/nios2-elf/5.3.0\libgcc.a
LOAD ../FPGAEncrypt_bsp/\libucosii_bsp.a
LOAD c:/intelfpga_lite/18.1/nios2eds/bin/gnu/h-x86_64-mingw32/bin/../lib/gcc/nios2-elf/5.3.0/../../../../../H-x86_64-mingw32/nios2-elf/lib\libm.a
END GROUP
LOAD c:/intelfpga_lite/18.1/nios2eds/bin/gnu/h-x86_64-mingw32/bin/../lib/gcc/nios2-elf/5.3.0\libgcc.a
                0x0000000000000000                __alt_mem_ext_epcq_flash_avl_mem = 0x0
                0x0000000001004000                __alt_mem_descriptor_memory = 0x1004000
                0x0000000005000000                __alt_mem_sll_hyperbus_controller_top_0 = 0x5000000
                0x0000000007000800                __alt_mem_onchip_ram = 0x7000800

.entry          0x0000000000300000        0x0
 *(.entry)
 .entry         0x0000000000300000        0x0 ../FPGAEncrypt_bsp//obj/HAL/src/crt0.o
                0x0000000000300000                __reset

.exceptions     0x0000000005000120      0x224
                [!provide]                        PROVIDE (__ram_exceptions_start, ABSOLUTE (.))
                0x0000000005000120                . = ALIGN (0x20)
 *(.irq)
 *(.exceptions.entry.label)
 .exceptions.entry.label
                0x0000000005000120        0x0 ../FPGAEncrypt_bsp/\libucosii_bsp.a(alt_irq_entry.o)
                0x0000000005000120                alt_irq_entry
 .exceptions.entry.label
                0x0000000005000120        0x0 ../FPGAEncrypt_bsp/\libucosii_bsp.a(alt_exception_entry.o)
                0x0000000005000120                alt_exception
 *(.exceptions.entry.user)
 *(.exceptions.entry.ecc_fatal)
 *(.exceptions.entry)
 .exceptions.entry
                0x0000000005000120       0x54 ../FPGAEncrypt_bsp/\libucosii_bsp.a(alt_exception_entry.o)
 *(.exceptions.irqtest.user)
 *(.exceptions.irqtest)
 .exceptions.irqtest
                0x0000000005000174       0x10 ../FPGAEncrypt_bsp/\libucosii_bsp.a(alt_irq_entry.o)
 *(.exceptions.irqhandler.user)
 *(.exceptions.irqhandler)
 .exceptions.irqhandler
                0x0000000005000184        0x4 ../FPGAEncrypt_bsp/\libucosii_bsp.a(alt_irq_entry.o)
 *(.exceptions.irqreturn.user)
 *(.exceptions.irqreturn)
 .exceptions.irqreturn
                0x0000000005000188        0x4 ../FPGAEncrypt_bsp/\libucosii_bsp.a(alt_irq_entry.o)
 *(.exceptions.notirq.label)
 .exceptions.notirq.label
                0x000000000500018c        0x0 ../FPGAEncrypt_bsp/\libucosii_bsp.a(alt_irq_entry.o)
 *(.exceptions.notirq.user)
 *(.exceptions.notirq)
 .exceptions.notirq
                0x000000000500018c        0x8 ../FPGAEncrypt_bsp/\libucosii_bsp.a(alt_exception_entry.o)
 *(.exceptions.soft.user)
 *(.exceptions.soft)
 *(.exceptions.unknown.user)
 *(.exceptions.unknown)
 .exceptions.unknown
                0x0000000005000194       0x14 ../FPGAEncrypt_bsp/\libucosii_bsp.a(alt_exception_entry.o)
 *(.exceptions.exit.label)
 .exceptions.exit.label
                0x00000000050001a8        0x0 ../FPGAEncrypt_bsp/\libucosii_bsp.a(alt_irq_entry.o)
 .exceptions.exit.label
                0x00000000050001a8        0x0 ../FPGAEncrypt_bsp/\libucosii_bsp.a(alt_exception_entry.o)
 *(.exceptions.exit.user)
 *(.exceptions.exit)
 .exceptions.exit
                0x00000000050001a8       0x54 ../FPGAEncrypt_bsp/\libucosii_bsp.a(alt_exception_entry.o)
 *(.exceptions)
 .exceptions    0x00000000050001fc       0xd4 ../FPGAEncrypt_bsp/\libucosii_bsp.a(alt_irq_handler.o)
                0x00000000050001fc                alt_irq_handler
 .exceptions    0x00000000050002d0       0x74 ../FPGAEncrypt_bsp/\libucosii_bsp.a(alt_instruction_exception_entry.o)
                0x00000000050002d0                alt_instruction_exception_entry
                [!provide]                        PROVIDE (__ram_exceptions_end, ABSOLUTE (.))
                [!provide]                        PROVIDE (__flash_exceptions_start, LOADADDR (.exceptions))

.text           0x0000000005000344    0x4cf98
                [!provide]                        PROVIDE (stext, ABSOLUTE (.))
 *(.interp)
 *(.hash)
 *(.dynsym)
 *(.dynstr)
 *(.gnu.version)
 *(.gnu.version_d)
 *(.gnu.version_r)
 *(.rel.init)
 *(.rela.init)
 *(.rel.text .rel.text.* .rel.gnu.linkonce.t.*)
 *(.rela.text .rela.text.* .rela.gnu.linkonce.t.*)
 *(.rel.fini)
 *(.rela.fini)
 *(.rel.rodata .rel.rodata.* .rel.gnu.linkonce.r.*)
 *(.rela.rodata .rela.rodata.* .rela.gnu.linkonce.r.*)
 *(.rel.data .rel.data.* .rel.gnu.linkonce.d.*)
 *(.rela.data .rela.data.* .rela.gnu.linkonce.d.*)
 *(.rel.tdata .rel.tdata.* .rel.gnu.linkonce.td.*)
 *(.rela.tdata .rela.tdata.* .rela.gnu.linkonce.td.*)
 *(.rel.tbss .rel.tbss.* .rel.gnu.linkonce.tb.*)
 *(.rela.tbss .rela.tbss.* .rela.gnu.linkonce.tb.*)
 *(.rel.ctors)
 *(.rela.ctors)
 *(.rel.dtors)
 *(.rela.dtors)
 *(.rel.got)
 *(.rela.got)
 *(.rel.sdata .rel.sdata.* .rel.gnu.linkonce.s.*)
 *(.rela.sdata .rela.sdata.* .rela.gnu.linkonce.s.*)
 *(.rel.sbss .rel.sbss.* .rel.gnu.linkonce.sb.*)
 *(.rela.sbss .rela.sbss.* .rela.gnu.linkonce.sb.*)
 *(.rel.sdata2 .rel.sdata2.* .rel.gnu.linkonce.s2.*)
 *(.rela.sdata2 .rela.sdata2.* .rela.gnu.linkonce.s2.*)
 *(.rel.sbss2 .rel.sbss2.* .rel.gnu.linkonce.sb2.*)
 *(.rela.sbss2 .rela.sbss2.* .rela.gnu.linkonce.sb2.*)
 *(.rel.bss .rel.bss.* .rel.gnu.linkonce.b.*)
 *(.rela.bss .rela.bss.* .rela.gnu.linkonce.b.*)
 *(.rel.plt)
 *(.rela.plt)
 *(.rel.dyn)
 *(.init)
 *(.plt)
 *(.text .stub .text.* .gnu.linkonce.t.*)
 .text          0x0000000005000344       0x48 ../FPGAEncrypt_bsp//obj/HAL/src/crt0.o
                0x0000000005000344                _start
 .text          0x000000000500038c      0xa60 obj/default/alt_error_handler.o
                0x000000000500038c                alt_uCOSIIErrorHandler
                0x00000000050008f0                alt_NetworkErrorHandler
                0x0000000005000b54                alt_SSSErrorHandler
 .text          0x0000000005000dec      0x42c obj/default/iniche_init.o
                0x0000000005000dec                process_byte
                0x0000000005000e60                process_string
                0x0000000005000ee8                tcp_server
                0x000000000500118c                main
 .text          0x0000000005001218      0x354 obj/default/led.o
                0x0000000005001218                led_bit_toggle
                0x0000000005001324                LED7SegLightshowTask
                0x0000000005001398                LEDManagementTask
 .text          0x000000000500156c      0x450 obj/default/network_utilities.o
                0x000000000500156c                get_mac_addr
                0x00000000050015c0                get_ip_addr
                0x000000000500161c                get_serial_number
                0x00000000050017d8                generate_and_store_mac_addr
                0x000000000500182c                generate_mac_addr
                0x0000000005001964                get_board_mac_addr
                0x0000000005001990                FindLastFlashSectorOffset
 .text          0x00000000050019bc      0xa1c obj/default/simple_socket_server.o
                0x00000000050019bc                SSSCreateOSDataStructs
                0x0000000005001a60                SSSCreateTasks
                0x0000000005001b30                sss_reset_connection
                0x0000000005001ba0                sss_send_menu
                0x0000000005001dbc                sss_handle_accept
                0x0000000005001e84                sss_exec_command
                0x0000000005002034                sss_handle_receive
                0x0000000005002224                SSSSimpleSocketServerTask
 .text          0x00000000050023d8        0x0 obj/default/tse_my_system.o
 .text          0x00000000050023d8        0x0 c:/intelfpga_lite/18.1/nios2eds/bin/gnu/h-x86_64-mingw32/bin/../lib/gcc/nios2-elf/5.3.0/../../../../../H-x86_64-mingw32/nios2-elf/lib\libc.a(lib_a-ctype_.o)
 .text          0x00000000050023d8        0x0 c:/intelfpga_lite/18.1/nios2eds/bin/gnu/h-x86_64-mingw32/bin/../lib/gcc/nios2-elf/5.3.0/../../../../../H-x86_64-mingw32/nios2-elf/lib\libc.a(lib_a-fprintf.o)
 .text._fprintf_r
                0x00000000050023d8       0x28 c:/intelfpga_lite/18.1/nios2eds/bin/gnu/h-x86_64-mingw32/bin/../lib/gcc/nios2-elf/5.3.0/../../../../../H-x86_64-mingw32/nios2-elf/lib\libc.a(lib_a-fprintf.o)
                0x00000000050023d8                _fprintf_r
 .text.fprintf  0x0000000005002400       0x24 c:/intelfpga_lite/18.1/nios2eds/bin/gnu/h-x86_64-mingw32/bin/../lib/gcc/nios2-elf/5.3.0/../../../../../H-x86_64-mingw32/nios2-elf/lib\libc.a(lib_a-fprintf.o)
                0x0000000005002400                fprintf
 .text          0x0000000005002424        0x0 c:/intelfpga_lite/18.1/nios2eds/bin/gnu/h-x86_64-mingw32/bin/../lib/gcc/nios2-elf/5.3.0/../../../../../H-x86_64-mingw32/nios2-elf/lib\libc.a(lib_a-fwrite.o)
 .text._fwrite_r
                0x0000000005002424       0xcc c:/intelfpga_lite/18.1/nios2eds/bin/gnu/h-x86_64-mingw32/bin/../lib/gcc/nios2-elf/5.3.0/../../../../../H-x86_64-mingw32/nios2-elf/lib\libc.a(lib_a-fwrite.o)
                0x0000000005002424                _fwrite_r
 .text.fwrite   0x00000000050024f0       0x34 c:/intelfpga_lite/18.1/nios2eds/bin/gnu/h-x86_64-mingw32/bin/../lib/gcc/nios2-elf/5.3.0/../../../../../H-x86_64-mingw32/nios2-elf/lib\libc.a(lib_a-fwrite.o)
                0x00000000050024f0                fwrite
 .text          0x0000000005002524        0x0 c:/intelfpga_lite/18.1/nios2eds/bin/gnu/h-x86_64-mingw32/bin/../lib/gcc/nios2-elf/5.3.0/../../../../../H-x86_64-mingw32/nios2-elf/lib\libc.a(lib_a-getc.o)
 .text._getc_r  0x0000000005002524       0x70 c:/intelfpga_lite/18.1/nios2eds/bin/gnu/h-x86_64-mingw32/bin/../lib/gcc/nios2-elf/5.3.0/../../../../../H-x86_64-mingw32/nios2-elf/lib\libc.a(lib_a-getc.o)
                0x0000000005002524                _getc_r
 .text.getc     0x0000000005002594       0x88 c:/intelfpga_lite/18.1/nios2eds/bin/gnu/h-x86_64-mingw32/bin/../lib/gcc/nios2-elf/5.3.0/../../../../../H-x86_64-mingw32/nios2-elf/lib\libc.a(lib_a-getc.o)
                0x0000000005002594                getc
 .text          0x000000000500261c        0x0 c:/intelfpga_lite/18.1/nios2eds/bin/gnu/h-x86_64-mingw32/bin/../lib/gcc/nios2-elf/5.3.0/../../../../../H-x86_64-mingw32/nios2-elf/lib\libc.a(lib_a-impure.o)
 .text          0x000000000500261c        0x0 c:/intelfpga_lite/18.1/nios2eds/bin/gnu/h-x86_64-mingw32/bin/../lib/gcc/nios2-elf/5.3.0/../../../../../H-x86_64-mingw32/nios2-elf/lib\libc.a(lib_a-memcpy.o)
 .text.memcpy   0x000000000500261c      0x148 c:/intelfpga_lite/18.1/nios2eds/bin/gnu/h-x86_64-mingw32/bin/../lib/gcc/nios2-elf/5.3.0/../../../../../H-x86_64-mingw32/nios2-elf/lib\libc.a(lib_a-memcpy.o)
                0x000000000500261c                memcpy
 .text          0x0000000005002764        0x0 c:/intelfpga_lite/18.1/nios2eds/bin/gnu/h-x86_64-mingw32/bin/../lib/gcc/nios2-elf/5.3.0/../../../../../H-x86_64-mingw32/nios2-elf/lib\libc.a(lib_a-memmove.o)
 .text.memmove  0x0000000005002764      0x15c c:/intelfpga_lite/18.1/nios2eds/bin/gnu/h-x86_64-mingw32/bin/../lib/gcc/nios2-elf/5.3.0/../../../../../H-x86_64-mingw32/nios2-elf/lib\libc.a(lib_a-memmove.o)
                0x0000000005002764                memmove
 .text          0x00000000050028c0        0x0 c:/intelfpga_lite/18.1/nios2eds/bin/gnu/h-x86_64-mingw32/bin/../lib/gcc/nios2-elf/5.3.0/../../../../../H-x86_64-mingw32/nios2-elf/lib\libc.a(lib_a-memset.o)
 .text.memset   0x00000000050028c0      0x128 c:/intelfpga_lite/18.1/nios2eds/bin/gnu/h-x86_64-mingw32/bin/../lib/gcc/nios2-elf/5.3.0/../../../../../H-x86_64-mingw32/nios2-elf/lib\libc.a(lib_a-memset.o)
                0x00000000050028c0                memset
 .text          0x00000000050029e8        0x0 c:/intelfpga_lite/18.1/nios2eds/bin/gnu/h-x86_64-mingw32/bin/../lib/gcc/nios2-elf/5.3.0/../../../../../H-x86_64-mingw32/nios2-elf/lib\libc.a(lib_a-perror.o)
 .text._perror_r
                0x00000000050029e8       0x80 c:/intelfpga_lite/18.1/nios2eds/bin/gnu/h-x86_64-mingw32/bin/../lib/gcc/nios2-elf/5.3.0/../../../../../H-x86_64-mingw32/nios2-elf/lib\libc.a(lib_a-perror.o)
                0x00000000050029e8                _perror_r
 .text.perror   0x0000000005002a68       0x14 c:/intelfpga_lite/18.1/nios2eds/bin/gnu/h-x86_64-mingw32/bin/../lib/gcc/nios2-elf/5.3.0/../../../../../H-x86_64-mingw32/nios2-elf/lib\libc.a(lib_a-perror.o)
                0x0000000005002a68                perror
 .text          0x0000000005002a7c        0x0 c:/intelfpga_lite/18.1/nios2eds/bin/gnu/h-x86_64-mingw32/bin/../lib/gcc/nios2-elf/5.3.0/../../../../../H-x86_64-mingw32/nios2-elf/lib\libc.a(lib_a-printf.o)
 .text._printf_r
                0x0000000005002a7c       0x30 c:/intelfpga_lite/18.1/nios2eds/bin/gnu/h-x86_64-mingw32/bin/../lib/gcc/nios2-elf/5.3.0/../../../../../H-x86_64-mingw32/nios2-elf/lib\libc.a(lib_a-printf.o)
                0x0000000005002a7c                _printf_r
 .text.printf   0x0000000005002aac       0x3c c:/intelfpga_lite/18.1/nios2eds/bin/gnu/h-x86_64-mingw32/bin/../lib/gcc/nios2-elf/5.3.0/../../../../../H-x86_64-mingw32/nios2-elf/lib\libc.a(lib_a-printf.o)
                0x0000000005002aac                printf
 .text          0x0000000005002ae8        0x0 c:/intelfpga_lite/18.1/nios2eds/bin/gnu/h-x86_64-mingw32/bin/../lib/gcc/nios2-elf/5.3.0/../../../../../H-x86_64-mingw32/nios2-elf/lib\libc.a(lib_a-putc.o)
 .text._putc_r  0x0000000005002ae8       0xa0 c:/intelfpga_lite/18.1/nios2eds/bin/gnu/h-x86_64-mingw32/bin/../lib/gcc/nios2-elf/5.3.0/../../../../../H-x86_64-mingw32/nios2-elf/lib\libc.a(lib_a-putc.o)
                0x0000000005002ae8                _putc_r
 .text.putc     0x0000000005002b88       0xc8 c:/intelfpga_lite/18.1/nios2eds/bin/gnu/h-x86_64-mingw32/bin/../lib/gcc/nios2-elf/5.3.0/../../../../../H-x86_64-mingw32/nios2-elf/lib\libc.a(lib_a-putc.o)
                0x0000000005002b88                putc
 .text          0x0000000005002c50        0x0 c:/intelfpga_lite/18.1/nios2eds/bin/gnu/h-x86_64-mingw32/bin/../lib/gcc/nios2-elf/5.3.0/../../../../../H-x86_64-mingw32/nios2-elf/lib\libc.a(lib_a-putchar.o)
 .text._putchar_r
                0x0000000005002c50        0x8 c:/intelfpga_lite/18.1/nios2eds/bin/gnu/h-x86_64-mingw32/bin/../lib/gcc/nios2-elf/5.3.0/../../../../../H-x86_64-mingw32/nios2-elf/lib\libc.a(lib_a-putchar.o)
                0x0000000005002c50                _putchar_r
 .text.putchar  0x0000000005002c58       0x18 c:/intelfpga_lite/18.1/nios2eds/bin/gnu/h-x86_64-mingw32/bin/../lib/gcc/nios2-elf/5.3.0/../../../../../H-x86_64-mingw32/nios2-elf/lib\libc.a(lib_a-putchar.o)
                0x0000000005002c58                putchar
 .text          0x0000000005002c70        0x0 c:/intelfpga_lite/18.1/nios2eds/bin/gnu/h-x86_64-mingw32/bin/../lib/gcc/nios2-elf/5.3.0/../../../../../H-x86_64-mingw32/nios2-elf/lib\libc.a(lib_a-puts.o)
 .text._puts_r  0x0000000005002c70       0xc0 c:/intelfpga_lite/18.1/nios2eds/bin/gnu/h-x86_64-mingw32/bin/../lib/gcc/nios2-elf/5.3.0/../../../../../H-x86_64-mingw32/nios2-elf/lib\libc.a(lib_a-puts.o)
                0x0000000005002c70                _puts_r
 .text.puts     0x0000000005002d30       0x14 c:/intelfpga_lite/18.1/nios2eds/bin/gnu/h-x86_64-mingw32/bin/../lib/gcc/nios2-elf/5.3.0/../../../../../H-x86_64-mingw32/nios2-elf/lib\libc.a(lib_a-puts.o)
                0x0000000005002d30                puts
 .text          0x0000000005002d44        0x0 c:/intelfpga_lite/18.1/nios2eds/bin/gnu/h-x86_64-mingw32/bin/../lib/gcc/nios2-elf/5.3.0/../../../../../H-x86_64-mingw32/nios2-elf/lib\libc.a(lib_a-rget.o)
 .text.__srget_r
                0x0000000005002d44       0x74 c:/intelfpga_lite/18.1/nios2eds/bin/gnu/h-x86_64-mingw32/bin/../lib/gcc/nios2-elf/5.3.0/../../../../../H-x86_64-mingw32/nios2-elf/lib\libc.a(lib_a-rget.o)
                0x0000000005002d44                __srget_r
 .text.__srget  0x0000000005002db8       0x14 c:/intelfpga_lite/18.1/nios2eds/bin/gnu/h-x86_64-mingw32/bin/../lib/gcc/nios2-elf/5.3.0/../../../../../H-x86_64-mingw32/nios2-elf/lib\libc.a(lib_a-rget.o)
                0x0000000005002db8                __srget
 .text          0x0000000005002dcc        0x0 c:/intelfpga_lite/18.1/nios2eds/bin/gnu/h-x86_64-mingw32/bin/../lib/gcc/nios2-elf/5.3.0/../../../../../H-x86_64-mingw32/nios2-elf/lib\libc.a(lib_a-sprintf.o)
 .text._sprintf_r
                0x0000000005002dcc       0x58 c:/intelfpga_lite/18.1/nios2eds/bin/gnu/h-x86_64-mingw32/bin/../lib/gcc/nios2-elf/5.3.0/../../../../../H-x86_64-mingw32/nios2-elf/lib\libc.a(lib_a-sprintf.o)
                0x0000000005002dcc                _sprintf_r
 .text.sprintf  0x0000000005002e24       0x6c c:/intelfpga_lite/18.1/nios2eds/bin/gnu/h-x86_64-mingw32/bin/../lib/gcc/nios2-elf/5.3.0/../../../../../H-x86_64-mingw32/nios2-elf/lib\libc.a(lib_a-sprintf.o)
                0x0000000005002e24                sprintf
 .text          0x0000000005002e90        0x0 c:/intelfpga_lite/18.1/nios2eds/bin/gnu/h-x86_64-mingw32/bin/../lib/gcc/nios2-elf/5.3.0/../../../../../H-x86_64-mingw32/nios2-elf/lib\libc.a(lib_a-strchr.o)
 .text.strchr   0x0000000005002e90      0x164 c:/intelfpga_lite/18.1/nios2eds/bin/gnu/h-x86_64-mingw32/bin/../lib/gcc/nios2-elf/5.3.0/../../../../../H-x86_64-mingw32/nios2-elf/lib\libc.a(lib_a-strchr.o)
                0x0000000005002e90                strchr
 .text          0x0000000005002ff4        0x0 c:/intelfpga_lite/18.1/nios2eds/bin/gnu/h-x86_64-mingw32/bin/../lib/gcc/nios2-elf/5.3.0/../../../../../H-x86_64-mingw32/nios2-elf/lib\libc.a(lib_a-strerror.o)
 .text._strerror_r
                0x0000000005002ff4      0x65c c:/intelfpga_lite/18.1/nios2eds/bin/gnu/h-x86_64-mingw32/bin/../lib/gcc/nios2-elf/5.3.0/../../../../../H-x86_64-mingw32/nios2-elf/lib\libc.a(lib_a-strerror.o)
                0x0000000005002ff4                _strerror_r
 .text.strerror
                0x0000000005003650       0x1c c:/intelfpga_lite/18.1/nios2eds/bin/gnu/h-x86_64-mingw32/bin/../lib/gcc/nios2-elf/5.3.0/../../../../../H-x86_64-mingw32/nios2-elf/lib\libc.a(lib_a-strerror.o)
                0x0000000005003650                strerror
 .text          0x000000000500366c        0x0 c:/intelfpga_lite/18.1/nios2eds/bin/gnu/h-x86_64-mingw32/bin/../lib/gcc/nios2-elf/5.3.0/../../../../../H-x86_64-mingw32/nios2-elf/lib\libc.a(lib_a-strlen.o)
 .text.strlen   0x000000000500366c       0x98 c:/intelfpga_lite/18.1/nios2eds/bin/gnu/h-x86_64-mingw32/bin/../lib/gcc/nios2-elf/5.3.0/../../../../../H-x86_64-mingw32/nios2-elf/lib\libc.a(lib_a-strlen.o)
                0x000000000500366c                strlen
 .text          0x0000000005003704        0x0 c:/intelfpga_lite/18.1/nios2eds/bin/gnu/h-x86_64-mingw32/bin/../lib/gcc/nios2-elf/5.3.0/../../../../../H-x86_64-mingw32/nios2-elf/lib\libc.a(lib_a-strstr.o)
 .text.critical_factorization
                0x0000000005003704      0x104 c:/intelfpga_lite/18.1/nios2eds/bin/gnu/h-x86_64-mingw32/bin/../lib/gcc/nios2-elf/5.3.0/../../../../../H-x86_64-mingw32/nios2-elf/lib\libc.a(lib_a-strstr.o)
 .text.two_way_long_needle
                0x0000000005003808      0x3b0 c:/intelfpga_lite/18.1/nios2eds/bin/gnu/h-x86_64-mingw32/bin/../lib/gcc/nios2-elf/5.3.0/../../../../../H-x86_64-mingw32/nios2-elf/lib\libc.a(lib_a-strstr.o)
 .text.strstr   0x0000000005003bb8      0x3b0 c:/intelfpga_lite/18.1/nios2eds/bin/gnu/h-x86_64-mingw32/bin/../lib/gcc/nios2-elf/5.3.0/../../../../../H-x86_64-mingw32/nios2-elf/lib\libc.a(lib_a-strstr.o)
                0x0000000005003bb8                strstr
 .text          0x0000000005003f68        0x0 c:/intelfpga_lite/18.1/nios2eds/bin/gnu/h-x86_64-mingw32/bin/../lib/gcc/nios2-elf/5.3.0/../../../../../H-x86_64-mingw32/nios2-elf/lib\libc.a(lib_a-svfprintf.o)
 .text.___svfprintf_internal_r
                0x0000000005003f68     0x21d8 c:/intelfpga_lite/18.1/nios2eds/bin/gnu/h-x86_64-mingw32/bin/../lib/gcc/nios2-elf/5.3.0/../../../../../H-x86_64-mingw32/nios2-elf/lib\libc.a(lib_a-svfprintf.o)
                0x0000000005003f68                ___svfprintf_internal_r
 .text          0x0000000005006140        0x0 c:/intelfpga_lite/18.1/nios2eds/bin/gnu/h-x86_64-mingw32/bin/../lib/gcc/nios2-elf/5.3.0/../../../../../H-x86_64-mingw32/nios2-elf/lib\libc.a(lib_a-u_strerr.o)
 .text._user_strerror
                0x0000000005006140        0x8 c:/intelfpga_lite/18.1/nios2eds/bin/gnu/h-x86_64-mingw32/bin/../lib/gcc/nios2-elf/5.3.0/../../../../../H-x86_64-mingw32/nios2-elf/lib\libc.a(lib_a-u_strerr.o)
                0x0000000005006140                _user_strerror
 .text          0x0000000005006148        0x0 c:/intelfpga_lite/18.1/nios2eds/bin/gnu/h-x86_64-mingw32/bin/../lib/gcc/nios2-elf/5.3.0/../../../../../H-x86_64-mingw32/nios2-elf/lib\libc.a(lib_a-vfprintf.o)
 .text.___vfprintf_internal_r
                0x0000000005006148     0x21f8 c:/intelfpga_lite/18.1/nios2eds/bin/gnu/h-x86_64-mingw32/bin/../lib/gcc/nios2-elf/5.3.0/../../../../../H-x86_64-mingw32/nios2-elf/lib\libc.a(lib_a-vfprintf.o)
                0x0000000005006148                ___vfprintf_internal_r
 .text.__vfprintf_internal
                0x0000000005008340       0x1c c:/intelfpga_lite/18.1/nios2eds/bin/gnu/h-x86_64-mingw32/bin/../lib/gcc/nios2-elf/5.3.0/../../../../../H-x86_64-mingw32/nios2-elf/lib\libc.a(lib_a-vfprintf.o)
                0x0000000005008340                __vfprintf_internal
 .text.__sbprintf
                0x000000000500835c       0xbc c:/intelfpga_lite/18.1/nios2eds/bin/gnu/h-x86_64-mingw32/bin/../lib/gcc/nios2-elf/5.3.0/../../../../../H-x86_64-mingw32/nios2-elf/lib\libc.a(lib_a-vfprintf.o)
 .text          0x0000000005008418        0x0 c:/intelfpga_lite/18.1/nios2eds/bin/gnu/h-x86_64-mingw32/bin/../lib/gcc/nios2-elf/5.3.0/../../../../../H-x86_64-mingw32/nios2-elf/lib\libc.a(lib_a-wbuf.o)
 .text.__swbuf_r
                0x0000000005008418      0x140 c:/intelfpga_lite/18.1/nios2eds/bin/gnu/h-x86_64-mingw32/bin/../lib/gcc/nios2-elf/5.3.0/../../../../../H-x86_64-mingw32/nios2-elf/lib\libc.a(lib_a-wbuf.o)
                0x0000000005008418                __swbuf_r
 .text.__swbuf  0x0000000005008558       0x18 c:/intelfpga_lite/18.1/nios2eds/bin/gnu/h-x86_64-mingw32/bin/../lib/gcc/nios2-elf/5.3.0/../../../../../H-x86_64-mingw32/nios2-elf/lib\libc.a(lib_a-wbuf.o)
                0x0000000005008558                __swbuf
 .text          0x0000000005008570        0x0 c:/intelfpga_lite/18.1/nios2eds/bin/gnu/h-x86_64-mingw32/bin/../lib/gcc/nios2-elf/5.3.0/../../../../../H-x86_64-mingw32/nios2-elf/lib\libc.a(lib_a-wsetup.o)
 .text.__swsetup_r
                0x0000000005008570      0x154 c:/intelfpga_lite/18.1/nios2eds/bin/gnu/h-x86_64-mingw32/bin/../lib/gcc/nios2-elf/5.3.0/../../../../../H-x86_64-mingw32/nios2-elf/lib\libc.a(lib_a-wsetup.o)
                0x0000000005008570                __swsetup_r
 .text          0x00000000050086c4        0x0 c:/intelfpga_lite/18.1/nios2eds/bin/gnu/h-x86_64-mingw32/bin/../lib/gcc/nios2-elf/5.3.0/../../../../../H-x86_64-mingw32/nios2-elf/lib\libc.a(lib_a-dtoa.o)
 .text.quorem   0x00000000050086c4      0x200 c:/intelfpga_lite/18.1/nios2eds/bin/gnu/h-x86_64-mingw32/bin/../lib/gcc/nios2-elf/5.3.0/../../../../../H-x86_64-mingw32/nios2-elf/lib\libc.a(lib_a-dtoa.o)
 .text._dtoa_r  0x00000000050088c4     0x1688 c:/intelfpga_lite/18.1/nios2eds/bin/gnu/h-x86_64-mingw32/bin/../lib/gcc/nios2-elf/5.3.0/../../../../../H-x86_64-mingw32/nios2-elf/lib\libc.a(lib_a-dtoa.o)
                0x00000000050088c4                _dtoa_r
 .text          0x0000000005009f4c        0x0 c:/intelfpga_lite/18.1/nios2eds/bin/gnu/h-x86_64-mingw32/bin/../lib/gcc/nios2-elf/5.3.0/../../../../../H-x86_64-mingw32/nios2-elf/lib\libc.a(lib_a-fflush.o)
 .text.__sflush_r
                0x0000000005009f4c      0x21c c:/intelfpga_lite/18.1/nios2eds/bin/gnu/h-x86_64-mingw32/bin/../lib/gcc/nios2-elf/5.3.0/../../../../../H-x86_64-mingw32/nios2-elf/lib\libc.a(lib_a-fflush.o)
                0x0000000005009f4c                __sflush_r
 .text._fflush_r
                0x000000000500a168       0x5c c:/intelfpga_lite/18.1/nios2eds/bin/gnu/h-x86_64-mingw32/bin/../lib/gcc/nios2-elf/5.3.0/../../../../../H-x86_64-mingw32/nios2-elf/lib\libc.a(lib_a-fflush.o)
                0x000000000500a168                _fflush_r
 .text.fflush   0x000000000500a1c4       0x30 c:/intelfpga_lite/18.1/nios2eds/bin/gnu/h-x86_64-mingw32/bin/../lib/gcc/nios2-elf/5.3.0/../../../../../H-x86_64-mingw32/nios2-elf/lib\libc.a(lib_a-fflush.o)
                0x000000000500a1c4                fflush
 .text          0x000000000500a1f4        0x0 c:/intelfpga_lite/18.1/nios2eds/bin/gnu/h-x86_64-mingw32/bin/../lib/gcc/nios2-elf/5.3.0/../../../../../H-x86_64-mingw32/nios2-elf/lib\libc.a(lib_a-findfp.o)
 .text.__fp_unlock
                0x000000000500a1f4        0x8 c:/intelfpga_lite/18.1/nios2eds/bin/gnu/h-x86_64-mingw32/bin/../lib/gcc/nios2-elf/5.3.0/../../../../../H-x86_64-mingw32/nios2-elf/lib\libc.a(lib_a-findfp.o)
 .text._cleanup_r
                0x000000000500a1fc        0xc c:/intelfpga_lite/18.1/nios2eds/bin/gnu/h-x86_64-mingw32/bin/../lib/gcc/nios2-elf/5.3.0/../../../../../H-x86_64-mingw32/nios2-elf/lib\libc.a(lib_a-findfp.o)
                0x000000000500a1fc                _cleanup_r
 .text.__sinit.part.1
                0x000000000500a208      0x19c c:/intelfpga_lite/18.1/nios2eds/bin/gnu/h-x86_64-mingw32/bin/../lib/gcc/nios2-elf/5.3.0/../../../../../H-x86_64-mingw32/nios2-elf/lib\libc.a(lib_a-findfp.o)
 .text.__fp_lock
                0x000000000500a3a4        0x8 c:/intelfpga_lite/18.1/nios2eds/bin/gnu/h-x86_64-mingw32/bin/../lib/gcc/nios2-elf/5.3.0/../../../../../H-x86_64-mingw32/nios2-elf/lib\libc.a(lib_a-findfp.o)
 .text.__sfmoreglue
                0x000000000500a3ac       0x68 c:/intelfpga_lite/18.1/nios2eds/bin/gnu/h-x86_64-mingw32/bin/../lib/gcc/nios2-elf/5.3.0/../../../../../H-x86_64-mingw32/nios2-elf/lib\libc.a(lib_a-findfp.o)
                0x000000000500a3ac                __sfmoreglue
 .text.__sfp    0x000000000500a414      0x118 c:/intelfpga_lite/18.1/nios2eds/bin/gnu/h-x86_64-mingw32/bin/../lib/gcc/nios2-elf/5.3.0/../../../../../H-x86_64-mingw32/nios2-elf/lib\libc.a(lib_a-findfp.o)
                0x000000000500a414                __sfp
 .text._cleanup
                0x000000000500a52c       0x18 c:/intelfpga_lite/18.1/nios2eds/bin/gnu/h-x86_64-mingw32/bin/../lib/gcc/nios2-elf/5.3.0/../../../../../H-x86_64-mingw32/nios2-elf/lib\libc.a(lib_a-findfp.o)
                0x000000000500a52c                _cleanup
 .text.__sinit  0x000000000500a544       0x10 c:/intelfpga_lite/18.1/nios2eds/bin/gnu/h-x86_64-mingw32/bin/../lib/gcc/nios2-elf/5.3.0/../../../../../H-x86_64-mingw32/nios2-elf/lib\libc.a(lib_a-findfp.o)
                0x000000000500a544                __sinit
 .text.__sfp_lock_acquire
                0x000000000500a554        0x4 c:/intelfpga_lite/18.1/nios2eds/bin/gnu/h-x86_64-mingw32/bin/../lib/gcc/nios2-elf/5.3.0/../../../../../H-x86_64-mingw32/nios2-elf/lib\libc.a(lib_a-findfp.o)
                0x000000000500a554                __sfp_lock_acquire
 .text.__sfp_lock_release
                0x000000000500a558        0x4 c:/intelfpga_lite/18.1/nios2eds/bin/gnu/h-x86_64-mingw32/bin/../lib/gcc/nios2-elf/5.3.0/../../../../../H-x86_64-mingw32/nios2-elf/lib\libc.a(lib_a-findfp.o)
                0x000000000500a558                __sfp_lock_release
 .text.__sinit_lock_acquire
                0x000000000500a55c        0x4 c:/intelfpga_lite/18.1/nios2eds/bin/gnu/h-x86_64-mingw32/bin/../lib/gcc/nios2-elf/5.3.0/../../../../../H-x86_64-mingw32/nios2-elf/lib\libc.a(lib_a-findfp.o)
                0x000000000500a55c                __sinit_lock_acquire
 .text.__sinit_lock_release
                0x000000000500a560        0x4 c:/intelfpga_lite/18.1/nios2eds/bin/gnu/h-x86_64-mingw32/bin/../lib/gcc/nios2-elf/5.3.0/../../../../../H-x86_64-mingw32/nios2-elf/lib\libc.a(lib_a-findfp.o)
                0x000000000500a560                __sinit_lock_release
 .text.__fp_lock_all
                0x000000000500a564       0x18 c:/intelfpga_lite/18.1/nios2eds/bin/gnu/h-x86_64-mingw32/bin/../lib/gcc/nios2-elf/5.3.0/../../../../../H-x86_64-mingw32/nios2-elf/lib\libc.a(lib_a-findfp.o)
                0x000000000500a564                __fp_lock_all
 .text.__fp_unlock_all
                0x000000000500a57c       0x18 c:/intelfpga_lite/18.1/nios2eds/bin/gnu/h-x86_64-mingw32/bin/../lib/gcc/nios2-elf/5.3.0/../../../../../H-x86_64-mingw32/nios2-elf/lib\libc.a(lib_a-findfp.o)
                0x000000000500a57c                __fp_unlock_all
 .text          0x000000000500a594        0x0 c:/intelfpga_lite/18.1/nios2eds/bin/gnu/h-x86_64-mingw32/bin/../lib/gcc/nios2-elf/5.3.0/../../../../../H-x86_64-mingw32/nios2-elf/lib\libc.a(lib_a-fputc.o)
 .text._fputc_r
                0x000000000500a594       0x44 c:/intelfpga_lite/18.1/nios2eds/bin/gnu/h-x86_64-mingw32/bin/../lib/gcc/nios2-elf/5.3.0/../../../../../H-x86_64-mingw32/nios2-elf/lib\libc.a(lib_a-fputc.o)
                0x000000000500a594                _fputc_r
 .text.fputc    0x000000000500a5d8       0x5c c:/intelfpga_lite/18.1/nios2eds/bin/gnu/h-x86_64-mingw32/bin/../lib/gcc/nios2-elf/5.3.0/../../../../../H-x86_64-mingw32/nios2-elf/lib\libc.a(lib_a-fputc.o)
                0x000000000500a5d8                fputc
 .text          0x000000000500a634        0x0 c:/intelfpga_lite/18.1/nios2eds/bin/gnu/h-x86_64-mingw32/bin/../lib/gcc/nios2-elf/5.3.0/../../../../../H-x86_64-mingw32/nios2-elf/lib\libc.a(lib_a-fputs.o)
 .text._fputs_r
                0x000000000500a634       0x9c c:/intelfpga_lite/18.1/nios2eds/bin/gnu/h-x86_64-mingw32/bin/../lib/gcc/nios2-elf/5.3.0/../../../../../H-x86_64-mingw32/nios2-elf/lib\libc.a(lib_a-fputs.o)
                0x000000000500a634                _fputs_r
 .text.fputs    0x000000000500a6d0       0x18 c:/intelfpga_lite/18.1/nios2eds/bin/gnu/h-x86_64-mingw32/bin/../lib/gcc/nios2-elf/5.3.0/../../../../../H-x86_64-mingw32/nios2-elf/lib\libc.a(lib_a-fputs.o)
                0x000000000500a6d0                fputs
 .text          0x000000000500a6e8        0x0 c:/intelfpga_lite/18.1/nios2eds/bin/gnu/h-x86_64-mingw32/bin/../lib/gcc/nios2-elf/5.3.0/../../../../../H-x86_64-mingw32/nios2-elf/lib\libc.a(lib_a-freer.o)
 .text._malloc_trim_r
                0x000000000500a6e8      0x124 c:/intelfpga_lite/18.1/nios2eds/bin/gnu/h-x86_64-mingw32/bin/../lib/gcc/nios2-elf/5.3.0/../../../../../H-x86_64-mingw32/nios2-elf/lib\libc.a(lib_a-freer.o)
                0x000000000500a6e8                _malloc_trim_r
 .text._free_r  0x000000000500a80c      0x310 c:/intelfpga_lite/18.1/nios2eds/bin/gnu/h-x86_64-mingw32/bin/../lib/gcc/nios2-elf/5.3.0/../../../../../H-x86_64-mingw32/nios2-elf/lib\libc.a(lib_a-freer.o)
                0x000000000500a80c                _free_r
 .text          0x000000000500ab1c        0x0 c:/intelfpga_lite/18.1/nios2eds/bin/gnu/h-x86_64-mingw32/bin/../lib/gcc/nios2-elf/5.3.0/../../../../../H-x86_64-mingw32/nios2-elf/lib\libc.a(lib_a-fvwrite.o)
 .text.__sfvwrite_r
                0x000000000500ab1c      0x4bc c:/intelfpga_lite/18.1/nios2eds/bin/gnu/h-x86_64-mingw32/bin/../lib/gcc/nios2-elf/5.3.0/../../../../../H-x86_64-mingw32/nios2-elf/lib\libc.a(lib_a-fvwrite.o)
                0x000000000500ab1c                __sfvwrite_r
 .text          0x000000000500afd8        0x0 c:/intelfpga_lite/18.1/nios2eds/bin/gnu/h-x86_64-mingw32/bin/../lib/gcc/nios2-elf/5.3.0/../../../../../H-x86_64-mingw32/nios2-elf/lib\libc.a(lib_a-fwalk.o)
 .text._fwalk   0x000000000500afd8       0xc4 c:/intelfpga_lite/18.1/nios2eds/bin/gnu/h-x86_64-mingw32/bin/../lib/gcc/nios2-elf/5.3.0/../../../../../H-x86_64-mingw32/nios2-elf/lib\libc.a(lib_a-fwalk.o)
                0x000000000500afd8                _fwalk
 .text._fwalk_reent
                0x000000000500b09c       0xc4 c:/intelfpga_lite/18.1/nios2eds/bin/gnu/h-x86_64-mingw32/bin/../lib/gcc/nios2-elf/5.3.0/../../../../../H-x86_64-mingw32/nios2-elf/lib\libc.a(lib_a-fwalk.o)
                0x000000000500b09c                _fwalk_reent
 .text          0x000000000500b160        0x0 c:/intelfpga_lite/18.1/nios2eds/bin/gnu/h-x86_64-mingw32/bin/../lib/gcc/nios2-elf/5.3.0/../../../../../H-x86_64-mingw32/nios2-elf/lib\libc.a(lib_a-locale.o)
 .text._setlocale_r
                0x000000000500b160       0x7c c:/intelfpga_lite/18.1/nios2eds/bin/gnu/h-x86_64-mingw32/bin/../lib/gcc/nios2-elf/5.3.0/../../../../../H-x86_64-mingw32/nios2-elf/lib\libc.a(lib_a-locale.o)
                0x000000000500b160                _setlocale_r
 .text.__locale_charset
                0x000000000500b1dc        0xc c:/intelfpga_lite/18.1/nios2eds/bin/gnu/h-x86_64-mingw32/bin/../lib/gcc/nios2-elf/5.3.0/../../../../../H-x86_64-mingw32/nios2-elf/lib\libc.a(lib_a-locale.o)
                0x000000000500b1dc                __locale_charset
 .text.__locale_mb_cur_max
                0x000000000500b1e8       0x10 c:/intelfpga_lite/18.1/nios2eds/bin/gnu/h-x86_64-mingw32/bin/../lib/gcc/nios2-elf/5.3.0/../../../../../H-x86_64-mingw32/nios2-elf/lib\libc.a(lib_a-locale.o)
                0x000000000500b1e8                __locale_mb_cur_max
 .text.__locale_msgcharset
                0x000000000500b1f8        0xc c:/intelfpga_lite/18.1/nios2eds/bin/gnu/h-x86_64-mingw32/bin/../lib/gcc/nios2-elf/5.3.0/../../../../../H-x86_64-mingw32/nios2-elf/lib\libc.a(lib_a-locale.o)
                0x000000000500b1f8                __locale_msgcharset
 .text.__locale_cjk_lang
                0x000000000500b204        0x8 c:/intelfpga_lite/18.1/nios2eds/bin/gnu/h-x86_64-mingw32/bin/../lib/gcc/nios2-elf/5.3.0/../../../../../H-x86_64-mingw32/nios2-elf/lib\libc.a(lib_a-locale.o)
                0x000000000500b204                __locale_cjk_lang
 .text._localeconv_r
                0x000000000500b20c        0xc c:/intelfpga_lite/18.1/nios2eds/bin/gnu/h-x86_64-mingw32/bin/../lib/gcc/nios2-elf/5.3.0/../../../../../H-x86_64-mingw32/nios2-elf/lib\libc.a(lib_a-locale.o)
                0x000000000500b20c                _localeconv_r
 .text.setlocale
                0x000000000500b218       0x18 c:/intelfpga_lite/18.1/nios2eds/bin/gnu/h-x86_64-mingw32/bin/../lib/gcc/nios2-elf/5.3.0/../../../../../H-x86_64-mingw32/nios2-elf/lib\libc.a(lib_a-locale.o)
                0x000000000500b218                setlocale
 .text.localeconv
                0x000000000500b230        0xc c:/intelfpga_lite/18.1/nios2eds/bin/gnu/h-x86_64-mingw32/bin/../lib/gcc/nios2-elf/5.3.0/../../../../../H-x86_64-mingw32/nios2-elf/lib\libc.a(lib_a-locale.o)
                0x000000000500b230                localeconv
 .text          0x000000000500b23c        0x0 c:/intelfpga_lite/18.1/nios2eds/bin/gnu/h-x86_64-mingw32/bin/../lib/gcc/nios2-elf/5.3.0/../../../../../H-x86_64-mingw32/nios2-elf/lib\libc.a(lib_a-makebuf.o)
 .text.__smakebuf_r
                0x000000000500b23c      0x1bc c:/intelfpga_lite/18.1/nios2eds/bin/gnu/h-x86_64-mingw32/bin/../lib/gcc/nios2-elf/5.3.0/../../../../../H-x86_64-mingw32/nios2-elf/lib\libc.a(lib_a-makebuf.o)
                0x000000000500b23c                __smakebuf_r
 .text          0x000000000500b3f8        0x0 c:/intelfpga_lite/18.1/nios2eds/bin/gnu/h-x86_64-mingw32/bin/../lib/gcc/nios2-elf/5.3.0/../../../../../H-x86_64-mingw32/nios2-elf/lib\libc.a(lib_a-mallocr.o)
 .text._malloc_r
                0x000000000500b3f8      0x80c c:/intelfpga_lite/18.1/nios2eds/bin/gnu/h-x86_64-mingw32/bin/../lib/gcc/nios2-elf/5.3.0/../../../../../H-x86_64-mingw32/nios2-elf/lib\libc.a(lib_a-mallocr.o)
                0x000000000500b3f8                _malloc_r
 .text          0x000000000500bc04        0x0 c:/intelfpga_lite/18.1/nios2eds/bin/gnu/h-x86_64-mingw32/bin/../lib/gcc/nios2-elf/5.3.0/../../../../../H-x86_64-mingw32/nios2-elf/lib\libc.a(lib_a-memchr.o)
 .text.memchr   0x000000000500bc04       0xe4 c:/intelfpga_lite/18.1/nios2eds/bin/gnu/h-x86_64-mingw32/bin/../lib/gcc/nios2-elf/5.3.0/../../../../../H-x86_64-mingw32/nios2-elf/lib\libc.a(lib_a-memchr.o)
                0x000000000500bc04                memchr
 .text          0x000000000500bce8        0x0 c:/intelfpga_lite/18.1/nios2eds/bin/gnu/h-x86_64-mingw32/bin/../lib/gcc/nios2-elf/5.3.0/../../../../../H-x86_64-mingw32/nios2-elf/lib\libc.a(lib_a-memcmp.o)
 .text.memcmp   0x000000000500bce8       0x7c c:/intelfpga_lite/18.1/nios2eds/bin/gnu/h-x86_64-mingw32/bin/../lib/gcc/nios2-elf/5.3.0/../../../../../H-x86_64-mingw32/nios2-elf/lib\libc.a(lib_a-memcmp.o)
                0x000000000500bce8                memcmp
 .text          0x000000000500bd64        0x0 c:/intelfpga_lite/18.1/nios2eds/bin/gnu/h-x86_64-mingw32/bin/../lib/gcc/nios2-elf/5.3.0/../../../../../H-x86_64-mingw32/nios2-elf/lib\libc.a(lib_a-mprec.o)
 .text._Balloc  0x000000000500bd64       0xa8 c:/intelfpga_lite/18.1/nios2eds/bin/gnu/h-x86_64-mingw32/bin/../lib/gcc/nios2-elf/5.3.0/../../../../../H-x86_64-mingw32/nios2-elf/lib\libc.a(lib_a-mprec.o)
                0x000000000500bd64                _Balloc
 .text._Bfree   0x000000000500be0c       0x28 c:/intelfpga_lite/18.1/nios2eds/bin/gnu/h-x86_64-mingw32/bin/../lib/gcc/nios2-elf/5.3.0/../../../../../H-x86_64-mingw32/nios2-elf/lib\libc.a(lib_a-mprec.o)
                0x000000000500be0c                _Bfree
 .text.__multadd
                0x000000000500be34      0x120 c:/intelfpga_lite/18.1/nios2eds/bin/gnu/h-x86_64-mingw32/bin/../lib/gcc/nios2-elf/5.3.0/../../../../../H-x86_64-mingw32/nios2-elf/lib\libc.a(lib_a-mprec.o)
                0x000000000500be34                __multadd
 .text.__s2b    0x000000000500bf54      0x104 c:/intelfpga_lite/18.1/nios2eds/bin/gnu/h-x86_64-mingw32/bin/../lib/gcc/nios2-elf/5.3.0/../../../../../H-x86_64-mingw32/nios2-elf/lib\libc.a(lib_a-mprec.o)
                0x000000000500bf54                __s2b
 .text.__hi0bits
                0x000000000500c058       0x68 c:/intelfpga_lite/18.1/nios2eds/bin/gnu/h-x86_64-mingw32/bin/../lib/gcc/nios2-elf/5.3.0/../../../../../H-x86_64-mingw32/nios2-elf/lib\libc.a(lib_a-mprec.o)
                0x000000000500c058                __hi0bits
 .text.__lo0bits
                0x000000000500c0c0       0xb0 c:/intelfpga_lite/18.1/nios2eds/bin/gnu/h-x86_64-mingw32/bin/../lib/gcc/nios2-elf/5.3.0/../../../../../H-x86_64-mingw32/nios2-elf/lib\libc.a(lib_a-mprec.o)
                0x000000000500c0c0                __lo0bits
 .text.__i2b    0x000000000500c170       0x3c c:/intelfpga_lite/18.1/nios2eds/bin/gnu/h-x86_64-mingw32/bin/../lib/gcc/nios2-elf/5.3.0/../../../../../H-x86_64-mingw32/nios2-elf/lib\libc.a(lib_a-mprec.o)
                0x000000000500c170                __i2b
 .text.__multiply
                0x000000000500c1ac      0x1f8 c:/intelfpga_lite/18.1/nios2eds/bin/gnu/h-x86_64-mingw32/bin/../lib/gcc/nios2-elf/5.3.0/../../../../../H-x86_64-mingw32/nios2-elf/lib\libc.a(lib_a-mprec.o)
                0x000000000500c1ac                __multiply
 .text.__pow5mult
                0x000000000500c3a4      0x140 c:/intelfpga_lite/18.1/nios2eds/bin/gnu/h-x86_64-mingw32/bin/../lib/gcc/nios2-elf/5.3.0/../../../../../H-x86_64-mingw32/nios2-elf/lib\libc.a(lib_a-mprec.o)
                0x000000000500c3a4                __pow5mult
 .text.__lshift
                0x000000000500c4e4      0x148 c:/intelfpga_lite/18.1/nios2eds/bin/gnu/h-x86_64-mingw32/bin/../lib/gcc/nios2-elf/5.3.0/../../../../../H-x86_64-mingw32/nios2-elf/lib\libc.a(lib_a-mprec.o)
                0x000000000500c4e4                __lshift
 .text.__mcmp   0x000000000500c62c       0x60 c:/intelfpga_lite/18.1/nios2eds/bin/gnu/h-x86_64-mingw32/bin/../lib/gcc/nios2-elf/5.3.0/../../../../../H-x86_64-mingw32/nios2-elf/lib\libc.a(lib_a-mprec.o)
                0x000000000500c62c                __mcmp
 .text.__mdiff  0x000000000500c68c      0x1fc c:/intelfpga_lite/18.1/nios2eds/bin/gnu/h-x86_64-mingw32/bin/../lib/gcc/nios2-elf/5.3.0/../../../../../H-x86_64-mingw32/nios2-elf/lib\libc.a(lib_a-mprec.o)
                0x000000000500c68c                __mdiff
 .text.__ulp    0x000000000500c888       0x64 c:/intelfpga_lite/18.1/nios2eds/bin/gnu/h-x86_64-mingw32/bin/../lib/gcc/nios2-elf/5.3.0/../../../../../H-x86_64-mingw32/nios2-elf/lib\libc.a(lib_a-mprec.o)
                0x000000000500c888                __ulp
 .text.__b2d    0x000000000500c8ec      0x10c c:/intelfpga_lite/18.1/nios2eds/bin/gnu/h-x86_64-mingw32/bin/../lib/gcc/nios2-elf/5.3.0/../../../../../H-x86_64-mingw32/nios2-elf/lib\libc.a(lib_a-mprec.o)
                0x000000000500c8ec                __b2d
 .text.__d2b    0x000000000500c9f8      0x14c c:/intelfpga_lite/18.1/nios2eds/bin/gnu/h-x86_64-mingw32/bin/../lib/gcc/nios2-elf/5.3.0/../../../../../H-x86_64-mingw32/nios2-elf/lib\libc.a(lib_a-mprec.o)
                0x000000000500c9f8                __d2b
 .text.__ratio  0x000000000500cb44       0xa4 c:/intelfpga_lite/18.1/nios2eds/bin/gnu/h-x86_64-mingw32/bin/../lib/gcc/nios2-elf/5.3.0/../../../../../H-x86_64-mingw32/nios2-elf/lib\libc.a(lib_a-mprec.o)
                0x000000000500cb44                __ratio
 .text._mprec_log10
                0x000000000500cbe8       0x74 c:/intelfpga_lite/18.1/nios2eds/bin/gnu/h-x86_64-mingw32/bin/../lib/gcc/nios2-elf/5.3.0/../../../../../H-x86_64-mingw32/nios2-elf/lib\libc.a(lib_a-mprec.o)
                0x000000000500cbe8                _mprec_log10
 .text.__copybits
                0x000000000500cc5c       0x78 c:/intelfpga_lite/18.1/nios2eds/bin/gnu/h-x86_64-mingw32/bin/../lib/gcc/nios2-elf/5.3.0/../../../../../H-x86_64-mingw32/nios2-elf/lib\libc.a(lib_a-mprec.o)
                0x000000000500cc5c                __copybits
 .text.__any_on
                0x000000000500ccd4       0x8c c:/intelfpga_lite/18.1/nios2eds/bin/gnu/h-x86_64-mingw32/bin/../lib/gcc/nios2-elf/5.3.0/../../../../../H-x86_64-mingw32/nios2-elf/lib\libc.a(lib_a-mprec.o)
                0x000000000500ccd4                __any_on
 .text          0x000000000500cd60        0x0 c:/intelfpga_lite/18.1/nios2eds/bin/gnu/h-x86_64-mingw32/bin/../lib/gcc/nios2-elf/5.3.0/../../../../../H-x86_64-mingw32/nios2-elf/lib\libc.a(lib_a-reallocr.o)
 .text._realloc_r
                0x000000000500cd60      0x564 c:/intelfpga_lite/18.1/nios2eds/bin/gnu/h-x86_64-mingw32/bin/../lib/gcc/nios2-elf/5.3.0/../../../../../H-x86_64-mingw32/nios2-elf/lib\libc.a(lib_a-reallocr.o)
                0x000000000500cd60                _realloc_r
 .text          0x000000000500d2c4        0x0 c:/intelfpga_lite/18.1/nios2eds/bin/gnu/h-x86_64-mingw32/bin/../lib/gcc/nios2-elf/5.3.0/../../../../../H-x86_64-mingw32/nios2-elf/lib\libc.a(lib_a-refill.o)
 .text.lflush   0x000000000500d2c4       0x1c c:/intelfpga_lite/18.1/nios2eds/bin/gnu/h-x86_64-mingw32/bin/../lib/gcc/nios2-elf/5.3.0/../../../../../H-x86_64-mingw32/nios2-elf/lib\libc.a(lib_a-refill.o)
 .text.__srefill_r
                0x000000000500d2e0      0x1d4 c:/intelfpga_lite/18.1/nios2eds/bin/gnu/h-x86_64-mingw32/bin/../lib/gcc/nios2-elf/5.3.0/../../../../../H-x86_64-mingw32/nios2-elf/lib\libc.a(lib_a-refill.o)
                0x000000000500d2e0                __srefill_r
 .text          0x000000000500d4b4        0x0 c:/intelfpga_lite/18.1/nios2eds/bin/gnu/h-x86_64-mingw32/bin/../lib/gcc/nios2-elf/5.3.0/../../../../../H-x86_64-mingw32/nios2-elf/lib\libc.a(lib_a-s_fpclassify.o)
 .text.__fpclassifyd
                0x000000000500d4b4       0x74 c:/intelfpga_lite/18.1/nios2eds/bin/gnu/h-x86_64-mingw32/bin/../lib/gcc/nios2-elf/5.3.0/../../../../../H-x86_64-mingw32/nios2-elf/lib\libc.a(lib_a-s_fpclassify.o)
                0x000000000500d4b4                __fpclassifyd
 .text          0x000000000500d528        0x0 c:/intelfpga_lite/18.1/nios2eds/bin/gnu/h-x86_64-mingw32/bin/../lib/gcc/nios2-elf/5.3.0/../../../../../H-x86_64-mingw32/nios2-elf/lib\libc.a(lib_a-sbrkr.o)
 .text._sbrk_r  0x000000000500d528       0x54 c:/intelfpga_lite/18.1/nios2eds/bin/gnu/h-x86_64-mingw32/bin/../lib/gcc/nios2-elf/5.3.0/../../../../../H-x86_64-mingw32/nios2-elf/lib\libc.a(lib_a-sbrkr.o)
                0x000000000500d528                _sbrk_r
 .text          0x000000000500d57c        0x0 c:/intelfpga_lite/18.1/nios2eds/bin/gnu/h-x86_64-mingw32/bin/../lib/gcc/nios2-elf/5.3.0/../../../../../H-x86_64-mingw32/nios2-elf/lib\libc.a(lib_a-stdio.o)
 .text.__sread  0x000000000500d57c       0x54 c:/intelfpga_lite/18.1/nios2eds/bin/gnu/h-x86_64-mingw32/bin/../lib/gcc/nios2-elf/5.3.0/../../../../../H-x86_64-mingw32/nios2-elf/lib\libc.a(lib_a-stdio.o)
                0x000000000500d57c                __sread
 .text.__seofread
                0x000000000500d5d0        0x8 c:/intelfpga_lite/18.1/nios2eds/bin/gnu/h-x86_64-mingw32/bin/../lib/gcc/nios2-elf/5.3.0/../../../../../H-x86_64-mingw32/nios2-elf/lib\libc.a(lib_a-stdio.o)
                0x000000000500d5d0                __seofread
 .text.__swrite
                0x000000000500d5d8       0x7c c:/intelfpga_lite/18.1/nios2eds/bin/gnu/h-x86_64-mingw32/bin/../lib/gcc/nios2-elf/5.3.0/../../../../../H-x86_64-mingw32/nios2-elf/lib\libc.a(lib_a-stdio.o)
                0x000000000500d5d8                __swrite
 .text.__sseek  0x000000000500d654       0x5c c:/intelfpga_lite/18.1/nios2eds/bin/gnu/h-x86_64-mingw32/bin/../lib/gcc/nios2-elf/5.3.0/../../../../../H-x86_64-mingw32/nios2-elf/lib\libc.a(lib_a-stdio.o)
                0x000000000500d654                __sseek
 .text.__sclose
                0x000000000500d6b0        0x8 c:/intelfpga_lite/18.1/nios2eds/bin/gnu/h-x86_64-mingw32/bin/../lib/gcc/nios2-elf/5.3.0/../../../../../H-x86_64-mingw32/nios2-elf/lib\libc.a(lib_a-stdio.o)
                0x000000000500d6b0                __sclose
 .text          0x000000000500d6b8        0x0 c:/intelfpga_lite/18.1/nios2eds/bin/gnu/h-x86_64-mingw32/bin/../lib/gcc/nios2-elf/5.3.0/../../../../../H-x86_64-mingw32/nios2-elf/lib\libc.a(lib_a-strcmp.o)
 .text.strcmp   0x000000000500d6b8       0xdc c:/intelfpga_lite/18.1/nios2eds/bin/gnu/h-x86_64-mingw32/bin/../lib/gcc/nios2-elf/5.3.0/../../../../../H-x86_64-mingw32/nios2-elf/lib\libc.a(lib_a-strcmp.o)
                0x000000000500d6b8                strcmp
 .text          0x000000000500d794        0x0 c:/intelfpga_lite/18.1/nios2eds/bin/gnu/h-x86_64-mingw32/bin/../lib/gcc/nios2-elf/5.3.0/../../../../../H-x86_64-mingw32/nios2-elf/lib\libc.a(lib_a-svfiprintf.o)
 .text.__ssprint_r
                0x000000000500d794      0x1d0 c:/intelfpga_lite/18.1/nios2eds/bin/gnu/h-x86_64-mingw32/bin/../lib/gcc/nios2-elf/5.3.0/../../../../../H-x86_64-mingw32/nios2-elf/lib\libc.a(lib_a-svfiprintf.o)
                0x000000000500d794                __ssprint_r
 .text.___svfiprintf_internal_r
                0x000000000500d964     0x123c c:/intelfpga_lite/18.1/nios2eds/bin/gnu/h-x86_64-mingw32/bin/../lib/gcc/nios2-elf/5.3.0/../../../../../H-x86_64-mingw32/nios2-elf/lib\libc.a(lib_a-svfiprintf.o)
                0x000000000500d964                ___svfiprintf_internal_r
 .text          0x000000000500eba0        0x0 c:/intelfpga_lite/18.1/nios2eds/bin/gnu/h-x86_64-mingw32/bin/../lib/gcc/nios2-elf/5.3.0/../../../../../H-x86_64-mingw32/nios2-elf/lib\libc.a(lib_a-vfiprintf.o)
 .text.__sprint_r.part.0
                0x000000000500eba0       0xfc c:/intelfpga_lite/18.1/nios2eds/bin/gnu/h-x86_64-mingw32/bin/../lib/gcc/nios2-elf/5.3.0/../../../../../H-x86_64-mingw32/nios2-elf/lib\libc.a(lib_a-vfiprintf.o)
 .text.__sprint_r
                0x000000000500ec9c       0x18 c:/intelfpga_lite/18.1/nios2eds/bin/gnu/h-x86_64-mingw32/bin/../lib/gcc/nios2-elf/5.3.0/../../../../../H-x86_64-mingw32/nios2-elf/lib\libc.a(lib_a-vfiprintf.o)
                0x000000000500ec9c                __sprint_r
 .text.___vfiprintf_internal_r
                0x000000000500ecb4     0x145c c:/intelfpga_lite/18.1/nios2eds/bin/gnu/h-x86_64-mingw32/bin/../lib/gcc/nios2-elf/5.3.0/../../../../../H-x86_64-mingw32/nios2-elf/lib\libc.a(lib_a-vfiprintf.o)
                0x000000000500ecb4                ___vfiprintf_internal_r
 .text.__vfiprintf_internal
                0x0000000005010110       0x1c c:/intelfpga_lite/18.1/nios2eds/bin/gnu/h-x86_64-mingw32/bin/../lib/gcc/nios2-elf/5.3.0/../../../../../H-x86_64-mingw32/nios2-elf/lib\libc.a(lib_a-vfiprintf.o)
                0x0000000005010110                __vfiprintf_internal
 .text.__sbprintf
                0x000000000501012c       0xbc c:/intelfpga_lite/18.1/nios2eds/bin/gnu/h-x86_64-mingw32/bin/../lib/gcc/nios2-elf/5.3.0/../../../../../H-x86_64-mingw32/nios2-elf/lib\libc.a(lib_a-vfiprintf.o)
 .text          0x00000000050101e8        0x0 c:/intelfpga_lite/18.1/nios2eds/bin/gnu/h-x86_64-mingw32/bin/../lib/gcc/nios2-elf/5.3.0/../../../../../H-x86_64-mingw32/nios2-elf/lib\libc.a(lib_a-writer.o)
 .text._write_r
                0x00000000050101e8       0x60 c:/intelfpga_lite/18.1/nios2eds/bin/gnu/h-x86_64-mingw32/bin/../lib/gcc/nios2-elf/5.3.0/../../../../../H-x86_64-mingw32/nios2-elf/lib\libc.a(lib_a-writer.o)
                0x00000000050101e8                _write_r
 .text          0x0000000005010248        0x0 c:/intelfpga_lite/18.1/nios2eds/bin/gnu/h-x86_64-mingw32/bin/../lib/gcc/nios2-elf/5.3.0/../../../../../H-x86_64-mingw32/nios2-elf/lib\libc.a(closer.o)
 .text._close_r
                0x0000000005010248       0x54 c:/intelfpga_lite/18.1/nios2eds/bin/gnu/h-x86_64-mingw32/bin/../lib/gcc/nios2-elf/5.3.0/../../../../../H-x86_64-mingw32/nios2-elf/lib\libc.a(closer.o)
                0x0000000005010248                _close_r
 .text          0x000000000501029c        0x0 c:/intelfpga_lite/18.1/nios2eds/bin/gnu/h-x86_64-mingw32/bin/../lib/gcc/nios2-elf/5.3.0/../../../../../H-x86_64-mingw32/nios2-elf/lib\libc.a(lib_a-callocr.o)
 .text._calloc_r
                0x000000000501029c       0xc4 c:/intelfpga_lite/18.1/nios2eds/bin/gnu/h-x86_64-mingw32/bin/../lib/gcc/nios2-elf/5.3.0/../../../../../H-x86_64-mingw32/nios2-elf/lib\libc.a(lib_a-callocr.o)
                0x000000000501029c                _calloc_r
 .text          0x0000000005010360        0x0 c:/intelfpga_lite/18.1/nios2eds/bin/gnu/h-x86_64-mingw32/bin/../lib/gcc/nios2-elf/5.3.0/../../../../../H-x86_64-mingw32/nios2-elf/lib\libc.a(lib_a-fclose.o)
 .text._fclose_r
                0x0000000005010360       0xf0 c:/intelfpga_lite/18.1/nios2eds/bin/gnu/h-x86_64-mingw32/bin/../lib/gcc/nios2-elf/5.3.0/../../../../../H-x86_64-mingw32/nios2-elf/lib\libc.a(lib_a-fclose.o)
                0x0000000005010360                _fclose_r
 .text.fclose   0x0000000005010450       0x14 c:/intelfpga_lite/18.1/nios2eds/bin/gnu/h-x86_64-mingw32/bin/../lib/gcc/nios2-elf/5.3.0/../../../../../H-x86_64-mingw32/nios2-elf/lib\libc.a(lib_a-fclose.o)
                0x0000000005010450                fclose
 .text          0x0000000005010464        0x0 c:/intelfpga_lite/18.1/nios2eds/bin/gnu/h-x86_64-mingw32/bin/../lib/gcc/nios2-elf/5.3.0/../../../../../H-x86_64-mingw32/nios2-elf/lib\libc.a(lib_a-fputwc.o)
 .text.__fputwc
                0x0000000005010464      0x164 c:/intelfpga_lite/18.1/nios2eds/bin/gnu/h-x86_64-mingw32/bin/../lib/gcc/nios2-elf/5.3.0/../../../../../H-x86_64-mingw32/nios2-elf/lib\libc.a(lib_a-fputwc.o)
                0x0000000005010464                __fputwc
 .text._fputwc_r
                0x00000000050105c8       0x24 c:/intelfpga_lite/18.1/nios2eds/bin/gnu/h-x86_64-mingw32/bin/../lib/gcc/nios2-elf/5.3.0/../../../../../H-x86_64-mingw32/nios2-elf/lib\libc.a(lib_a-fputwc.o)
                0x00000000050105c8                _fputwc_r
 .text.fputwc   0x00000000050105ec       0x80 c:/intelfpga_lite/18.1/nios2eds/bin/gnu/h-x86_64-mingw32/bin/../lib/gcc/nios2-elf/5.3.0/../../../../../H-x86_64-mingw32/nios2-elf/lib\libc.a(lib_a-fputwc.o)
                0x00000000050105ec                fputwc
 .text          0x000000000501066c        0x0 c:/intelfpga_lite/18.1/nios2eds/bin/gnu/h-x86_64-mingw32/bin/../lib/gcc/nios2-elf/5.3.0/../../../../../H-x86_64-mingw32/nios2-elf/lib\libc.a(lib_a-fstatr.o)
 .text._fstat_r
                0x000000000501066c       0x5c c:/intelfpga_lite/18.1/nios2eds/bin/gnu/h-x86_64-mingw32/bin/../lib/gcc/nios2-elf/5.3.0/../../../../../H-x86_64-mingw32/nios2-elf/lib\libc.a(lib_a-fstatr.o)
                0x000000000501066c                _fstat_r
 .text          0x00000000050106c8        0x0 c:/intelfpga_lite/18.1/nios2eds/bin/gnu/h-x86_64-mingw32/bin/../lib/gcc/nios2-elf/5.3.0/../../../../../H-x86_64-mingw32/nios2-elf/lib\libc.a(lib_a-int_errno.o)
 .text          0x00000000050106c8        0x0 c:/intelfpga_lite/18.1/nios2eds/bin/gnu/h-x86_64-mingw32/bin/../lib/gcc/nios2-elf/5.3.0/../../../../../H-x86_64-mingw32/nios2-elf/lib\libc.a(lib_a-isattyr.o)
 .text._isatty_r
                0x00000000050106c8       0x54 c:/intelfpga_lite/18.1/nios2eds/bin/gnu/h-x86_64-mingw32/bin/../lib/gcc/nios2-elf/5.3.0/../../../../../H-x86_64-mingw32/nios2-elf/lib\libc.a(lib_a-isattyr.o)
                0x00000000050106c8                _isatty_r
 .text          0x000000000501071c        0x0 c:/intelfpga_lite/18.1/nios2eds/bin/gnu/h-x86_64-mingw32/bin/../lib/gcc/nios2-elf/5.3.0/../../../../../H-x86_64-mingw32/nios2-elf/lib\libc.a(lib_a-lseekr.o)
 .text._lseek_r
                0x000000000501071c       0x60 c:/intelfpga_lite/18.1/nios2eds/bin/gnu/h-x86_64-mingw32/bin/../lib/gcc/nios2-elf/5.3.0/../../../../../H-x86_64-mingw32/nios2-elf/lib\libc.a(lib_a-lseekr.o)
                0x000000000501071c                _lseek_r
 .text          0x000000000501077c        0x0 c:/intelfpga_lite/18.1/nios2eds/bin/gnu/h-x86_64-mingw32/bin/../lib/gcc/nios2-elf/5.3.0/../../../../../H-x86_64-mingw32/nios2-elf/lib\libc.a(lib_a-readr.o)
 .text._read_r  0x000000000501077c       0x60 c:/intelfpga_lite/18.1/nios2eds/bin/gnu/h-x86_64-mingw32/bin/../lib/gcc/nios2-elf/5.3.0/../../../../../H-x86_64-mingw32/nios2-elf/lib\libc.a(lib_a-readr.o)
                0x000000000501077c                _read_r
 .text          0x00000000050107dc        0x0 c:/intelfpga_lite/18.1/nios2eds/bin/gnu/h-x86_64-mingw32/bin/../lib/gcc/nios2-elf/5.3.0/../../../../../H-x86_64-mingw32/nios2-elf/lib\libc.a(lib_a-wcrtomb.o)
 .text._wcrtomb_r
                0x00000000050107dc       0x9c c:/intelfpga_lite/18.1/nios2eds/bin/gnu/h-x86_64-mingw32/bin/../lib/gcc/nios2-elf/5.3.0/../../../../../H-x86_64-mingw32/nios2-elf/lib\libc.a(lib_a-wcrtomb.o)
                0x00000000050107dc                _wcrtomb_r
 .text.wcrtomb  0x0000000005010878       0xc0 c:/intelfpga_lite/18.1/nios2eds/bin/gnu/h-x86_64-mingw32/bin/../lib/gcc/nios2-elf/5.3.0/../../../../../H-x86_64-mingw32/nios2-elf/lib\libc.a(lib_a-wcrtomb.o)
                0x0000000005010878                wcrtomb
 .text          0x0000000005010938        0x0 c:/intelfpga_lite/18.1/nios2eds/bin/gnu/h-x86_64-mingw32/bin/../lib/gcc/nios2-elf/5.3.0/../../../../../H-x86_64-mingw32/nios2-elf/lib\libc.a(lib_a-wctomb_r.o)
 .text.__ascii_wctomb
                0x0000000005010938       0x30 c:/intelfpga_lite/18.1/nios2eds/bin/gnu/h-x86_64-mingw32/bin/../lib/gcc/nios2-elf/5.3.0/../../../../../H-x86_64-mingw32/nios2-elf/lib\libc.a(lib_a-wctomb_r.o)
                0x0000000005010938                __ascii_wctomb
 .text._wctomb_r
                0x0000000005010968       0x5c c:/intelfpga_lite/18.1/nios2eds/bin/gnu/h-x86_64-mingw32/bin/../lib/gcc/nios2-elf/5.3.0/../../../../../H-x86_64-mingw32/nios2-elf/lib\libc.a(lib_a-wctomb_r.o)
                0x0000000005010968                _wctomb_r
 .text          0x00000000050109c4      0x578 c:/intelfpga_lite/18.1/nios2eds/bin/gnu/h-x86_64-mingw32/bin/../lib/gcc/nios2-elf/5.3.0\libgcc.a(_udivdi3.o)
                0x00000000050109c4                __udivdi3
 .text          0x0000000005010f3c      0x538 c:/intelfpga_lite/18.1/nios2eds/bin/gnu/h-x86_64-mingw32/bin/../lib/gcc/nios2-elf/5.3.0\libgcc.a(_umoddi3.o)
                0x0000000005010f3c                __umoddi3
 .text          0x0000000005011474      0x1b4 c:/intelfpga_lite/18.1/nios2eds/bin/gnu/h-x86_64-mingw32/bin/../lib/gcc/nios2-elf/5.3.0\libgcc.a(lib2-divmod.o)
                0x0000000005011474                __divsi3
                0x00000000050114f8                __modsi3
                0x000000000501156c                __udivsi3
                0x00000000050115d0                __umodsi3
 .text          0x0000000005011628      0x8ac c:/intelfpga_lite/18.1/nios2eds/bin/gnu/h-x86_64-mingw32/bin/../lib/gcc/nios2-elf/5.3.0\libgcc.a(adddf3.o)
                0x0000000005011628                __adddf3
 .text          0x0000000005011ed4      0x8e8 c:/intelfpga_lite/18.1/nios2eds/bin/gnu/h-x86_64-mingw32/bin/../lib/gcc/nios2-elf/5.3.0\libgcc.a(divdf3.o)
                0x0000000005011ed4                __divdf3
 .text          0x00000000050127bc       0x88 c:/intelfpga_lite/18.1/nios2eds/bin/gnu/h-x86_64-mingw32/bin/../lib/gcc/nios2-elf/5.3.0\libgcc.a(eqdf2.o)
                0x00000000050127bc                __nedf2
                0x00000000050127bc                __eqdf2
 .text          0x0000000005012844       0xdc c:/intelfpga_lite/18.1/nios2eds/bin/gnu/h-x86_64-mingw32/bin/../lib/gcc/nios2-elf/5.3.0\libgcc.a(gedf2.o)
                0x0000000005012844                __gedf2
                0x0000000005012844                __gtdf2
 .text          0x0000000005012920       0xf4 c:/intelfpga_lite/18.1/nios2eds/bin/gnu/h-x86_64-mingw32/bin/../lib/gcc/nios2-elf/5.3.0\libgcc.a(ledf2.o)
                0x0000000005012920                __ledf2
                0x0000000005012920                __ltdf2
 .text          0x0000000005012a14      0x718 c:/intelfpga_lite/18.1/nios2eds/bin/gnu/h-x86_64-mingw32/bin/../lib/gcc/nios2-elf/5.3.0\libgcc.a(muldf3.o)
                0x0000000005012a14                __muldf3
 .text          0x000000000501312c      0x8fc c:/intelfpga_lite/18.1/nios2eds/bin/gnu/h-x86_64-mingw32/bin/../lib/gcc/nios2-elf/5.3.0\libgcc.a(subdf3.o)
                0x000000000501312c                __subdf3
 .text          0x0000000005013a28       0x80 c:/intelfpga_lite/18.1/nios2eds/bin/gnu/h-x86_64-mingw32/bin/../lib/gcc/nios2-elf/5.3.0\libgcc.a(fixdfsi.o)
                0x0000000005013a28                __fixdfsi
 .text          0x0000000005013aa8       0xdc c:/intelfpga_lite/18.1/nios2eds/bin/gnu/h-x86_64-mingw32/bin/../lib/gcc/nios2-elf/5.3.0\libgcc.a(floatsidf.o)
                0x0000000005013aa8                __floatsidf
 .text          0x0000000005013b84       0xa8 c:/intelfpga_lite/18.1/nios2eds/bin/gnu/h-x86_64-mingw32/bin/../lib/gcc/nios2-elf/5.3.0\libgcc.a(floatunsidf.o)
                0x0000000005013b84                __floatunsidf
 .text          0x0000000005013c2c        0x0 c:/intelfpga_lite/18.1/nios2eds/bin/gnu/h-x86_64-mingw32/bin/../lib/gcc/nios2-elf/5.3.0\libgcc.a(_clz.o)
 .text          0x0000000005013c2c       0x64 c:/intelfpga_lite/18.1/nios2eds/bin/gnu/h-x86_64-mingw32/bin/../lib/gcc/nios2-elf/5.3.0\libgcc.a(_clzsi2.o)
                0x0000000005013c2c                __clzsi2
 .text          0x0000000005013c90       0xec ../FPGAEncrypt_bsp/\libucosii_bsp.a(alt_fstat.o)
                0x0000000005013ccc                fstat
 .text          0x0000000005013d7c       0xe0 ../FPGAEncrypt_bsp/\libucosii_bsp.a(alt_isatty.o)
                0x0000000005013db8                isatty
 .text          0x0000000005013e5c      0x110 ../FPGAEncrypt_bsp/\libucosii_bsp.a(alt_lseek.o)
                0x0000000005013e98                lseek
 .text          0x0000000005013f6c       0xbc ../FPGAEncrypt_bsp/\libucosii_bsp.a(alt_main.o)
                0x0000000005013f6c                alt_main
 .text          0x0000000005014028       0xb0 ../FPGAEncrypt_bsp/\libucosii_bsp.a(alt_sbrk.o)
                0x0000000005014028                sbrk
 .text          0x00000000050140d8      0x124 ../FPGAEncrypt_bsp/\libucosii_bsp.a(alt_env_lock.o)
                0x00000000050140d8                __env_lock
                0x000000000501419c                __env_unlock
 .text          0x00000000050141fc      0x1ec ../FPGAEncrypt_bsp/\libucosii_bsp.a(alt_malloc_lock.o)
                0x00000000050141fc                __malloc_lock
                0x000000000501431c                __malloc_unlock
 .text          0x00000000050143e8     0x2014 ../FPGAEncrypt_bsp/\libucosii_bsp.a(os_core.o)
                0x00000000050143e8                OSEventNameGet
                0x0000000005014508                OSEventNameSet
                0x0000000005014648                OSEventPendMulti
                0x0000000005014c58                OSInit
                0x0000000005014cb0                OSIntEnter
                0x0000000005014cfc                OSIntExit
                0x0000000005014df4                OSSchedLock
                0x0000000005014e80                OSSchedUnlock
                0x0000000005014f5c                OSStart
                0x0000000005014fcc                OSStatInit
                0x000000000501507c                OSTimeTick
                0x000000000501529c                OSVersion
                0x00000000050152bc                OS_Dummy
                0x00000000050152dc                OS_EventTaskRdy
                0x0000000005015474                OS_EventTaskWait
                0x0000000005015584                OS_EventTaskWaitMulti
                0x00000000050156d4                OS_EventTaskRemove
                0x000000000501578c                OS_EventTaskRemoveMulti
                0x000000000501588c                OS_EventWaitListInit
                0x0000000005015c6c                OS_MemClr
                0x0000000005015cc0                OS_MemCopy
                0x0000000005015d28                OS_Sched
                0x0000000005015e6c                OS_StrCopy
                0x0000000005015ee0                OS_StrLen
                0x0000000005015f34                OS_TaskIdle
                0x0000000005015f90                OS_TaskStat
                0x000000000501605c                OS_TaskStatStkChk
                0x0000000005016128                OS_TCBInit
 .text          0x00000000050163fc      0x190 ../FPGAEncrypt_bsp/\libucosii_bsp.a(os_dbg.o)
                0x00000000050163fc                OSDebugInit
 .text          0x000000000501658c     0x1714 ../FPGAEncrypt_bsp/\libucosii_bsp.a(os_flag.o)
                0x000000000501658c                OSFlagAccept
                0x0000000005016894                OSFlagCreate
                0x000000000501699c                OSFlagDel
                0x0000000005016be4                OSFlagNameGet
                0x0000000005016d0c                OSFlagNameSet
                0x0000000005016e58                OSFlagPend
                0x0000000005017410                OSFlagPendGetFlagsRdy
                0x0000000005017470                OSFlagPost
                0x0000000005017804                OSFlagQuery
                0x0000000005017a28                OS_FlagInit
                0x0000000005017bfc                OS_FlagUnlink
 .text          0x0000000005017ca0      0x754 ../FPGAEncrypt_bsp/\libucosii_bsp.a(os_mem.o)
                0x0000000005017ca0                OSMemCreate
                0x0000000005017e74                OSMemGet
                0x0000000005017f64                OSMemNameGet
                0x0000000005018054                OSMemNameSet
                0x0000000005018168                OSMemPut
                0x0000000005018240                OSMemQuery
                0x0000000005018328                OS_MemInit
 .text          0x00000000050183f4     0x1104 ../FPGAEncrypt_bsp/\libucosii_bsp.a(os_q.o)
                0x00000000050183f4                OSQAccept
                0x0000000005018534                OSQCreate
                0x00000000050186e0                OSQDel
                0x0000000005018960                OSQFlush
                0x0000000005018a18                OSQPend
                0x0000000005018ca4                OSQPendAbort
                0x0000000005018e10                OSQPost
                0x0000000005018f78                OSQPostFront
                0x00000000050190e8                OSQPostOpt
                0x00000000050192f4                OSQQuery
                0x0000000005019450                OS_QInit
 .text          0x00000000050194f8      0xa60 ../FPGAEncrypt_bsp/\libucosii_bsp.a(os_sem.o)
                0x00000000050194f8                OSSemAccept
                0x00000000050195a8                OSSemCreate
                0x0000000005019680                OSSemDel
                0x00000000050198c0                OSSemPend
                0x0000000005019acc                OSSemPendAbort
                0x0000000005019c38                OSSemPost
                0x0000000005019d48                OSSemQuery
                0x0000000005019e58                OSSemSet
 .text          0x0000000005019f58     0x176c ../FPGAEncrypt_bsp/\libucosii_bsp.a(os_task.o)
                0x0000000005019f58                OSTaskChangePrio
                0x000000000501a448                OSTaskCreate
                0x000000000501a5f4                OSTaskCreateExt
                0x000000000501a7d8                OSTaskDel
                0x000000000501ab1c                OSTaskDelReq
                0x000000000501ac6c                OSTaskNameGet
                0x000000000501ae04                OSTaskNameSet
                0x000000000501afb8                OSTaskResume
                0x000000000501b18c                OSTaskStkChk
                0x000000000501b34c                OSTaskSuspend
                0x000000000501b530                OSTaskQuery
                0x000000000501b654                OS_TaskStkClr
 .text          0x000000000501b6c4      0x4ec ../FPGAEncrypt_bsp/\libucosii_bsp.a(os_time.o)
                0x000000000501b6c4                OSTimeDly
                0x000000000501b7c8                OSTimeDlyHMSM
                0x000000000501b920                OSTimeDlyResume
                0x000000000501baf4                OSTimeGet
                0x000000000501bb50                OSTimeSet
 .text          0x000000000501bbb0      0x2d8 ../FPGAEncrypt_bsp/\libucosii_bsp.a(alt_sys_init.o)
                0x000000000501bbe4                alt_irq_init
                0x000000000501bc1c                alt_sys_init
 .text          0x000000000501be88      0x164 ../FPGAEncrypt_bsp/\libucosii_bsp.a(altera_avalon_jtag_uart_fd.o)
                0x000000000501be88                altera_avalon_jtag_uart_read_fd
                0x000000000501bee8                altera_avalon_jtag_uart_write_fd
                0x000000000501bf48                altera_avalon_jtag_uart_close_fd
                0x000000000501bf98                altera_avalon_jtag_uart_ioctl_fd
 .text          0x000000000501bfec      0x558 ../FPGAEncrypt_bsp/\libucosii_bsp.a(altera_avalon_jtag_uart_init.o)
                0x000000000501bfec                altera_avalon_jtag_uart_init
                0x000000000501c4dc                altera_avalon_jtag_uart_close
 .text          0x000000000501c544       0xf0 ../FPGAEncrypt_bsp/\libucosii_bsp.a(altera_avalon_jtag_uart_ioctl.o)
                0x000000000501c544                altera_avalon_jtag_uart_ioctl
 .text          0x000000000501c634      0x2bc ../FPGAEncrypt_bsp/\libucosii_bsp.a(altera_avalon_jtag_uart_read.o)
                0x000000000501c634                altera_avalon_jtag_uart_read
 .text          0x000000000501c8f0      0x2c4 ../FPGAEncrypt_bsp/\libucosii_bsp.a(altera_avalon_jtag_uart_write.o)
                0x000000000501c8f0                altera_avalon_jtag_uart_write
 .text          0x000000000501cbb4       0xf4 ../FPGAEncrypt_bsp/\libucosii_bsp.a(altera_avalon_timer_sc.o)
                0x000000000501cc2c                alt_avalon_timer_sc_init
 .text          0x000000000501cca8      0xb64 ../FPGAEncrypt_bsp/\libucosii_bsp.a(altera_epcq_controller2.o)
                0x000000000501ccdc                alt_epcq_controller2_lock
                0x000000000501cdd8                alt_epcq_controller2_get_info
                0x000000000501ce64                alt_epcq_controller2_erase_block
                0x000000000501cfc0                alt_epcq_controller2_write_block
                0x000000000501d204                alt_epcq_controller2_write
                0x000000000501d3ec                alt_epcq_controller2_read
                0x000000000501d498                altera_epcq_controller2_init
 .text          0x000000000501d80c     0x2120 ../FPGAEncrypt_bsp/\libucosii_bsp.a(altera_msgdma.o)
                0x000000000501e4a4                alt_msgdma_construct_standard_st_to_mm_descriptor
                0x000000000501e4fc                alt_msgdma_construct_standard_mm_to_st_descriptor
                0x000000000501e554                alt_msgdma_construct_standard_mm_to_mm_descriptor
                0x000000000501e5ac                alt_msgdma_construct_extended_st_to_mm_descriptor
                0x000000000501e63c                alt_msgdma_construct_extended_mm_to_st_descriptor
                0x000000000501e6cc                alt_msgdma_construct_extended_mm_to_mm_descriptor
                0x000000000501e9ac                alt_msgdma_construct_prefetcher_standard_mm_to_mm_descriptor
                0x000000000501ea04                alt_msgdma_construct_prefetcher_standard_st_to_mm_descriptor
                0x000000000501ea5c                alt_msgdma_construct_prefetcher_standard_mm_to_st_descriptor
                0x000000000501eab4                alt_msgdma_construct_prefetcher_extended_st_to_mm_descriptor
                0x000000000501eb54                alt_msgdma_construct_prefetcher_extended_mm_to_st_descriptor
                0x000000000501ebec                alt_msgdma_construct_prefetcher_extended_mm_to_mm_descriptor
                0x000000000501eca4                alt_msgdma_prefetcher_add_standard_desc_to_list
                0x000000000501ed94                alt_msgdma_prefetcher_add_extended_desc_to_list
                0x000000000501ef2c                alt_msgdma_prefetcher_set_std_list_own_by_hw_bits
                0x000000000501f038                alt_msgdma_prefetcher_set_extd_list_own_by_hw_bits
                0x000000000501f17c                alt_msgdma_start_prefetcher_with_list_addr
                0x000000000501f48c                alt_msgdma_start_prefetcher_with_std_desc_list
                0x000000000501f538                alt_msgdma_start_prefetcher_with_extd_desc_list
                0x000000000501f5e4                alt_msgdma_open
                0x000000000501f63c                alt_msgdma_init
                0x000000000501f7e8                alt_msgdma_register_callback
                0x000000000501f83c                alt_msgdma_standard_descriptor_async_transfer
                0x000000000501f878                alt_msgdma_extended_descriptor_async_transfer
                0x000000000501f8b4                alt_msgdma_standard_descriptor_sync_transfer
                0x000000000501f8f0                alt_msgdma_extended_descriptor_sync_transfer
 .text          0x000000000501f92c      0x158 ../FPGAEncrypt_bsp/\libucosii_bsp.a(altera_remote_update.o)
                0x000000000501f92c                altera_remote_update_init
                0x000000000501f964                altera_remote_update_open
                0x000000000501f9b0                altera_remote_update_trigger_reconfig
 .text          0x000000000501fa84     0x1bf0 ../FPGAEncrypt_bsp/\libucosii_bsp.a(ins_tse_mac.o)
                0x000000000501fa84                altera_eth_tse_init
                0x000000000501fbd4                prep_tse_mac
                0x000000000501fe2c                msgdma_reset
                0x000000000501fea8                tse_mac_init
                0x0000000005020ac0                tse_msgdma_write_init
                0x0000000005020be0                tse_mac_raw_send
                0x0000000005020da8                tse_msgdmaRx_isr
                0x0000000005020f5c                tse_msgdmaTx_isr
                0x0000000005020fbc                tse_msgdma_read_init
                0x0000000005021298                allocate_rx_descriptor_chain
                0x00000000050213dc                tse_mac_rcv
                0x0000000005021530                tse_mac_stats
                0x0000000005021570                tse_mac_close
 .text          0x0000000005021674       0x48 ../FPGAEncrypt_bsp/\libucosii_bsp.a(alt_iniche_close.o)
                0x0000000005021674                close
 .text          0x00000000050216bc      0x148 ../FPGAEncrypt_bsp/\libucosii_bsp.a(alt_iniche_dev.o)
                0x00000000050216bc                iniche_devices_init
 .text          0x0000000005021804       0x70 ../FPGAEncrypt_bsp/\libucosii_bsp.a(alt_iniche_read.o)
                0x0000000005021804                read
 .text          0x0000000005021874       0x68 ../FPGAEncrypt_bsp/\libucosii_bsp.a(alt_iniche_write.o)
                0x0000000005021874                write
 .text          0x00000000050218dc      0xde4 ../FPGAEncrypt_bsp/\libucosii_bsp.a(ipnet.o)
                0x00000000050218dc                Netinit
                0x0000000005021ec4                fixup_subnet_mask
                0x000000000502201c                netclose
                0x0000000005022100                pktdemux
                0x00000000050224a4                c_older
                0x0000000005022534                ip2mac
 .text          0x00000000050226c0      0x468 ../FPGAEncrypt_bsp/\libucosii_bsp.a(ipstart.o)
                0x00000000050226c0                ip_startup
                0x0000000005022964                exit_hook
                0x00000000050229d4                ip_exit
                0x0000000005022aa4                if_netnumber
 .text          0x0000000005022b28      0xf9c ../FPGAEncrypt_bsp/\libucosii_bsp.a(igmp_cmn.o)
                0x0000000005022b28                igmp_init
                0x0000000005022bcc                igmp_input
                0x0000000005022cac                igmp_fasttimo
                0x0000000005022e20                igmp_send
                0x00000000050230bc                igmp_joingroup
                0x0000000005023310                igmp_leavegroup
                0x0000000005023390                igmp_validate
                0x00000000050236a8                igmp_print_stats
 .text          0x0000000005023ac4      0xa88 ../FPGAEncrypt_bsp/\libucosii_bsp.a(bsdsock.o)
                0x0000000005023ac4                bsd_accept
                0x0000000005023be8                bsd_getpeername
                0x0000000005023d0c                bsd_getsockname
                0x0000000005023e30                bsd_i_sockoptlen
                0x0000000005023f6c                bsd_getsockopt
                0x0000000005024078                bsd_ioctl
                0x000000000502416c                bsd_inet_ntoa
                0x00000000050241a0                bsd_recvfrom
                0x00000000050242e8                bsd_select
                0x000000000502446c                bsd_setsockopt
 .text          0x000000000502454c       0xf8 ../FPGAEncrypt_bsp/\libucosii_bsp.a(cksum.o)
                0x000000000502454c                ccksum
                0x00000000050245f0                cksum
 .text          0x0000000005024644      0xa50 ../FPGAEncrypt_bsp/\libucosii_bsp.a(in_utils.o)
                0x0000000005024644                do_trap
                0x0000000005024670                nextarg
                0x00000000050246ec                hexdump
                0x0000000005024830                print_ipad
                0x00000000050248ac                print_uptime
                0x00000000050249ec                panic
                0x0000000005024a34                print_eth
                0x0000000005024b88                uslash
                0x0000000005024c04                ns_printf
                0x0000000005024d74                std_out
                0x0000000005024db8                con_page
                0x0000000005024e90                parse_args
 .text          0x0000000005025094      0x1a0 ../FPGAEncrypt_bsp/\libucosii_bsp.a(netmain.o)
                0x0000000005025094                netmain
                0x0000000005025174                tk_netmain
                0x00000000050251ec                tk_nettick
 .text          0x0000000005025234      0x5b4 ../FPGAEncrypt_bsp/\libucosii_bsp.a(tk_crnos.o)
                0x0000000005025234                TK_OSTimeDly
                0x0000000005025264                TK_OSTaskResume
                0x00000000050252d8                tcp_sleep
                0x000000000502544c                tcp_wakeup
                0x0000000005025544                TK_OSTaskQuery
                0x00000000050255b0                tk_yield
                0x00000000050255e0                tk_stats
 .text          0x00000000050257e8     0x2c28 ../FPGAEncrypt_bsp/\libucosii_bsp.a(dhcpclnt.o)
                0x00000000050257e8                dhc_get_srv_ipaddr
                0x0000000005025870                dhc_init
                0x0000000005025920                dhc_set_callback
                0x0000000005025968                dhc_upcall
                0x0000000005026118                dhc_buildheader
                0x00000000050262fc                dhc_discover
                0x00000000050267a4                dhc_rx_offer
                0x0000000005026888                dhc_request
                0x000000000502730c                dhc_setip
                0x0000000005027588                dhc_resetip
                0x000000000502766c                dhc_decline
                0x0000000005027820                dhc_extract_opts
                0x0000000005027a90                dhc_second
                0x0000000005027fe0                dhc_halt
                0x0000000005028060                dhc_reclaim
                0x0000000005028218                dhc_state_init
                0x0000000005028270                dhc_alldone
                0x00000000050282f8                dhc_ifacedone
                0x0000000005028360                dhc_set_state
 .text          0x0000000005028410       0xc0 ../FPGAEncrypt_bsp/\libucosii_bsp.a(dhcputil.o)
                0x0000000005028410                find_opt
 .text          0x00000000050284d0      0x774 ../FPGAEncrypt_bsp/\libucosii_bsp.a(pktalloc.o)
                0x00000000050284d0                pk_init
                0x000000000502876c                pk_alloc
                0x0000000005028830                pk_validate
                0x0000000005028abc                pk_free
                0x0000000005028b68                pk_get_max_intrsafe_buf_len
                0x0000000005028b88                dump_buf_estats
 .text          0x0000000005028c44      0x268 ../FPGAEncrypt_bsp/\libucosii_bsp.a(q.o)
                0x0000000005028c44                getq
                0x0000000005028cfc                putq
                0x0000000005028dac                qdel
 .text          0x0000000005028eac      0x2d4 ../FPGAEncrypt_bsp/\libucosii_bsp.a(udp_open.o)
                0x0000000005028eac                udp_open
                0x00000000050290a8                udp_close
 .text          0x0000000005029180      0x194 ../FPGAEncrypt_bsp/\libucosii_bsp.a(asm_cksum.o)
                0x0000000005029180                asm_cksum
 .text          0x0000000005029314      0x27c ../FPGAEncrypt_bsp/\libucosii_bsp.a(brdutils.o)
                0x0000000005029314                dtrap
                0x0000000005029348                kbhit
                0x00000000050293dc                getch
                0x0000000005029438                clock_init
                0x0000000005029470                clock_c
                0x0000000005029490                cticks_hook
                0x00000000050294ec                irq_Mask
                0x000000000502954c                irq_Unmask
 .text          0x0000000005029590      0x4d0 ../FPGAEncrypt_bsp/\libucosii_bsp.a(osportco.o)
                0x0000000005029590                LOCK_NET_RESOURCE
                0x0000000005029654                UNLOCK_NET_RESOURCE
                0x00000000050296dc                TK_NEWTASK
                0x0000000005029928                wait_app_sem
                0x00000000050299e4                post_app_sem
 .text          0x0000000005029a60      0x574 ../FPGAEncrypt_bsp/\libucosii_bsp.a(targnios.o)
                0x0000000005029a60                alt_iniche_init
                0x0000000005029c5c                pre_task_setup
                0x0000000005029ca8                post_task_setup
                0x0000000005029cc8                prep_armintcp
                0x0000000005029d00                npalloc_base
                0x0000000005029e0c                npfree_base
                0x0000000005029eec                npalloc
                0x0000000005029f20                npfree
                0x0000000005029f60                ncpalloc
                0x0000000005029f94                ncpfree
 .text          0x0000000005029fd4     0x181c ../FPGAEncrypt_bsp/\libucosii_bsp.a(nptcp.o)
                0x0000000005029fd4                pffindtype
                0x000000000502a064                pffindproto
                0x000000000502a128                m_getnbuf
                0x000000000502a2b0                m_free
                0x000000000502a3b8                m_freem
                0x000000000502a3fc                m_copy
                0x000000000502a6f0                m_adj
                0x000000000502a8b0                mbuf_len
                0x000000000502a904                dtom
                0x000000000502a9a0                remque
                0x000000000502aa10                insque
                0x000000000502aa8c                nptcp_init
                0x000000000502ab84                tcp_rcv
                0x000000000502ad54                ip_output
                0x000000000502b304                in_broadcast
                0x000000000502b33c                np_stripoptions
                0x000000000502b430                so_icmpdu
                0x000000000502b778                tcp_tick
 .text          0x000000000502b7f0      0x970 ../FPGAEncrypt_bsp/\libucosii_bsp.a(rawsock.o)
                0x000000000502b7f0                rawip_lookup
                0x000000000502b84c                rawip_soinput
                0x000000000502ba14                rawip_usrreq
 .text          0x000000000502c160     0x1654 ../FPGAEncrypt_bsp/\libucosii_bsp.a(sockcall.o)
                0x000000000502c160                DOMAIN_CHECK
                0x000000000502c1b0                t_socket
                0x000000000502c230                t_bind
                0x000000000502c394                t_listen
                0x000000000502c46c                t_accept
                0x000000000502c6c0                t_connect
                0x000000000502c92c                t_getpeername
                0x000000000502c970                t_getsockname
                0x000000000502cb90                t_setsockopt
                0x000000000502cd50                t_getsockopt
                0x000000000502cedc                t_recv
                0x000000000502cfbc                t_recvfrom
                0x000000000502d0fc                t_sendto
                0x000000000502d2f0                t_send
                0x000000000502d4f4                t_shutdown
                0x000000000502d5cc                t_socketclose
                0x000000000502d71c                t_errno
 .text          0x000000000502d7b4     0x2034 ../FPGAEncrypt_bsp/\libucosii_bsp.a(socket.o)
                0x000000000502d7b4                socreate
                0x000000000502d95c                sobind
                0x000000000502d9b8                solisten
                0x000000000502da88                sofree
                0x000000000502db98                soclose
                0x000000000502de54                soabort
                0x000000000502dea4                soaccept
                0x000000000502df3c                soconnect
                0x000000000502dff4                sodisconnect
                0x000000000502e08c                sosend
                0x000000000502e5e4                soreceive
                0x000000000502ed30                soshutdown
                0x000000000502edc8                sorflush
                0x000000000502eec4                sosetopt
                0x000000000502f2f4                sogetopt
                0x000000000502f79c                sohasoutofband
 .text          0x000000000502f7e8     0x128c ../FPGAEncrypt_bsp/\libucosii_bsp.a(socket2.o)
                0x000000000502f7e8                soisconnecting
                0x000000000502f858                soisconnected
                0x000000000502f95c                soisdisconnecting
                0x000000000502f9f4                soisdisconnected
                0x000000000502fab8                sonewconn
                0x000000000502fcb8                soqinsque
                0x000000000502fd64                soqremque
                0x000000000502fe6c                socantsendmore
                0x000000000502fec4                socantrcvmore
                0x000000000502ff1c                sbselqueue
                0x000000000502ff58                sbwait
                0x000000000502ffc4                sbwakeup
                0x0000000005030050                soreserve
                0x00000000050300d8                sbreserve
                0x0000000005030128                sbrelease
                0x0000000005030174                sbappend
                0x0000000005030214                sbappendrecord
                0x00000000050302ec                sbappendaddr
                0x00000000050304c8                sbcompress
                0x00000000050306a8                sbflush
                0x000000000503072c                sbdrop
                0x00000000050308e4                sbdropend
                0x00000000050309e4                sbdroprecord
 .text          0x0000000005030a74      0x87c ../FPGAEncrypt_bsp/\libucosii_bsp.a(soselect.o)
                0x0000000005030a74                t_select
                0x0000000005030c44                sock_selscan
                0x0000000005030d84                sock_select
                0x0000000005030f68                in_pcbnotify
                0x000000000503102c                tcp_notify
                0x00000000050310ac                ifd_clr
                0x000000000503119c                ifd_set
                0x0000000005031214                ifd_isset
                0x000000000503128c                ifd_get
 .text          0x00000000050312f0     0x2d80 ../FPGAEncrypt_bsp/\libucosii_bsp.a(tcp_in.o)
                0x00000000050312f0                tcp_reass
                0x0000000005031700                tcp_input
                0x0000000005033a30                tcp_dooptions
                0x0000000005033bb8                tcp_pulloutofband
                0x0000000005033ce4                tcp_xmit_timer
                0x0000000005033f30                ip4_tcpmss
                0x0000000005033f78                tcp_mss
 .text          0x0000000005034070     0x11cc ../FPGAEncrypt_bsp/\libucosii_bsp.a(tcp_out.o)
                0x0000000005034070                tcp_output
                0x0000000005035074                tcp_setpersist
 .text          0x000000000503523c      0x93c ../FPGAEncrypt_bsp/\libucosii_bsp.a(tcp_subr.o)
                0x000000000503523c                tcp_init
                0x0000000005035290                tcp_template
                0x0000000005035398                tcp_respond
                0x0000000005035798                tcp_newtcpcb
                0x00000000050358a4                tcp_drop
                0x0000000005035950                tcp_close
                0x0000000005035a40                tcp_quench
                0x0000000005035a8c                tcp_putseq
                0x0000000005035b04                tcp_getseq
 .text          0x0000000005035b78      0x750 ../FPGAEncrypt_bsp/\libucosii_bsp.a(tcp_timr.o)
                0x0000000005035b78                tcp_slowtimo
                0x0000000005035de8                tcp_canceltimers
                0x0000000005035e48                tcp_timers
 .text          0x00000000050362c8      0x988 ../FPGAEncrypt_bsp/\libucosii_bsp.a(tcp_usr.o)
                0x00000000050362c8                tcp_usrreq
                0x000000000503699c                tcp_attach
                0x0000000005036ab4                tcp_disconnect
                0x0000000005036b80                tcp_usrclosed
 .text          0x0000000005036c50       0x40 ../FPGAEncrypt_bsp/\libucosii_bsp.a(tcpport.o)
                0x0000000005036c50                tcpinit
 .text          0x0000000005036c90      0xbb4 ../FPGAEncrypt_bsp/\libucosii_bsp.a(udpsock.o)
                0x0000000005036c90                udp_lookup
                0x0000000005036cec                udp_soinput
                0x0000000005036e8c                udp_usrreq
                0x00000000050370c8                udp4_sockbind
                0x000000000503739c                udp4_socksend
                0x000000000503771c                udp4_sockaddr
 .text          0x0000000005037844      0x12c ../FPGAEncrypt_bsp/\libucosii_bsp.a(alt_alarm_start.o)
                0x0000000005037844                alt_alarm_start
 .text          0x0000000005037970      0x158 ../FPGAEncrypt_bsp/\libucosii_bsp.a(alt_busy_sleep.o)
                0x0000000005037970                alt_busy_sleep
 .text          0x0000000005037ac8      0x10c ../FPGAEncrypt_bsp/\libucosii_bsp.a(alt_close.o)
                0x0000000005037b04                alt_close
 .text          0x0000000005037bd4       0x78 ../FPGAEncrypt_bsp/\libucosii_bsp.a(alt_dcache_flush.o)
                0x0000000005037bd4                alt_dcache_flush
 .text          0x0000000005037c4c       0x2c ../FPGAEncrypt_bsp/\libucosii_bsp.a(alt_dev.o)
 .text          0x0000000005037c78       0xe0 ../FPGAEncrypt_bsp/\libucosii_bsp.a(alt_dev_llist_insert.o)
                0x0000000005037cb4                alt_dev_llist_insert
 .text          0x0000000005037d58       0x60 ../FPGAEncrypt_bsp/\libucosii_bsp.a(alt_do_ctors.o)
                0x0000000005037d58                _do_ctors
 .text          0x0000000005037db8       0x60 ../FPGAEncrypt_bsp/\libucosii_bsp.a(alt_do_dtors.o)
                0x0000000005037db8                _do_dtors
 .text          0x0000000005037e18        0x0 ../FPGAEncrypt_bsp/\libucosii_bsp.a(alt_errno.o)
 .text          0x0000000005037e18       0x90 ../FPGAEncrypt_bsp/\libucosii_bsp.a(alt_find_dev.o)
                0x0000000005037e18                alt_find_dev
 .text          0x0000000005037ea8       0xbc ../FPGAEncrypt_bsp/\libucosii_bsp.a(alt_flash_dev.o)
                0x0000000005037ea8                alt_flash_open_dev
                0x0000000005037f10                alt_flash_close_dev
 .text          0x0000000005037f64      0x1b0 ../FPGAEncrypt_bsp/\libucosii_bsp.a(alt_iic.o)
                0x0000000005037f64                alt_ic_isr_register
                0x0000000005037fb4                alt_ic_irq_enable
                0x000000000503803c                alt_ic_irq_disable
                0x00000000050380c8                alt_ic_irq_enabled
 .text          0x0000000005038114       0xf0 ../FPGAEncrypt_bsp/\libucosii_bsp.a(alt_iic_isr_register.o)
                0x0000000005038114                alt_iic_isr_register
 .text          0x0000000005038204      0x140 ../FPGAEncrypt_bsp/\libucosii_bsp.a(alt_io_redirect.o)
                0x00000000050382c8                alt_io_redirect
 .text          0x0000000005038344        0x0 ../FPGAEncrypt_bsp/\libucosii_bsp.a(alt_irq_entry.o)
 .text          0x0000000005038344        0x0 ../FPGAEncrypt_bsp/\libucosii_bsp.a(alt_irq_handler.o)
 .text          0x0000000005038344        0x0 ../FPGAEncrypt_bsp/\libucosii_bsp.a(alt_irq_vars.o)
 .text          0x0000000005038344      0x254 ../FPGAEncrypt_bsp/\libucosii_bsp.a(alt_open.o)
                0x0000000005038444                open
 .text          0x0000000005038598      0x22c ../FPGAEncrypt_bsp/\libucosii_bsp.a(alt_printf.o)
                0x0000000005038598                alt_printf
 .text          0x00000000050387c4       0x3c ../FPGAEncrypt_bsp/\libucosii_bsp.a(alt_putchar.o)
                0x00000000050387c4                alt_putchar
 .text          0x0000000005038800      0x138 ../FPGAEncrypt_bsp/\libucosii_bsp.a(alt_read.o)
                0x000000000503883c                alt_read
 .text          0x0000000005038938       0x64 ../FPGAEncrypt_bsp/\libucosii_bsp.a(alt_release_fd.o)
                0x0000000005038938                alt_release_fd
 .text          0x000000000503899c       0x34 ../FPGAEncrypt_bsp/\libucosii_bsp.a(alt_remap_cached.o)
                0x000000000503899c                alt_remap_cached
 .text          0x00000000050389d0      0x1a4 ../FPGAEncrypt_bsp/\libucosii_bsp.a(alt_tick.o)
                0x00000000050389d0                alt_alarm_stop
                0x0000000005038a6c                alt_tick
 .text          0x0000000005038b74       0x44 ../FPGAEncrypt_bsp/\libucosii_bsp.a(alt_uncached_free.o)
                0x0000000005038b74                alt_uncached_free
 .text          0x0000000005038bb8       0x78 ../FPGAEncrypt_bsp/\libucosii_bsp.a(alt_uncached_malloc.o)
                0x0000000005038bb8                alt_uncached_malloc
 .text          0x0000000005038c30      0x134 ../FPGAEncrypt_bsp/\libucosii_bsp.a(alt_write.o)
                0x0000000005038c6c                alt_write
 .text          0x0000000005038d64       0x24 ../FPGAEncrypt_bsp/\libucosii_bsp.a(altera_nios2_gen2_irq.o)
                0x0000000005038d64                altera_nios2_gen2_irq_init
 .text          0x0000000005038d88       0xd0 ../FPGAEncrypt_bsp/\libucosii_bsp.a(os_cpu_a.o)
                0x0000000005038d88                OSCtxSw
                0x0000000005038d88                OSIntCtxSw
                0x0000000005038e14                OSStartHighRdy
                0x0000000005038e34                OSStartTsk
 .text          0x0000000005038e58      0x294 ../FPGAEncrypt_bsp/\libucosii_bsp.a(os_cpu_c.o)
                0x0000000005038e58                OSTaskStkInit
                0x0000000005038fb4                OSTaskCreateHook
                0x0000000005038fd8                OSTaskDelHook
                0x0000000005038ffc                OSTaskSwHook
                0x000000000503901c                OSTaskStatHook
                0x000000000503903c                OSTimeTickHook
                0x0000000005039068                OSInitHookBegin
                0x0000000005039088                OSInitHookEnd
                0x00000000050390a8                OSTaskIdleHook
                0x00000000050390c8                OSTCBInitHook
 .text          0x00000000050390ec     0x5148 ../FPGAEncrypt_bsp/\libucosii_bsp.a(altera_avalon_tse.o)
                0x00000000050390ec                no_printf
                0x000000000503911c                tse_mac_initTransInfo2
                0x000000000503917c                tse_mac_sTxWrite
                0x0000000005039244                tse_mac_aRxRead
                0x00000000050392b4                tse_mac_aTxWrite
                0x0000000005039324                tse_mac_SwReset
                0x00000000050393ac                tse_mac_setMIImode
                0x0000000005039400                tse_mac_setGMIImode
                0x0000000005039450                alt_tse_phy_add_profile
                0x0000000005039634                alt_tse_system_add_sys
                0x000000000503a038                alt_tse_sys_enable_mdio_sharing
                0x000000000503a1a0                alt_tse_mac_get_common_speed
                0x000000000503a1e0                alt_tse_mac_set_common_speed
                0x000000000503a228                alt_tse_get_system_index
                0x000000000503a294                alt_tse_get_mac_group_index
                0x000000000503a308                alt_tse_get_mac_info_index
                0x000000000503a388                alt_tse_get_mac_info
                0x000000000503a460                alt_tse_mac_set_speed
                0x000000000503a540                alt_tse_mac_set_duplex
                0x000000000503a5cc                getPHYSpeed
                0x000000000503b048                alt_tse_phy_rd_mdio_addr
                0x000000000503b090                alt_tse_phy_wr_mdio_addr
                0x000000000503b0e8                alt_tse_phy_wr_mdio_reg
                0x000000000503b210                alt_tse_phy_rd_mdio_reg
                0x000000000503b2dc                alt_tse_phy_add_profile_default
                0x000000000503b5a8                alt_tse_phy_print_profile
                0x000000000503b7b8                alt_tse_mac_group_init
                0x000000000503be5c                alt_tse_mac_get_phy
                0x000000000503c278                alt_tse_mac_associate_phy
                0x000000000503c4c0                alt_tse_phy_cfg_pcs
                0x000000000503c5e8                alt_tse_phy_init
                0x000000000503c700                alt_tse_phy_restart_an
                0x000000000503c8c4                alt_tse_phy_check_link
                0x000000000503ca4c                alt_tse_phy_get_cap
                0x000000000503cfd8                alt_tse_phy_set_adv_1000
                0x000000000503d19c                alt_tse_phy_set_adv_100
                0x000000000503d3f0                alt_tse_phy_set_adv_10
                0x000000000503d598                alt_tse_phy_get_common_speed
                0x000000000503d8bc                alt_tse_phy_set_common_speed
                0x000000000503dd70                marvell_phy_cfg
                0x000000000503de08                marvell_cfg_gmii
                0x000000000503deec                marvell_cfg_sgmii
                0x000000000503dfd0                marvell_cfg_rgmii
                0x000000000503e0c0                DP83848C_link_status_read
                0x000000000503e138                PEF7071_config
                0x000000000503e194                PEF7071_link_status_read
 .text          0x000000000503e234      0x3ec ../FPGAEncrypt_bsp/\libucosii_bsp.a(allports.o)
                0x000000000503e234                netmain_init
                0x000000000503e328                icmp_port_du
                0x000000000503e3bc                station_state
                0x000000000503e520                sysuptime
                0x000000000503e558                packet_check
                0x000000000503e5a8                mcastlist
                0x000000000503e5cc                prep_modules
 .text          0x000000000503e620      0x414 ../FPGAEncrypt_bsp/\libucosii_bsp.a(timeouts.o)
                0x000000000503e620                inet_timer
                0x000000000503e838                in_timerset
                0x000000000503e998                in_timerkill
 .text          0x000000000503ea34       0xa0 ../FPGAEncrypt_bsp/\libucosii_bsp.a(tk_misc.o)
                0x000000000503ea34                create_apptasks
                0x000000000503ea58                task_stats
 .text          0x000000000503ead4       0xa0 ../FPGAEncrypt_bsp/\libucosii_bsp.a(alt_iniche_fcntl.o)
                0x000000000503ead4                fcntl
 .text          0x000000000503eb74     0x13e8 ../FPGAEncrypt_bsp/\libucosii_bsp.a(et_arp.o)
                0x000000000503eb74                etainit
                0x000000000503ebbc                et_send
                0x000000000503ed3c                arp_free_pending
                0x000000000503edc4                arp_send_pending
                0x000000000503ee38                send_arp
                0x000000000503f28c                find_oldest_arp
                0x000000000503f3f8                make_arp_entry
                0x000000000503f4f4                arpReply
                0x000000000503f7b4                arprcv
                0x000000000503fa18                send_via_arp
                0x000000000503fb98                cb_arpent_tmo
                0x000000000503fca4                grat_arp
 .text          0x000000000503ff5c      0x268 ../FPGAEncrypt_bsp/\libucosii_bsp.a(iface.o)
                0x000000000503ff5c                if_getbynum
                0x000000000503ffcc                isbcast
                0x00000000050400a0                reg_type
                0x0000000005040130                if_killsocks
 .text          0x00000000050401c4     0x2044 ../FPGAEncrypt_bsp/\libucosii_bsp.a(ip.o)
                0x00000000050401c4                ip_init
                0x00000000050402ac                ip_bldhead
                0x000000000504043c                ip_write_internal
                0x0000000005040b60                ip_write
                0x0000000005040d80                ip_write2
                0x0000000005041104                ip_raw_write
                0x00000000050411cc                ip_fragment_lc
                0x00000000050415ec                ip_fragment
                0x0000000005041bb0                ip_mymach
                0x0000000005041c54                ip_dump
                0x0000000005041efc                iproute
                0x00000000050420d4                ip_copypkt
 .text          0x0000000005042208     0x1c28 ../FPGAEncrypt_bsp/\libucosii_bsp.a(ip_reasm.o)
                0x0000000005042208                ip_reasm_match_frag_with_ire
                0x00000000050422cc                ip_reasm_determine_type_of_frag
                0x000000000504239c                ip_reasm_check_mem_useage
                0x0000000005042430                ip_reasm_incr_mem_useage
                0x00000000050424d0                ip_reasm_decr_mem_useage
                0x0000000005042568                ip_reasm_process_first_fragment
                0x0000000005042820                ip_reassm
                0x00000000050428a8                ip_reasm_compute_overlap
                0x0000000005042e0c                ip_reasm_process_subsequent_fragments
                0x000000000504333c                ip_reasm_find_ire
                0x0000000005043394                ip_reasm_copy_queued_fragments_into_reassy_buffer
                0x00000000050436e0                ip_reasm_process_timer_tick
                0x00000000050437b8                ip_reasm_delete_ire
                0x000000000504396c                ip_reasm_mark_compact_rfq
                0x0000000005043a9c                ipr_stats
                0x0000000005043de0                ip_reasm_send_icmp_timex
 .text          0x0000000005043e30      0xd20 ../FPGAEncrypt_bsp/\libucosii_bsp.a(ipdemux.o)
                0x0000000005043e30                ip_rcv
                0x00000000050441b0                ip_rcv_phase2
                0x000000000504477c                ip_demux
 .text          0x0000000005044b50      0x2bc ../FPGAEncrypt_bsp/\libucosii_bsp.a(ipmc.o)
                0x0000000005044b50                in_addmulti
                0x0000000005044c9c                in_delmulti
                0x0000000005044da8                lookup_mcast
 .text          0x0000000005044e0c       0xd4 ../FPGAEncrypt_bsp/\libucosii_bsp.a(ipport.o)
                0x0000000005044e0c                prep_ifaces
                0x0000000005044e8c                netexit
                0x0000000005044eb4                evtmap_setup
 .text          0x0000000005044ee0      0x4fc ../FPGAEncrypt_bsp/\libucosii_bsp.a(ipraw.o)
                0x0000000005044ee0                ip_raw_open
                0x0000000005044fb8                ip_raw_close
                0x0000000005045074                ip_raw_input
                0x0000000005045298                ip_raw_alloc
                0x0000000005045350                ip_raw_free
                0x0000000005045394                ip_raw_maxalloc
 .text          0x00000000050453dc      0x628 ../FPGAEncrypt_bsp/\libucosii_bsp.a(iproute.o)
                0x00000000050453dc                rt_lookup
                0x0000000005045530                add_route
                0x00000000050458f0                del_route
 .text          0x0000000005045a04      0xd08 ../FPGAEncrypt_bsp/\libucosii_bsp.a(udp.o)
                0x0000000005045a04                udpdemux
                0x00000000050461ac                udp_send
                0x0000000005046444                udpswap
                0x0000000005046538                udp_socket
                0x00000000050465e8                udp_alloc
                0x00000000050466a4                udp_maxalloc
                0x00000000050466c8                udp_free
 .text          0x000000000504670c      0x2a4 ../FPGAEncrypt_bsp/\libucosii_bsp.a(igmp.o)
                0x000000000504670c                igmpv1_input
 .text          0x00000000050469b0      0x6c8 ../FPGAEncrypt_bsp/\libucosii_bsp.a(igmp2.o)
                0x00000000050469b0                igmpv2_input
                0x0000000005046ad4                igmpv2_process_report
                0x0000000005046c08                igmpv2_process_query
                0x0000000005046df4                igmpv2_chk_set_timer
                0x0000000005046f38                igmpv2_chk4_rtr_alert_opt
 .text          0x0000000005047078      0x88c ../FPGAEncrypt_bsp/\libucosii_bsp.a(ipopt.o)
                0x0000000005047078                IPADDR_TO_NETP
                0x00000000050471ac                ip_setmoptions
                0x0000000005047774                ip_getmoptions
                0x000000000504787c                ip_freemoptions
 .text          0x0000000005047904      0x6e8 ../FPGAEncrypt_bsp/\libucosii_bsp.a(u_mctest.o)
                0x0000000005047904                u_mctest_init
                0x0000000005047938                u_mctest_run
 .text          0x0000000005047fec      0x378 ../FPGAEncrypt_bsp/\libucosii_bsp.a(dhcsetup.o)
                0x0000000005047fec                dhc_setup
                0x0000000005048250                dhc_main_ipset
 .text          0x0000000005048364      0x3b4 ../FPGAEncrypt_bsp/\libucosii_bsp.a(memdev.o)
                0x0000000005048364                init_memdev
                0x00000000050483bc                md_fopen
                0x00000000050483e4                md_fclose
                0x0000000005048408                md_fread
                0x0000000005048564                md_fwrite
                0x00000000050485dc                md_fseek
                0x0000000005048608                md_ftell
                0x000000000504862c                md_fgetc
                0x00000000050486f4                md_unlink
 .text          0x0000000005048718      0x780 ../FPGAEncrypt_bsp/\libucosii_bsp.a(parseip.o)
                0x0000000005048718                parse_ipad
                0x0000000005048a14                inet_addr
                0x0000000005048a74                hextoa
                0x0000000005048ac0                inet_pton
                0x0000000005048b54                inet_ntop
                0x0000000005048bd8                print46_addr
                0x0000000005048c34                inet46_addr
                0x0000000005048cf8                inet_setport
                0x0000000005048d64                convert_ip
 .text          0x0000000005048e98      0x1a0 ../FPGAEncrypt_bsp/\libucosii_bsp.a(tcpcksum.o)
                0x0000000005048e98                tcp_cksum
 .text          0x0000000005049038      0x888 ../FPGAEncrypt_bsp/\libucosii_bsp.a(in_pcb.o)
                0x0000000005049038                in_pcballoc
                0x00000000050490c0                in_pcbdetach
                0x0000000005049118                in_pcbbind
                0x0000000005049328                in_pcbconnect
                0x0000000005049508                in_pcbdisconnect
                0x0000000005049564                in_setsockaddr
                0x00000000050495e8                in_setpeeraddr
                0x000000000504966c                in_pcblookup
 .text          0x00000000050498c0     0x18e4 ../FPGAEncrypt_bsp/\libucosii_bsp.a(vfsfiles.o)
                0x00000000050498c0                set_vfopen_error
                0x00000000050498ec                get_vfopen_error
                0x000000000504990c                vf_alloc_and_link_vop
                0x000000000504997c                vf_alloc_buffer
                0x0000000005049a44                vf_free_buffer
                0x0000000005049a94                vfopen_locked
                0x0000000005049dcc                vfopen
                0x0000000005049e1c                vfclose_locked
                0x0000000005049fd8                vfclose
                0x000000000504a01c                vfflush
                0x000000000504a064                vfgets
                0x000000000504a134                vfeof
                0x000000000504a184                vunlink_flag_open_files
                0x000000000504a1e0                vunlink
                0x000000000504a3e0                vfread
                0x000000000504a56c                vfwrite_locked
                0x000000000504a91c                vfwrite
                0x000000000504a97c                vfseek
                0x000000000504aac8                vftell
                0x000000000504abd8                vgetc_locked
                0x000000000504acd0                vgetc
                0x000000000504ad18                vfslookup_locked
                0x000000000504ae3c                vfslookup
                0x000000000504ae84                strippath
                0x000000000504b050                isvfile_locked
                0x000000000504b0a8                isvfile
                0x000000000504b0f0                vferror
                0x000000000504b14c                vclearerr
 .text          0x000000000504b1a4       0x24 ../FPGAEncrypt_bsp/\libucosii_bsp.a(vfsport.o)
                0x000000000504b1a4                prep_vfs
 .text          0x000000000504b1c8        0x0 ../FPGAEncrypt_bsp/\libucosii_bsp.a(alt_exception_entry.o)
 .text          0x000000000504b1c8      0x15c ../FPGAEncrypt_bsp/\libucosii_bsp.a(alt_fcntl.o)
                0x000000000504b204                alt_fcntl
 .text          0x000000000504b324      0x108 ../FPGAEncrypt_bsp/\libucosii_bsp.a(alt_find_file.o)
                0x000000000504b324                alt_find_file
 .text          0x000000000504b42c       0xdc ../FPGAEncrypt_bsp/\libucosii_bsp.a(alt_get_fd.o)
                0x000000000504b42c                alt_get_fd
 .text          0x000000000504b508       0x9c ../FPGAEncrypt_bsp/\libucosii_bsp.a(alt_instruction_exception_entry.o)
                0x000000000504b508                alt_exception_cause_generated_bad_addr
 .text          0x000000000504b5a4      0x114 ../FPGAEncrypt_bsp/\libucosii_bsp.a(alt_usleep.o)
                0x000000000504b5a4                usleep
 .text          0x000000000504b6b8     0x11cc ../FPGAEncrypt_bsp/\libucosii_bsp.a(icmp.o)
                0x000000000504b6b8                icmprcv
                0x000000000504c21c                icmp_destun
                0x000000000504c51c                icmp_timex
                0x000000000504c830                icmp_du
 .text          0x000000000504c884        0x0 c:/intelfpga_lite/18.1/nios2eds/bin/gnu/h-x86_64-mingw32/bin/../lib/gcc/nios2-elf/5.3.0/../../../../../H-x86_64-mingw32/nios2-elf/lib\libc.a(lib_a-atexit.o)
 .text.atexit   0x000000000504c884       0x14 c:/intelfpga_lite/18.1/nios2eds/bin/gnu/h-x86_64-mingw32/bin/../lib/gcc/nios2-elf/5.3.0/../../../../../H-x86_64-mingw32/nios2-elf/lib\libc.a(lib_a-atexit.o)
                0x000000000504c884                atexit
 .text          0x000000000504c898        0x0 c:/intelfpga_lite/18.1/nios2eds/bin/gnu/h-x86_64-mingw32/bin/../lib/gcc/nios2-elf/5.3.0/../../../../../H-x86_64-mingw32/nios2-elf/lib\libc.a(lib_a-atoi.o)
 .text.atoi     0x000000000504c898        0xc c:/intelfpga_lite/18.1/nios2eds/bin/gnu/h-x86_64-mingw32/bin/../lib/gcc/nios2-elf/5.3.0/../../../../../H-x86_64-mingw32/nios2-elf/lib\libc.a(lib_a-atoi.o)
                0x000000000504c898                atoi
 .text._atoi_r  0x000000000504c8a4        0xc c:/intelfpga_lite/18.1/nios2eds/bin/gnu/h-x86_64-mingw32/bin/../lib/gcc/nios2-elf/5.3.0/../../../../../H-x86_64-mingw32/nios2-elf/lib\libc.a(lib_a-atoi.o)
                0x000000000504c8a4                _atoi_r
 .text          0x000000000504c8b0        0x0 c:/intelfpga_lite/18.1/nios2eds/bin/gnu/h-x86_64-mingw32/bin/../lib/gcc/nios2-elf/5.3.0/../../../../../H-x86_64-mingw32/nios2-elf/lib\libc.a(lib_a-exit.o)
 .text.exit     0x000000000504c8b0       0x38 c:/intelfpga_lite/18.1/nios2eds/bin/gnu/h-x86_64-mingw32/bin/../lib/gcc/nios2-elf/5.3.0/../../../../../H-x86_64-mingw32/nios2-elf/lib\libc.a(lib_a-exit.o)
                0x000000000504c8b0                exit
 .text          0x000000000504c8e8        0x0 c:/intelfpga_lite/18.1/nios2eds/bin/gnu/h-x86_64-mingw32/bin/../lib/gcc/nios2-elf/5.3.0/../../../../../H-x86_64-mingw32/nios2-elf/lib\libc.a(lib_a-malign.o)
 .text.memalign
                0x000000000504c8e8       0x18 c:/intelfpga_lite/18.1/nios2eds/bin/gnu/h-x86_64-mingw32/bin/../lib/gcc/nios2-elf/5.3.0/../../../../../H-x86_64-mingw32/nios2-elf/lib\libc.a(lib_a-malign.o)
                0x000000000504c8e8                memalign
 .text          0x000000000504c900        0x0 c:/intelfpga_lite/18.1/nios2eds/bin/gnu/h-x86_64-mingw32/bin/../lib/gcc/nios2-elf/5.3.0/../../../../../H-x86_64-mingw32/nios2-elf/lib\libc.a(lib_a-malignr.o)
 .text._memalign_r
                0x000000000504c900      0x198 c:/intelfpga_lite/18.1/nios2eds/bin/gnu/h-x86_64-mingw32/bin/../lib/gcc/nios2-elf/5.3.0/../../../../../H-x86_64-mingw32/nios2-elf/lib\libc.a(lib_a-malignr.o)
                0x000000000504c900                _memalign_r
 .text          0x000000000504ca98        0x0 c:/intelfpga_lite/18.1/nios2eds/bin/gnu/h-x86_64-mingw32/bin/../lib/gcc/nios2-elf/5.3.0/../../../../../H-x86_64-mingw32/nios2-elf/lib\libc.a(lib_a-malloc.o)
 .text.malloc   0x000000000504ca98       0x14 c:/intelfpga_lite/18.1/nios2eds/bin/gnu/h-x86_64-mingw32/bin/../lib/gcc/nios2-elf/5.3.0/../../../../../H-x86_64-mingw32/nios2-elf/lib\libc.a(lib_a-malloc.o)
                0x000000000504ca98                malloc
 .text.free     0x000000000504caac       0x14 c:/intelfpga_lite/18.1/nios2eds/bin/gnu/h-x86_64-mingw32/bin/../lib/gcc/nios2-elf/5.3.0/../../../../../H-x86_64-mingw32/nios2-elf/lib\libc.a(lib_a-malloc.o)
                0x000000000504caac                free
 .text          0x000000000504cac0        0x0 c:/intelfpga_lite/18.1/nios2eds/bin/gnu/h-x86_64-mingw32/bin/../lib/gcc/nios2-elf/5.3.0/../../../../../H-x86_64-mingw32/nios2-elf/lib\libc.a(lib_a-strcpy.o)
 .text.strcpy   0x000000000504cac0       0x90 c:/intelfpga_lite/18.1/nios2eds/bin/gnu/h-x86_64-mingw32/bin/../lib/gcc/nios2-elf/5.3.0/../../../../../H-x86_64-mingw32/nios2-elf/lib\libc.a(lib_a-strcpy.o)
                0x000000000504cac0                strcpy
 .text          0x000000000504cb50        0x0 c:/intelfpga_lite/18.1/nios2eds/bin/gnu/h-x86_64-mingw32/bin/../lib/gcc/nios2-elf/5.3.0/../../../../../H-x86_64-mingw32/nios2-elf/lib\libc.a(lib_a-strncmp.o)
 .text.strncmp  0x000000000504cb50       0xd0 c:/intelfpga_lite/18.1/nios2eds/bin/gnu/h-x86_64-mingw32/bin/../lib/gcc/nios2-elf/5.3.0/../../../../../H-x86_64-mingw32/nios2-elf/lib\libc.a(lib_a-strncmp.o)
                0x000000000504cb50                strncmp
 .text          0x000000000504cc20        0x0 c:/intelfpga_lite/18.1/nios2eds/bin/gnu/h-x86_64-mingw32/bin/../lib/gcc/nios2-elf/5.3.0/../../../../../H-x86_64-mingw32/nios2-elf/lib\libc.a(lib_a-strncpy.o)
 .text.strncpy  0x000000000504cc20       0xec c:/intelfpga_lite/18.1/nios2eds/bin/gnu/h-x86_64-mingw32/bin/../lib/gcc/nios2-elf/5.3.0/../../../../../H-x86_64-mingw32/nios2-elf/lib\libc.a(lib_a-strncpy.o)
                0x000000000504cc20                strncpy
 .text          0x000000000504cd0c        0x0 c:/intelfpga_lite/18.1/nios2eds/bin/gnu/h-x86_64-mingw32/bin/../lib/gcc/nios2-elf/5.3.0/../../../../../H-x86_64-mingw32/nios2-elf/lib\libc.a(lib_a-strtol.o)
 .text._strtol_r
                0x000000000504cd0c      0x238 c:/intelfpga_lite/18.1/nios2eds/bin/gnu/h-x86_64-mingw32/bin/../lib/gcc/nios2-elf/5.3.0/../../../../../H-x86_64-mingw32/nios2-elf/lib\libc.a(lib_a-strtol.o)
                0x000000000504cd0c                _strtol_r
 .text.strtol   0x000000000504cf44       0x1c c:/intelfpga_lite/18.1/nios2eds/bin/gnu/h-x86_64-mingw32/bin/../lib/gcc/nios2-elf/5.3.0/../../../../../H-x86_64-mingw32/nios2-elf/lib\libc.a(lib_a-strtol.o)
                0x000000000504cf44                strtol
 .text          0x000000000504cf60        0x0 c:/intelfpga_lite/18.1/nios2eds/bin/gnu/h-x86_64-mingw32/bin/../lib/gcc/nios2-elf/5.3.0/../../../../../H-x86_64-mingw32/nios2-elf/lib\libc.a(lib_a-vprintf.o)
 .text.vprintf  0x000000000504cf60       0x1c c:/intelfpga_lite/18.1/nios2eds/bin/gnu/h-x86_64-mingw32/bin/../lib/gcc/nios2-elf/5.3.0/../../../../../H-x86_64-mingw32/nios2-elf/lib\libc.a(lib_a-vprintf.o)
                0x000000000504cf60                vprintf
 .text._vprintf_r
                0x000000000504cf7c       0x10 c:/intelfpga_lite/18.1/nios2eds/bin/gnu/h-x86_64-mingw32/bin/../lib/gcc/nios2-elf/5.3.0/../../../../../H-x86_64-mingw32/nios2-elf/lib\libc.a(lib_a-vprintf.o)
                0x000000000504cf7c                _vprintf_r
 .text          0x000000000504cf8c        0x0 c:/intelfpga_lite/18.1/nios2eds/bin/gnu/h-x86_64-mingw32/bin/../lib/gcc/nios2-elf/5.3.0/../../../../../H-x86_64-mingw32/nios2-elf/lib\libc.a(lib_a-vsprintf.o)
 .text._vsprintf_r
                0x000000000504cf8c       0x50 c:/intelfpga_lite/18.1/nios2eds/bin/gnu/h-x86_64-mingw32/bin/../lib/gcc/nios2-elf/5.3.0/../../../../../H-x86_64-mingw32/nios2-elf/lib\libc.a(lib_a-vsprintf.o)
                0x000000000504cf8c                _vsprintf_r
 .text.vsprintf
                0x000000000504cfdc       0x1c c:/intelfpga_lite/18.1/nios2eds/bin/gnu/h-x86_64-mingw32/bin/../lib/gcc/nios2-elf/5.3.0/../../../../../H-x86_64-mingw32/nios2-elf/lib\libc.a(lib_a-vsprintf.o)
                0x000000000504cfdc                vsprintf
 .text          0x000000000504cff8        0x0 c:/intelfpga_lite/18.1/nios2eds/bin/gnu/h-x86_64-mingw32/bin/../lib/gcc/nios2-elf/5.3.0/../../../../../H-x86_64-mingw32/nios2-elf/lib\libc.a(lib_a-__atexit.o)
 .text.__register_exitproc
                0x000000000504cff8      0x118 c:/intelfpga_lite/18.1/nios2eds/bin/gnu/h-x86_64-mingw32/bin/../lib/gcc/nios2-elf/5.3.0/../../../../../H-x86_64-mingw32/nios2-elf/lib\libc.a(lib_a-__atexit.o)
                0x000000000504cff8                __register_exitproc
 .text          0x000000000504d110        0x0 c:/intelfpga_lite/18.1/nios2eds/bin/gnu/h-x86_64-mingw32/bin/../lib/gcc/nios2-elf/5.3.0/../../../../../H-x86_64-mingw32/nios2-elf/lib\libc.a(lib_a-__call_atexit.o)
 .text.__call_exitprocs
                0x000000000504d110      0x180 c:/intelfpga_lite/18.1/nios2eds/bin/gnu/h-x86_64-mingw32/bin/../lib/gcc/nios2-elf/5.3.0/../../../../../H-x86_64-mingw32/nios2-elf/lib\libc.a(lib_a-__call_atexit.o)
                0x000000000504d110                __call_exitprocs
 .text          0x000000000504d290        0x0 c:/intelfpga_lite/18.1/nios2eds/bin/gnu/h-x86_64-mingw32/bin/../lib/gcc/nios2-elf/5.3.0/../../../../../H-x86_64-mingw32/nios2-elf/lib\libc.a(lib_a-vfprintfr_1.o)
 .text._vfprintf_r
                0x000000000504d290       0x18 c:/intelfpga_lite/18.1/nios2eds/bin/gnu/h-x86_64-mingw32/bin/../lib/gcc/nios2-elf/5.3.0/../../../../../H-x86_64-mingw32/nios2-elf/lib\libc.a(lib_a-vfprintfr_1.o)
                0x000000000504d290                _vfprintf_r
 .text          0x000000000504d2a8       0x34 ../FPGAEncrypt_bsp/\libucosii_bsp.a(alt_exit.o)
                0x000000000504d2a8                _exit
 *(.gnu.warning.*)
 *(.fini)
                [!provide]                        PROVIDE (__etext, ABSOLUTE (.))
                [!provide]                        PROVIDE (_etext, ABSOLUTE (.))
                [!provide]                        PROVIDE (etext, ABSOLUTE (.))
 *(.eh_frame_hdr)
                0x000000000504d2dc                . = ALIGN (0x4)
                [!provide]                        PROVIDE (__preinit_array_start, ABSOLUTE (.))
 *(.preinit_array)
                [!provide]                        PROVIDE (__preinit_array_end, ABSOLUTE (.))
                [!provide]                        PROVIDE (__init_array_start, ABSOLUTE (.))
 *(.init_array)
                [!provide]                        PROVIDE (__init_array_end, ABSOLUTE (.))
                [!provide]                        PROVIDE (__fini_array_start, ABSOLUTE (.))
 *(.fini_array)
                [!provide]                        PROVIDE (__fini_array_end, ABSOLUTE (.))
 *(.eh_frame)
 *(.gcc_except_table .gcc_except_table.*)
 *(.dynamic)
                0x000000000504d2dc                PROVIDE (__CTOR_LIST__, ABSOLUTE (.))
 *(.ctors)
 *(SORT(.ctors.*))
                0x000000000504d2dc                PROVIDE (__CTOR_END__, ABSOLUTE (.))
                0x000000000504d2dc                PROVIDE (__DTOR_LIST__, ABSOLUTE (.))
 *(.dtors)
 *(SORT(.dtors.*))
                0x000000000504d2dc                PROVIDE (__DTOR_END__, ABSOLUTE (.))
 *(.jcr)
                0x000000000504d2dc                . = ALIGN (0x4)

.rodata         0x000000000504d2dc     0x6224
                [!provide]                        PROVIDE (__ram_rodata_start, ABSOLUTE (.))
                0x000000000504d2dc                . = ALIGN (0x4)
 *(.rodata .rodata.* .gnu.linkonce.r.*)
 .rodata        0x000000000504d2dc      0xba2 obj/default/alt_error_handler.o
 *fill*         0x000000000504de7e        0x2 
 .rodata        0x000000000504de80      0x141 obj/default/iniche_init.o
 *fill*         0x000000000504dfc1        0x3 
 .rodata        0x000000000504dfc4       0x23 obj/default/led.o
 *fill*         0x000000000504dfe7        0x1 
 .rodata        0x000000000504dfe8      0x1e8 obj/default/network_utilities.o
 .rodata        0x000000000504e1d0      0x2d2 obj/default/simple_socket_server.o
 *fill*         0x000000000504e4a2        0x2 
 .rodata        0x000000000504e4a4       0x27 obj/default/tse_my_system.o
 .rodata._ctype_
                0x000000000504e4cb      0x101 c:/intelfpga_lite/18.1/nios2eds/bin/gnu/h-x86_64-mingw32/bin/../lib/gcc/nios2-elf/5.3.0/../../../../../H-x86_64-mingw32/nios2-elf/lib\libc.a(lib_a-ctype_.o)
                0x000000000504e4cb                _ctype_
 .rodata._ctype_b
                0x000000000504e5cc      0x180 c:/intelfpga_lite/18.1/nios2eds/bin/gnu/h-x86_64-mingw32/bin/../lib/gcc/nios2-elf/5.3.0/../../../../../H-x86_64-mingw32/nios2-elf/lib\libc.a(lib_a-ctype_.o)
 .rodata.str1.4
                0x000000000504e74c        0x2 c:/intelfpga_lite/18.1/nios2eds/bin/gnu/h-x86_64-mingw32/bin/../lib/gcc/nios2-elf/5.3.0/../../../../../H-x86_64-mingw32/nios2-elf/lib\libc.a(lib_a-impure.o)
 *fill*         0x000000000504e74e        0x2 
 .rodata.str1.4
                0x000000000504e750        0x3 c:/intelfpga_lite/18.1/nios2eds/bin/gnu/h-x86_64-mingw32/bin/../lib/gcc/nios2-elf/5.3.0/../../../../../H-x86_64-mingw32/nios2-elf/lib\libc.a(lib_a-perror.o)
 *fill*         0x000000000504e753        0x1 
 .rodata.str1.4
                0x000000000504e754        0x2 c:/intelfpga_lite/18.1/nios2eds/bin/gnu/h-x86_64-mingw32/bin/../lib/gcc/nios2-elf/5.3.0/../../../../../H-x86_64-mingw32/nios2-elf/lib\libc.a(lib_a-puts.o)
 *fill*         0x000000000504e756        0x2 
 .rodata.str1.4
                0x000000000504e758      0x6fd c:/intelfpga_lite/18.1/nios2eds/bin/gnu/h-x86_64-mingw32/bin/../lib/gcc/nios2-elf/5.3.0/../../../../../H-x86_64-mingw32/nios2-elf/lib\libc.a(lib_a-strerror.o)
                                        0x701 (size before relaxing)
 *fill*         0x000000000504ee55        0x3 
 .rodata.str1.4
                0x000000000504ee58       0x42 c:/intelfpga_lite/18.1/nios2eds/bin/gnu/h-x86_64-mingw32/bin/../lib/gcc/nios2-elf/5.3.0/../../../../../H-x86_64-mingw32/nios2-elf/lib\libc.a(lib_a-svfprintf.o)
 .rodata.zeroes.4389
                0x000000000504ee9a       0x10 c:/intelfpga_lite/18.1/nios2eds/bin/gnu/h-x86_64-mingw32/bin/../lib/gcc/nios2-elf/5.3.0/../../../../../H-x86_64-mingw32/nios2-elf/lib\libc.a(lib_a-svfprintf.o)
 .rodata.blanks.4388
                0x000000000504eeaa       0x10 c:/intelfpga_lite/18.1/nios2eds/bin/gnu/h-x86_64-mingw32/bin/../lib/gcc/nios2-elf/5.3.0/../../../../../H-x86_64-mingw32/nios2-elf/lib\libc.a(lib_a-svfprintf.o)
 .rodata.str1.4
                0x000000000504eeba       0x42 c:/intelfpga_lite/18.1/nios2eds/bin/gnu/h-x86_64-mingw32/bin/../lib/gcc/nios2-elf/5.3.0/../../../../../H-x86_64-mingw32/nios2-elf/lib\libc.a(lib_a-vfprintf.o)
 .rodata.zeroes.4404
                0x000000000504eeba       0x10 c:/intelfpga_lite/18.1/nios2eds/bin/gnu/h-x86_64-mingw32/bin/../lib/gcc/nios2-elf/5.3.0/../../../../../H-x86_64-mingw32/nios2-elf/lib\libc.a(lib_a-vfprintf.o)
 .rodata.blanks.4403
                0x000000000504eeca       0x10 c:/intelfpga_lite/18.1/nios2eds/bin/gnu/h-x86_64-mingw32/bin/../lib/gcc/nios2-elf/5.3.0/../../../../../H-x86_64-mingw32/nios2-elf/lib\libc.a(lib_a-vfprintf.o)
 *fill*         0x000000000504eeda        0x2 
 .rodata.str1.4
                0x000000000504eedc       0x10 c:/intelfpga_lite/18.1/nios2eds/bin/gnu/h-x86_64-mingw32/bin/../lib/gcc/nios2-elf/5.3.0/../../../../../H-x86_64-mingw32/nios2-elf/lib\libc.a(lib_a-dtoa.o)
                                         0x12 (size before relaxing)
 .rodata.str1.4
                0x000000000504eeec        0xc c:/intelfpga_lite/18.1/nios2eds/bin/gnu/h-x86_64-mingw32/bin/../lib/gcc/nios2-elf/5.3.0/../../../../../H-x86_64-mingw32/nios2-elf/lib\libc.a(lib_a-locale.o)
                                         0x12 (size before relaxing)
 .rodata.p05.2768
                0x000000000504eef8        0xc c:/intelfpga_lite/18.1/nios2eds/bin/gnu/h-x86_64-mingw32/bin/../lib/gcc/nios2-elf/5.3.0/../../../../../H-x86_64-mingw32/nios2-elf/lib\libc.a(lib_a-mprec.o)
 .rodata.__mprec_tinytens
                0x000000000504ef04       0x28 c:/intelfpga_lite/18.1/nios2eds/bin/gnu/h-x86_64-mingw32/bin/../lib/gcc/nios2-elf/5.3.0/../../../../../H-x86_64-mingw32/nios2-elf/lib\libc.a(lib_a-mprec.o)
                0x000000000504ef04                __mprec_tinytens
 .rodata.__mprec_bigtens
                0x000000000504ef2c       0x28 c:/intelfpga_lite/18.1/nios2eds/bin/gnu/h-x86_64-mingw32/bin/../lib/gcc/nios2-elf/5.3.0/../../../../../H-x86_64-mingw32/nios2-elf/lib\libc.a(lib_a-mprec.o)
                0x000000000504ef2c                __mprec_bigtens
 .rodata.__mprec_tens
                0x000000000504ef54       0xc8 c:/intelfpga_lite/18.1/nios2eds/bin/gnu/h-x86_64-mingw32/bin/../lib/gcc/nios2-elf/5.3.0/../../../../../H-x86_64-mingw32/nios2-elf/lib\libc.a(lib_a-mprec.o)
                0x000000000504ef54                __mprec_tens
 .rodata.str1.4
                0x000000000504f01c       0x2f c:/intelfpga_lite/18.1/nios2eds/bin/gnu/h-x86_64-mingw32/bin/../lib/gcc/nios2-elf/5.3.0/../../../../../H-x86_64-mingw32/nios2-elf/lib\libc.a(lib_a-svfiprintf.o)
 .rodata.zeroes.4333
                0x000000000504f01c       0x10 c:/intelfpga_lite/18.1/nios2eds/bin/gnu/h-x86_64-mingw32/bin/../lib/gcc/nios2-elf/5.3.0/../../../../../H-x86_64-mingw32/nios2-elf/lib\libc.a(lib_a-svfiprintf.o)
 .rodata.blanks.4332
                0x000000000504f02c       0x10 c:/intelfpga_lite/18.1/nios2eds/bin/gnu/h-x86_64-mingw32/bin/../lib/gcc/nios2-elf/5.3.0/../../../../../H-x86_64-mingw32/nios2-elf/lib\libc.a(lib_a-svfiprintf.o)
 .rodata.str1.4
                0x000000000504f03c       0x2f c:/intelfpga_lite/18.1/nios2eds/bin/gnu/h-x86_64-mingw32/bin/../lib/gcc/nios2-elf/5.3.0/../../../../../H-x86_64-mingw32/nios2-elf/lib\libc.a(lib_a-vfiprintf.o)
 .rodata.zeroes.4349
                0x000000000504f03c       0x10 c:/intelfpga_lite/18.1/nios2eds/bin/gnu/h-x86_64-mingw32/bin/../lib/gcc/nios2-elf/5.3.0/../../../../../H-x86_64-mingw32/nios2-elf/lib\libc.a(lib_a-vfiprintf.o)
 .rodata.blanks.4348
                0x000000000504f04c       0x10 c:/intelfpga_lite/18.1/nios2eds/bin/gnu/h-x86_64-mingw32/bin/../lib/gcc/nios2-elf/5.3.0/../../../../../H-x86_64-mingw32/nios2-elf/lib\libc.a(lib_a-vfiprintf.o)
 .rodata        0x000000000504f05c      0x100 c:/intelfpga_lite/18.1/nios2eds/bin/gnu/h-x86_64-mingw32/bin/../lib/gcc/nios2-elf/5.3.0\libgcc.a(_clz.o)
                0x000000000504f05c                __clz_tab
 .rodata        0x000000000504f15c        0xf ../FPGAEncrypt_bsp/\libucosii_bsp.a(alt_main.o)
 *fill*         0x000000000504f16b        0x1 
 .rodata        0x000000000504f16c      0x11e ../FPGAEncrypt_bsp/\libucosii_bsp.a(os_core.o)
                0x000000000504f16c                OSUnMapTbl
 *fill*         0x000000000504f28a        0x2 
 .rodata        0x000000000504f28c       0x8b ../FPGAEncrypt_bsp/\libucosii_bsp.a(alt_sys_init.o)
 *fill*         0x000000000504f317        0x1 
 .rodata        0x000000000504f318      0x1ed ../FPGAEncrypt_bsp/\libucosii_bsp.a(altera_msgdma.o)
 *fill*         0x000000000504f505        0x3 
 .rodata        0x000000000504f508      0x385 ../FPGAEncrypt_bsp/\libucosii_bsp.a(ins_tse_mac.o)
 *fill*         0x000000000504f88d        0x3 
 .rodata        0x000000000504f890       0xd7 ../FPGAEncrypt_bsp/\libucosii_bsp.a(ipnet.o)
 *fill*         0x000000000504f967        0x1 
 .rodata        0x000000000504f968       0xec ../FPGAEncrypt_bsp/\libucosii_bsp.a(ipstart.o)
 .rodata        0x000000000504fa54      0x54b ../FPGAEncrypt_bsp/\libucosii_bsp.a(igmp_cmn.o)
 *fill*         0x000000000504ff9f        0x1 
 .rodata        0x000000000504ffa0       0xb6 ../FPGAEncrypt_bsp/\libucosii_bsp.a(in_utils.o)
 *fill*         0x0000000005050056        0x2 
 .rodata        0x0000000005050058       0x34 ../FPGAEncrypt_bsp/\libucosii_bsp.a(netmain.o)
 .rodata        0x000000000505008c      0x1a8 ../FPGAEncrypt_bsp/\libucosii_bsp.a(tk_crnos.o)
 .rodata        0x0000000005050234        0x7 ../FPGAEncrypt_bsp/\libucosii_bsp.a(dhcpclnt.o)
 *fill*         0x000000000505023b        0x1 
 .rodata        0x000000000505023c      0x117 ../FPGAEncrypt_bsp/\libucosii_bsp.a(pktalloc.o)
 *fill*         0x0000000005050353        0x1 
 .rodata        0x0000000005050354       0x81 ../FPGAEncrypt_bsp/\libucosii_bsp.a(udp_open.o)
 *fill*         0x00000000050503d5        0x3 
 .rodata        0x00000000050503d8       0x2c ../FPGAEncrypt_bsp/\libucosii_bsp.a(brdutils.o)
 .rodata        0x0000000005050404      0x26a ../FPGAEncrypt_bsp/\libucosii_bsp.a(osportco.o)
 *fill*         0x000000000505066e        0x2 
 .rodata        0x0000000005050670       0x9f ../FPGAEncrypt_bsp/\libucosii_bsp.a(targnios.o)
 *fill*         0x000000000505070f        0x1 
 .rodata        0x0000000005050710       0x90 ../FPGAEncrypt_bsp/\libucosii_bsp.a(nptcp.o)
 .rodata        0x00000000050507a0        0x7 ../FPGAEncrypt_bsp/\libucosii_bsp.a(sockcall.o)
 *fill*         0x00000000050507a7        0x1 
 .rodata        0x00000000050507a8       0x4d ../FPGAEncrypt_bsp/\libucosii_bsp.a(socket.o)
 *fill*         0x00000000050507f5        0x3 
 .rodata        0x00000000050507f8       0x3f ../FPGAEncrypt_bsp/\libucosii_bsp.a(socket2.o)
 *fill*         0x0000000005050837        0x1 
 .rodata        0x0000000005050838       0x1e ../FPGAEncrypt_bsp/\libucosii_bsp.a(tcp_in.o)
 *fill*         0x0000000005050856        0x2 
 .rodata        0x0000000005050858       0x3d ../FPGAEncrypt_bsp/\libucosii_bsp.a(tcp_out.o)
 *fill*         0x0000000005050895        0x3 
 .rodata        0x0000000005050898       0x23 ../FPGAEncrypt_bsp/\libucosii_bsp.a(tcp_subr.o)
 *fill*         0x00000000050508bb        0x1 
 .rodata        0x00000000050508bc       0x2b ../FPGAEncrypt_bsp/\libucosii_bsp.a(tcp_usr.o)
 *fill*         0x00000000050508e7        0x1 
 .rodata        0x00000000050508e8        0xa ../FPGAEncrypt_bsp/\libucosii_bsp.a(alt_dev.o)
 *fill*         0x00000000050508f2        0x2 
 .rodata        0x00000000050508f4        0x2 ../FPGAEncrypt_bsp/\libucosii_bsp.a(os_cpu_c.o)
 *fill*         0x00000000050508f6        0x2 
 .rodata        0x00000000050508f8     0x1c66 ../FPGAEncrypt_bsp/\libucosii_bsp.a(altera_avalon_tse.o)
 *fill*         0x000000000505255e        0x2 
 .rodata        0x0000000005052560      0x1d1 ../FPGAEncrypt_bsp/\libucosii_bsp.a(allports.o)
 *fill*         0x0000000005052731        0x3 
 .rodata        0x0000000005052734       0x32 ../FPGAEncrypt_bsp/\libucosii_bsp.a(tk_misc.o)
 *fill*         0x0000000005052766        0x2 
 .rodata        0x0000000005052768       0x41 ../FPGAEncrypt_bsp/\libucosii_bsp.a(et_arp.o)
 *fill*         0x00000000050527a9        0x3 
 .rodata        0x00000000050527ac      0x1dc ../FPGAEncrypt_bsp/\libucosii_bsp.a(ip.o)
 .rodata        0x0000000005052988      0x155 ../FPGAEncrypt_bsp/\libucosii_bsp.a(ip_reasm.o)
 *fill*         0x0000000005052add        0x3 
 .rodata        0x0000000005052ae0      0x11d ../FPGAEncrypt_bsp/\libucosii_bsp.a(ipdemux.o)
 *fill*         0x0000000005052bfd        0x3 
 .rodata        0x0000000005052c00       0x31 ../FPGAEncrypt_bsp/\libucosii_bsp.a(ipport.o)
 *fill*         0x0000000005052c31        0x3 
 .rodata        0x0000000005052c34       0x22 ../FPGAEncrypt_bsp/\libucosii_bsp.a(ipraw.o)
 *fill*         0x0000000005052c56        0x2 
 .rodata        0x0000000005052c58       0x35 ../FPGAEncrypt_bsp/\libucosii_bsp.a(iproute.o)
 *fill*         0x0000000005052c8d        0x3 
 .rodata        0x0000000005052c90       0xe8 ../FPGAEncrypt_bsp/\libucosii_bsp.a(udp.o)
 .rodata        0x0000000005052d78      0x2ae ../FPGAEncrypt_bsp/\libucosii_bsp.a(u_mctest.o)
 *fill*         0x0000000005053026        0x2 
 .rodata        0x0000000005053028       0xf5 ../FPGAEncrypt_bsp/\libucosii_bsp.a(dhcsetup.o)
 *fill*         0x000000000505311d        0x3 
 .rodata        0x0000000005053120       0x93 ../FPGAEncrypt_bsp/\libucosii_bsp.a(parseip.o)
 *fill*         0x00000000050531b3        0x1 
 .rodata        0x00000000050531b4       0x31 ../FPGAEncrypt_bsp/\libucosii_bsp.a(vfsfiles.o)
 *fill*         0x00000000050531e5        0x3 
 .rodata        0x00000000050531e8      0x317 ../FPGAEncrypt_bsp/\libucosii_bsp.a(icmp.o)
 *(.rodata1)
                0x0000000005053500                . = ALIGN (0x4)
 *fill*         0x00000000050534ff        0x1 
                [!provide]                        PROVIDE (__ram_rodata_end, ABSOLUTE (.))
                [!provide]                        PROVIDE (__flash_rodata_start, LOADADDR (.rodata))

.rwdata         0x0000000005053500     0x2160
                [!provide]                        PROVIDE (__ram_rwdata_start, ABSOLUTE (.))
                0x0000000005053500                . = ALIGN (0x4)
 *(.got.plt)
 *(.got)
 *(.data1)
 *(.data .data.* .gnu.linkonce.d.*)
 .data          0x0000000005053500        0x0 ../FPGAEncrypt_bsp//obj/HAL/src/crt0.o
 .data          0x0000000005053500        0x0 obj/default/alt_error_handler.o
 .data          0x0000000005053500        0x0 obj/default/iniche_init.o
 .data          0x0000000005053500        0x0 obj/default/led.o
 .data          0x0000000005053500        0x0 obj/default/network_utilities.o
 .data          0x0000000005053500        0x0 obj/default/simple_socket_server.o
 .data          0x0000000005053500      0x130 obj/default/tse_my_system.o
                0x0000000005053500                tse_mac_device
 .data          0x0000000005053630        0x0 c:/intelfpga_lite/18.1/nios2eds/bin/gnu/h-x86_64-mingw32/bin/../lib/gcc/nios2-elf/5.3.0/../../../../../H-x86_64-mingw32/nios2-elf/lib\libc.a(lib_a-ctype_.o)
 .data          0x0000000005053630        0x0 c:/intelfpga_lite/18.1/nios2eds/bin/gnu/h-x86_64-mingw32/bin/../lib/gcc/nios2-elf/5.3.0/../../../../../H-x86_64-mingw32/nios2-elf/lib\libc.a(lib_a-fprintf.o)
 .data          0x0000000005053630        0x0 c:/intelfpga_lite/18.1/nios2eds/bin/gnu/h-x86_64-mingw32/bin/../lib/gcc/nios2-elf/5.3.0/../../../../../H-x86_64-mingw32/nios2-elf/lib\libc.a(lib_a-fwrite.o)
 .data          0x0000000005053630        0x0 c:/intelfpga_lite/18.1/nios2eds/bin/gnu/h-x86_64-mingw32/bin/../lib/gcc/nios2-elf/5.3.0/../../../../../H-x86_64-mingw32/nios2-elf/lib\libc.a(lib_a-getc.o)
 .data          0x0000000005053630        0x0 c:/intelfpga_lite/18.1/nios2eds/bin/gnu/h-x86_64-mingw32/bin/../lib/gcc/nios2-elf/5.3.0/../../../../../H-x86_64-mingw32/nios2-elf/lib\libc.a(lib_a-impure.o)
 .data.impure_data
                0x0000000005053630      0x424 c:/intelfpga_lite/18.1/nios2eds/bin/gnu/h-x86_64-mingw32/bin/../lib/gcc/nios2-elf/5.3.0/../../../../../H-x86_64-mingw32/nios2-elf/lib\libc.a(lib_a-impure.o)
 .data          0x0000000005053a54        0x0 c:/intelfpga_lite/18.1/nios2eds/bin/gnu/h-x86_64-mingw32/bin/../lib/gcc/nios2-elf/5.3.0/../../../../../H-x86_64-mingw32/nios2-elf/lib\libc.a(lib_a-memcpy.o)
 .data          0x0000000005053a54        0x0 c:/intelfpga_lite/18.1/nios2eds/bin/gnu/h-x86_64-mingw32/bin/../lib/gcc/nios2-elf/5.3.0/../../../../../H-x86_64-mingw32/nios2-elf/lib\libc.a(lib_a-memmove.o)
 .data          0x0000000005053a54        0x0 c:/intelfpga_lite/18.1/nios2eds/bin/gnu/h-x86_64-mingw32/bin/../lib/gcc/nios2-elf/5.3.0/../../../../../H-x86_64-mingw32/nios2-elf/lib\libc.a(lib_a-memset.o)
 .data          0x0000000005053a54        0x0 c:/intelfpga_lite/18.1/nios2eds/bin/gnu/h-x86_64-mingw32/bin/../lib/gcc/nios2-elf/5.3.0/../../../../../H-x86_64-mingw32/nios2-elf/lib\libc.a(lib_a-perror.o)
 .data          0x0000000005053a54        0x0 c:/intelfpga_lite/18.1/nios2eds/bin/gnu/h-x86_64-mingw32/bin/../lib/gcc/nios2-elf/5.3.0/../../../../../H-x86_64-mingw32/nios2-elf/lib\libc.a(lib_a-printf.o)
 .data          0x0000000005053a54        0x0 c:/intelfpga_lite/18.1/nios2eds/bin/gnu/h-x86_64-mingw32/bin/../lib/gcc/nios2-elf/5.3.0/../../../../../H-x86_64-mingw32/nios2-elf/lib\libc.a(lib_a-putc.o)
 .data          0x0000000005053a54        0x0 c:/intelfpga_lite/18.1/nios2eds/bin/gnu/h-x86_64-mingw32/bin/../lib/gcc/nios2-elf/5.3.0/../../../../../H-x86_64-mingw32/nios2-elf/lib\libc.a(lib_a-putchar.o)
 .data          0x0000000005053a54        0x0 c:/intelfpga_lite/18.1/nios2eds/bin/gnu/h-x86_64-mingw32/bin/../lib/gcc/nios2-elf/5.3.0/../../../../../H-x86_64-mingw32/nios2-elf/lib\libc.a(lib_a-puts.o)
 .data          0x0000000005053a54        0x0 c:/intelfpga_lite/18.1/nios2eds/bin/gnu/h-x86_64-mingw32/bin/../lib/gcc/nios2-elf/5.3.0/../../../../../H-x86_64-mingw32/nios2-elf/lib\libc.a(lib_a-rget.o)
 .data          0x0000000005053a54        0x0 c:/intelfpga_lite/18.1/nios2eds/bin/gnu/h-x86_64-mingw32/bin/../lib/gcc/nios2-elf/5.3.0/../../../../../H-x86_64-mingw32/nios2-elf/lib\libc.a(lib_a-sprintf.o)
 .data          0x0000000005053a54        0x0 c:/intelfpga_lite/18.1/nios2eds/bin/gnu/h-x86_64-mingw32/bin/../lib/gcc/nios2-elf/5.3.0/../../../../../H-x86_64-mingw32/nios2-elf/lib\libc.a(lib_a-strchr.o)
 .data          0x0000000005053a54        0x0 c:/intelfpga_lite/18.1/nios2eds/bin/gnu/h-x86_64-mingw32/bin/../lib/gcc/nios2-elf/5.3.0/../../../../../H-x86_64-mingw32/nios2-elf/lib\libc.a(lib_a-strerror.o)
 .data          0x0000000005053a54        0x0 c:/intelfpga_lite/18.1/nios2eds/bin/gnu/h-x86_64-mingw32/bin/../lib/gcc/nios2-elf/5.3.0/../../../../../H-x86_64-mingw32/nios2-elf/lib\libc.a(lib_a-strlen.o)
 .data          0x0000000005053a54        0x0 c:/intelfpga_lite/18.1/nios2eds/bin/gnu/h-x86_64-mingw32/bin/../lib/gcc/nios2-elf/5.3.0/../../../../../H-x86_64-mingw32/nios2-elf/lib\libc.a(lib_a-strstr.o)
 .data          0x0000000005053a54        0x0 c:/intelfpga_lite/18.1/nios2eds/bin/gnu/h-x86_64-mingw32/bin/../lib/gcc/nios2-elf/5.3.0/../../../../../H-x86_64-mingw32/nios2-elf/lib\libc.a(lib_a-svfprintf.o)
 .data          0x0000000005053a54        0x0 c:/intelfpga_lite/18.1/nios2eds/bin/gnu/h-x86_64-mingw32/bin/../lib/gcc/nios2-elf/5.3.0/../../../../../H-x86_64-mingw32/nios2-elf/lib\libc.a(lib_a-u_strerr.o)
 .data          0x0000000005053a54        0x0 c:/intelfpga_lite/18.1/nios2eds/bin/gnu/h-x86_64-mingw32/bin/../lib/gcc/nios2-elf/5.3.0/../../../../../H-x86_64-mingw32/nios2-elf/lib\libc.a(lib_a-vfprintf.o)
 .data          0x0000000005053a54        0x0 c:/intelfpga_lite/18.1/nios2eds/bin/gnu/h-x86_64-mingw32/bin/../lib/gcc/nios2-elf/5.3.0/../../../../../H-x86_64-mingw32/nios2-elf/lib\libc.a(lib_a-wbuf.o)
 .data          0x0000000005053a54        0x0 c:/intelfpga_lite/18.1/nios2eds/bin/gnu/h-x86_64-mingw32/bin/../lib/gcc/nios2-elf/5.3.0/../../../../../H-x86_64-mingw32/nios2-elf/lib\libc.a(lib_a-wsetup.o)
 .data          0x0000000005053a54        0x0 c:/intelfpga_lite/18.1/nios2eds/bin/gnu/h-x86_64-mingw32/bin/../lib/gcc/nios2-elf/5.3.0/../../../../../H-x86_64-mingw32/nios2-elf/lib\libc.a(lib_a-dtoa.o)
 .data          0x0000000005053a54        0x0 c:/intelfpga_lite/18.1/nios2eds/bin/gnu/h-x86_64-mingw32/bin/../lib/gcc/nios2-elf/5.3.0/../../../../../H-x86_64-mingw32/nios2-elf/lib\libc.a(lib_a-fflush.o)
 .data          0x0000000005053a54        0x0 c:/intelfpga_lite/18.1/nios2eds/bin/gnu/h-x86_64-mingw32/bin/../lib/gcc/nios2-elf/5.3.0/../../../../../H-x86_64-mingw32/nios2-elf/lib\libc.a(lib_a-findfp.o)
 .data          0x0000000005053a54        0x0 c:/intelfpga_lite/18.1/nios2eds/bin/gnu/h-x86_64-mingw32/bin/../lib/gcc/nios2-elf/5.3.0/../../../../../H-x86_64-mingw32/nios2-elf/lib\libc.a(lib_a-fputc.o)
 .data          0x0000000005053a54        0x0 c:/intelfpga_lite/18.1/nios2eds/bin/gnu/h-x86_64-mingw32/bin/../lib/gcc/nios2-elf/5.3.0/../../../../../H-x86_64-mingw32/nios2-elf/lib\libc.a(lib_a-fputs.o)
 .data          0x0000000005053a54        0x0 c:/intelfpga_lite/18.1/nios2eds/bin/gnu/h-x86_64-mingw32/bin/../lib/gcc/nios2-elf/5.3.0/../../../../../H-x86_64-mingw32/nios2-elf/lib\libc.a(lib_a-freer.o)
 .data          0x0000000005053a54        0x0 c:/intelfpga_lite/18.1/nios2eds/bin/gnu/h-x86_64-mingw32/bin/../lib/gcc/nios2-elf/5.3.0/../../../../../H-x86_64-mingw32/nios2-elf/lib\libc.a(lib_a-fvwrite.o)
 .data          0x0000000005053a54        0x0 c:/intelfpga_lite/18.1/nios2eds/bin/gnu/h-x86_64-mingw32/bin/../lib/gcc/nios2-elf/5.3.0/../../../../../H-x86_64-mingw32/nios2-elf/lib\libc.a(lib_a-fwalk.o)
 .data          0x0000000005053a54        0x0 c:/intelfpga_lite/18.1/nios2eds/bin/gnu/h-x86_64-mingw32/bin/../lib/gcc/nios2-elf/5.3.0/../../../../../H-x86_64-mingw32/nios2-elf/lib\libc.a(lib_a-locale.o)
 .data.lc_message_charset
                0x0000000005053a54       0x20 c:/intelfpga_lite/18.1/nios2eds/bin/gnu/h-x86_64-mingw32/bin/../lib/gcc/nios2-elf/5.3.0/../../../../../H-x86_64-mingw32/nios2-elf/lib\libc.a(lib_a-locale.o)
 .data.lc_ctype_charset
                0x0000000005053a74       0x20 c:/intelfpga_lite/18.1/nios2eds/bin/gnu/h-x86_64-mingw32/bin/../lib/gcc/nios2-elf/5.3.0/../../../../../H-x86_64-mingw32/nios2-elf/lib\libc.a(lib_a-locale.o)
 .data.lconv    0x0000000005053a94       0x38 c:/intelfpga_lite/18.1/nios2eds/bin/gnu/h-x86_64-mingw32/bin/../lib/gcc/nios2-elf/5.3.0/../../../../../H-x86_64-mingw32/nios2-elf/lib\libc.a(lib_a-locale.o)
 .data          0x0000000005053acc        0x0 c:/intelfpga_lite/18.1/nios2eds/bin/gnu/h-x86_64-mingw32/bin/../lib/gcc/nios2-elf/5.3.0/../../../../../H-x86_64-mingw32/nios2-elf/lib\libc.a(lib_a-makebuf.o)
 .data          0x0000000005053acc        0x0 c:/intelfpga_lite/18.1/nios2eds/bin/gnu/h-x86_64-mingw32/bin/../lib/gcc/nios2-elf/5.3.0/../../../../../H-x86_64-mingw32/nios2-elf/lib\libc.a(lib_a-mallocr.o)
 .data.__malloc_av_
                0x0000000005053acc      0x408 c:/intelfpga_lite/18.1/nios2eds/bin/gnu/h-x86_64-mingw32/bin/../lib/gcc/nios2-elf/5.3.0/../../../../../H-x86_64-mingw32/nios2-elf/lib\libc.a(lib_a-mallocr.o)
                0x0000000005053acc                __malloc_av_
 .data          0x0000000005053ed4        0x0 c:/intelfpga_lite/18.1/nios2eds/bin/gnu/h-x86_64-mingw32/bin/../lib/gcc/nios2-elf/5.3.0/../../../../../H-x86_64-mingw32/nios2-elf/lib\libc.a(lib_a-memchr.o)
 .data          0x0000000005053ed4        0x0 c:/intelfpga_lite/18.1/nios2eds/bin/gnu/h-x86_64-mingw32/bin/../lib/gcc/nios2-elf/5.3.0/../../../../../H-x86_64-mingw32/nios2-elf/lib\libc.a(lib_a-memcmp.o)
 .data          0x0000000005053ed4        0x0 c:/intelfpga_lite/18.1/nios2eds/bin/gnu/h-x86_64-mingw32/bin/../lib/gcc/nios2-elf/5.3.0/../../../../../H-x86_64-mingw32/nios2-elf/lib\libc.a(lib_a-mprec.o)
 .data          0x0000000005053ed4        0x0 c:/intelfpga_lite/18.1/nios2eds/bin/gnu/h-x86_64-mingw32/bin/../lib/gcc/nios2-elf/5.3.0/../../../../../H-x86_64-mingw32/nios2-elf/lib\libc.a(lib_a-reallocr.o)
 .data          0x0000000005053ed4        0x0 c:/intelfpga_lite/18.1/nios2eds/bin/gnu/h-x86_64-mingw32/bin/../lib/gcc/nios2-elf/5.3.0/../../../../../H-x86_64-mingw32/nios2-elf/lib\libc.a(lib_a-refill.o)
 .data          0x0000000005053ed4        0x0 c:/intelfpga_lite/18.1/nios2eds/bin/gnu/h-x86_64-mingw32/bin/../lib/gcc/nios2-elf/5.3.0/../../../../../H-x86_64-mingw32/nios2-elf/lib\libc.a(lib_a-s_fpclassify.o)
 .data          0x0000000005053ed4        0x0 c:/intelfpga_lite/18.1/nios2eds/bin/gnu/h-x86_64-mingw32/bin/../lib/gcc/nios2-elf/5.3.0/../../../../../H-x86_64-mingw32/nios2-elf/lib\libc.a(lib_a-sbrkr.o)
 .data          0x0000000005053ed4        0x0 c:/intelfpga_lite/18.1/nios2eds/bin/gnu/h-x86_64-mingw32/bin/../lib/gcc/nios2-elf/5.3.0/../../../../../H-x86_64-mingw32/nios2-elf/lib\libc.a(lib_a-stdio.o)
 .data          0x0000000005053ed4        0x0 c:/intelfpga_lite/18.1/nios2eds/bin/gnu/h-x86_64-mingw32/bin/../lib/gcc/nios2-elf/5.3.0/../../../../../H-x86_64-mingw32/nios2-elf/lib\libc.a(lib_a-strcmp.o)
 .data          0x0000000005053ed4        0x0 c:/intelfpga_lite/18.1/nios2eds/bin/gnu/h-x86_64-mingw32/bin/../lib/gcc/nios2-elf/5.3.0/../../../../../H-x86_64-mingw32/nios2-elf/lib\libc.a(lib_a-svfiprintf.o)
 .data          0x0000000005053ed4        0x0 c:/intelfpga_lite/18.1/nios2eds/bin/gnu/h-x86_64-mingw32/bin/../lib/gcc/nios2-elf/5.3.0/../../../../../H-x86_64-mingw32/nios2-elf/lib\libc.a(lib_a-vfiprintf.o)
 .data          0x0000000005053ed4        0x0 c:/intelfpga_lite/18.1/nios2eds/bin/gnu/h-x86_64-mingw32/bin/../lib/gcc/nios2-elf/5.3.0/../../../../../H-x86_64-mingw32/nios2-elf/lib\libc.a(lib_a-writer.o)
 .data          0x0000000005053ed4        0x0 c:/intelfpga_lite/18.1/nios2eds/bin/gnu/h-x86_64-mingw32/bin/../lib/gcc/nios2-elf/5.3.0/../../../../../H-x86_64-mingw32/nios2-elf/lib\libc.a(closer.o)
 .data          0x0000000005053ed4        0x0 c:/intelfpga_lite/18.1/nios2eds/bin/gnu/h-x86_64-mingw32/bin/../lib/gcc/nios2-elf/5.3.0/../../../../../H-x86_64-mingw32/nios2-elf/lib\libc.a(lib_a-callocr.o)
 .data          0x0000000005053ed4        0x0 c:/intelfpga_lite/18.1/nios2eds/bin/gnu/h-x86_64-mingw32/bin/../lib/gcc/nios2-elf/5.3.0/../../../../../H-x86_64-mingw32/nios2-elf/lib\libc.a(lib_a-fclose.o)
 .data          0x0000000005053ed4        0x0 c:/intelfpga_lite/18.1/nios2eds/bin/gnu/h-x86_64-mingw32/bin/../lib/gcc/nios2-elf/5.3.0/../../../../../H-x86_64-mingw32/nios2-elf/lib\libc.a(lib_a-fputwc.o)
 .data          0x0000000005053ed4        0x0 c:/intelfpga_lite/18.1/nios2eds/bin/gnu/h-x86_64-mingw32/bin/../lib/gcc/nios2-elf/5.3.0/../../../../../H-x86_64-mingw32/nios2-elf/lib\libc.a(lib_a-fstatr.o)
 .data          0x0000000005053ed4        0x0 c:/intelfpga_lite/18.1/nios2eds/bin/gnu/h-x86_64-mingw32/bin/../lib/gcc/nios2-elf/5.3.0/../../../../../H-x86_64-mingw32/nios2-elf/lib\libc.a(lib_a-int_errno.o)
 .data          0x0000000005053ed4        0x0 c:/intelfpga_lite/18.1/nios2eds/bin/gnu/h-x86_64-mingw32/bin/../lib/gcc/nios2-elf/5.3.0/../../../../../H-x86_64-mingw32/nios2-elf/lib\libc.a(lib_a-isattyr.o)
 .data          0x0000000005053ed4        0x0 c:/intelfpga_lite/18.1/nios2eds/bin/gnu/h-x86_64-mingw32/bin/../lib/gcc/nios2-elf/5.3.0/../../../../../H-x86_64-mingw32/nios2-elf/lib\libc.a(lib_a-lseekr.o)
 .data          0x0000000005053ed4        0x0 c:/intelfpga_lite/18.1/nios2eds/bin/gnu/h-x86_64-mingw32/bin/../lib/gcc/nios2-elf/5.3.0/../../../../../H-x86_64-mingw32/nios2-elf/lib\libc.a(lib_a-readr.o)
 .data          0x0000000005053ed4        0x0 c:/intelfpga_lite/18.1/nios2eds/bin/gnu/h-x86_64-mingw32/bin/../lib/gcc/nios2-elf/5.3.0/../../../../../H-x86_64-mingw32/nios2-elf/lib\libc.a(lib_a-wcrtomb.o)
 .data          0x0000000005053ed4        0x0 c:/intelfpga_lite/18.1/nios2eds/bin/gnu/h-x86_64-mingw32/bin/../lib/gcc/nios2-elf/5.3.0/../../../../../H-x86_64-mingw32/nios2-elf/lib\libc.a(lib_a-wctomb_r.o)
 .data          0x0000000005053ed4        0x0 c:/intelfpga_lite/18.1/nios2eds/bin/gnu/h-x86_64-mingw32/bin/../lib/gcc/nios2-elf/5.3.0\libgcc.a(_udivdi3.o)
 .data          0x0000000005053ed4        0x0 c:/intelfpga_lite/18.1/nios2eds/bin/gnu/h-x86_64-mingw32/bin/../lib/gcc/nios2-elf/5.3.0\libgcc.a(_umoddi3.o)
 .data          0x0000000005053ed4        0x0 c:/intelfpga_lite/18.1/nios2eds/bin/gnu/h-x86_64-mingw32/bin/../lib/gcc/nios2-elf/5.3.0\libgcc.a(lib2-divmod.o)
 .data          0x0000000005053ed4        0x0 c:/intelfpga_lite/18.1/nios2eds/bin/gnu/h-x86_64-mingw32/bin/../lib/gcc/nios2-elf/5.3.0\libgcc.a(adddf3.o)
 .data          0x0000000005053ed4        0x0 c:/intelfpga_lite/18.1/nios2eds/bin/gnu/h-x86_64-mingw32/bin/../lib/gcc/nios2-elf/5.3.0\libgcc.a(divdf3.o)
 .data          0x0000000005053ed4        0x0 c:/intelfpga_lite/18.1/nios2eds/bin/gnu/h-x86_64-mingw32/bin/../lib/gcc/nios2-elf/5.3.0\libgcc.a(eqdf2.o)
 .data          0x0000000005053ed4        0x0 c:/intelfpga_lite/18.1/nios2eds/bin/gnu/h-x86_64-mingw32/bin/../lib/gcc/nios2-elf/5.3.0\libgcc.a(gedf2.o)
 .data          0x0000000005053ed4        0x0 c:/intelfpga_lite/18.1/nios2eds/bin/gnu/h-x86_64-mingw32/bin/../lib/gcc/nios2-elf/5.3.0\libgcc.a(ledf2.o)
 .data          0x0000000005053ed4        0x0 c:/intelfpga_lite/18.1/nios2eds/bin/gnu/h-x86_64-mingw32/bin/../lib/gcc/nios2-elf/5.3.0\libgcc.a(muldf3.o)
 .data          0x0000000005053ed4        0x0 c:/intelfpga_lite/18.1/nios2eds/bin/gnu/h-x86_64-mingw32/bin/../lib/gcc/nios2-elf/5.3.0\libgcc.a(subdf3.o)
 .data          0x0000000005053ed4        0x0 c:/intelfpga_lite/18.1/nios2eds/bin/gnu/h-x86_64-mingw32/bin/../lib/gcc/nios2-elf/5.3.0\libgcc.a(fixdfsi.o)
 .data          0x0000000005053ed4        0x0 c:/intelfpga_lite/18.1/nios2eds/bin/gnu/h-x86_64-mingw32/bin/../lib/gcc/nios2-elf/5.3.0\libgcc.a(floatsidf.o)
 .data          0x0000000005053ed4        0x0 c:/intelfpga_lite/18.1/nios2eds/bin/gnu/h-x86_64-mingw32/bin/../lib/gcc/nios2-elf/5.3.0\libgcc.a(floatunsidf.o)
 .data          0x0000000005053ed4        0x0 c:/intelfpga_lite/18.1/nios2eds/bin/gnu/h-x86_64-mingw32/bin/../lib/gcc/nios2-elf/5.3.0\libgcc.a(_clz.o)
 .data          0x0000000005053ed4        0x0 c:/intelfpga_lite/18.1/nios2eds/bin/gnu/h-x86_64-mingw32/bin/../lib/gcc/nios2-elf/5.3.0\libgcc.a(_clzsi2.o)
 .data          0x0000000005053ed4        0x0 ../FPGAEncrypt_bsp/\libucosii_bsp.a(alt_fstat.o)
 .data          0x0000000005053ed4        0x0 ../FPGAEncrypt_bsp/\libucosii_bsp.a(alt_isatty.o)
 .data          0x0000000005053ed4        0x0 ../FPGAEncrypt_bsp/\libucosii_bsp.a(alt_lseek.o)
 .data          0x0000000005053ed4        0x0 ../FPGAEncrypt_bsp/\libucosii_bsp.a(alt_main.o)
 .data          0x0000000005053ed4        0x0 ../FPGAEncrypt_bsp/\libucosii_bsp.a(alt_sbrk.o)
 .data          0x0000000005053ed4        0x0 ../FPGAEncrypt_bsp/\libucosii_bsp.a(alt_env_lock.o)
 .data          0x0000000005053ed4        0x0 ../FPGAEncrypt_bsp/\libucosii_bsp.a(alt_malloc_lock.o)
 .data          0x0000000005053ed4        0x0 ../FPGAEncrypt_bsp/\libucosii_bsp.a(os_core.o)
 .data          0x0000000005053ed4        0x0 ../FPGAEncrypt_bsp/\libucosii_bsp.a(os_dbg.o)
 .data          0x0000000005053ed4        0x0 ../FPGAEncrypt_bsp/\libucosii_bsp.a(os_flag.o)
 .data          0x0000000005053ed4        0x0 ../FPGAEncrypt_bsp/\libucosii_bsp.a(os_mem.o)
 .data          0x0000000005053ed4        0x0 ../FPGAEncrypt_bsp/\libucosii_bsp.a(os_q.o)
 .data          0x0000000005053ed4        0x0 ../FPGAEncrypt_bsp/\libucosii_bsp.a(os_sem.o)
 .data          0x0000000005053ed4        0x0 ../FPGAEncrypt_bsp/\libucosii_bsp.a(os_task.o)
 .data          0x0000000005053ed4        0x0 ../FPGAEncrypt_bsp/\libucosii_bsp.a(os_time.o)
 *fill*         0x0000000005053ed4        0xc 
 .data          0x0000000005053ee0     0x125c ../FPGAEncrypt_bsp/\libucosii_bsp.a(alt_sys_init.o)
 .data          0x000000000505513c        0x0 ../FPGAEncrypt_bsp/\libucosii_bsp.a(altera_avalon_jtag_uart_fd.o)
 .data          0x000000000505513c        0x0 ../FPGAEncrypt_bsp/\libucosii_bsp.a(altera_avalon_jtag_uart_init.o)
 .data          0x000000000505513c        0x0 ../FPGAEncrypt_bsp/\libucosii_bsp.a(altera_avalon_jtag_uart_ioctl.o)
 .data          0x000000000505513c        0x0 ../FPGAEncrypt_bsp/\libucosii_bsp.a(altera_avalon_jtag_uart_read.o)
 .data          0x000000000505513c        0x0 ../FPGAEncrypt_bsp/\libucosii_bsp.a(altera_avalon_jtag_uart_write.o)
 .data          0x000000000505513c        0x0 ../FPGAEncrypt_bsp/\libucosii_bsp.a(altera_avalon_timer_sc.o)
 .data          0x000000000505513c        0x0 ../FPGAEncrypt_bsp/\libucosii_bsp.a(altera_epcq_controller2.o)
 .data          0x000000000505513c        0x0 ../FPGAEncrypt_bsp/\libucosii_bsp.a(altera_msgdma.o)
 .data          0x000000000505513c        0x0 ../FPGAEncrypt_bsp/\libucosii_bsp.a(altera_remote_update.o)
 .data          0x000000000505513c        0x0 ../FPGAEncrypt_bsp/\libucosii_bsp.a(ins_tse_mac.o)
 .data          0x000000000505513c        0x0 ../FPGAEncrypt_bsp/\libucosii_bsp.a(alt_iniche_close.o)
 .data          0x000000000505513c        0x0 ../FPGAEncrypt_bsp/\libucosii_bsp.a(alt_iniche_dev.o)
 .data          0x000000000505513c        0x0 ../FPGAEncrypt_bsp/\libucosii_bsp.a(alt_iniche_read.o)
 .data          0x000000000505513c        0x0 ../FPGAEncrypt_bsp/\libucosii_bsp.a(alt_iniche_write.o)
 .data          0x000000000505513c        0x0 ../FPGAEncrypt_bsp/\libucosii_bsp.a(ipnet.o)
 .data          0x000000000505513c        0x0 ../FPGAEncrypt_bsp/\libucosii_bsp.a(ipstart.o)
 .data          0x000000000505513c        0x0 ../FPGAEncrypt_bsp/\libucosii_bsp.a(igmp_cmn.o)
 .data          0x000000000505513c        0x0 ../FPGAEncrypt_bsp/\libucosii_bsp.a(bsdsock.o)
 .data          0x000000000505513c        0x0 ../FPGAEncrypt_bsp/\libucosii_bsp.a(cksum.o)
 .data          0x000000000505513c        0x0 ../FPGAEncrypt_bsp/\libucosii_bsp.a(in_utils.o)
 .data          0x000000000505513c       0x30 ../FPGAEncrypt_bsp/\libucosii_bsp.a(netmain.o)
                0x000000000505513c                nettasks
 .data          0x000000000505516c        0x0 ../FPGAEncrypt_bsp/\libucosii_bsp.a(tk_crnos.o)
 .data          0x000000000505516c        0x0 ../FPGAEncrypt_bsp/\libucosii_bsp.a(dhcpclnt.o)
 .data          0x000000000505516c        0x0 ../FPGAEncrypt_bsp/\libucosii_bsp.a(dhcputil.o)
 .data          0x000000000505516c        0x0 ../FPGAEncrypt_bsp/\libucosii_bsp.a(pktalloc.o)
 .data          0x000000000505516c        0x0 ../FPGAEncrypt_bsp/\libucosii_bsp.a(q.o)
 .data          0x000000000505516c        0x0 ../FPGAEncrypt_bsp/\libucosii_bsp.a(udp_open.o)
 .data          0x000000000505516c        0x0 ../FPGAEncrypt_bsp/\libucosii_bsp.a(asm_cksum.o)
 .data          0x000000000505516c        0x0 ../FPGAEncrypt_bsp/\libucosii_bsp.a(brdutils.o)
 .data          0x000000000505516c        0x0 ../FPGAEncrypt_bsp/\libucosii_bsp.a(osportco.o)
 .data          0x000000000505516c        0x0 ../FPGAEncrypt_bsp/\libucosii_bsp.a(targnios.o)
 .data          0x000000000505516c       0x48 ../FPGAEncrypt_bsp/\libucosii_bsp.a(nptcp.o)
                0x000000000505516c                tcp_protosw
                0x0000000005055184                udp_protosw
                0x000000000505519c                rawip_protosw
 .data          0x00000000050551b4        0x0 ../FPGAEncrypt_bsp/\libucosii_bsp.a(rawsock.o)
 .data          0x00000000050551b4        0x0 ../FPGAEncrypt_bsp/\libucosii_bsp.a(sockcall.o)
 .data          0x00000000050551b4        0x0 ../FPGAEncrypt_bsp/\libucosii_bsp.a(socket.o)
 .data          0x00000000050551b4        0x0 ../FPGAEncrypt_bsp/\libucosii_bsp.a(socket2.o)
 .data          0x00000000050551b4        0x0 ../FPGAEncrypt_bsp/\libucosii_bsp.a(soselect.o)
 .data          0x00000000050551b4        0x0 ../FPGAEncrypt_bsp/\libucosii_bsp.a(tcp_in.o)
 .data          0x00000000050551b4        0xb ../FPGAEncrypt_bsp/\libucosii_bsp.a(tcp_out.o)
                0x00000000050551b4                tcp_outflags
 .data          0x00000000050551bf        0x0 ../FPGAEncrypt_bsp/\libucosii_bsp.a(tcp_subr.o)
 .data          0x00000000050551bf        0xd ../FPGAEncrypt_bsp/\libucosii_bsp.a(tcp_timr.o)
                0x00000000050551bf                tcp_backoff
 .data          0x00000000050551cc        0x0 ../FPGAEncrypt_bsp/\libucosii_bsp.a(tcp_usr.o)
 .data          0x00000000050551cc        0x0 ../FPGAEncrypt_bsp/\libucosii_bsp.a(tcpport.o)
 .data          0x00000000050551cc        0x0 ../FPGAEncrypt_bsp/\libucosii_bsp.a(udpsock.o)
 .data          0x00000000050551cc        0x0 ../FPGAEncrypt_bsp/\libucosii_bsp.a(alt_alarm_start.o)
 .data          0x00000000050551cc        0x0 ../FPGAEncrypt_bsp/\libucosii_bsp.a(alt_busy_sleep.o)
 .data          0x00000000050551cc        0x0 ../FPGAEncrypt_bsp/\libucosii_bsp.a(alt_close.o)
 .data          0x00000000050551cc        0x0 ../FPGAEncrypt_bsp/\libucosii_bsp.a(alt_dcache_flush.o)
 .data          0x00000000050551cc      0x1a8 ../FPGAEncrypt_bsp/\libucosii_bsp.a(alt_dev.o)
                0x00000000050551cc                alt_dev_null
                0x00000000050551f4                alt_fd_list
 .data          0x0000000005055374        0x0 ../FPGAEncrypt_bsp/\libucosii_bsp.a(alt_dev_llist_insert.o)
 .data          0x0000000005055374        0x0 ../FPGAEncrypt_bsp/\libucosii_bsp.a(alt_do_ctors.o)
 .data          0x0000000005055374        0x0 ../FPGAEncrypt_bsp/\libucosii_bsp.a(alt_do_dtors.o)
 .data          0x0000000005055374        0x0 ../FPGAEncrypt_bsp/\libucosii_bsp.a(alt_errno.o)
 .data          0x0000000005055374        0x0 ../FPGAEncrypt_bsp/\libucosii_bsp.a(alt_find_dev.o)
 .data          0x0000000005055374        0x0 ../FPGAEncrypt_bsp/\libucosii_bsp.a(alt_flash_dev.o)
 .data          0x0000000005055374        0x0 ../FPGAEncrypt_bsp/\libucosii_bsp.a(alt_iic.o)
 .data          0x0000000005055374        0x0 ../FPGAEncrypt_bsp/\libucosii_bsp.a(alt_iic_isr_register.o)
 .data          0x0000000005055374        0x0 ../FPGAEncrypt_bsp/\libucosii_bsp.a(alt_io_redirect.o)
 .data          0x0000000005055374        0x0 ../FPGAEncrypt_bsp/\libucosii_bsp.a(alt_irq_entry.o)
 .data          0x0000000005055374        0x0 ../FPGAEncrypt_bsp/\libucosii_bsp.a(alt_irq_handler.o)
 .data          0x0000000005055374        0x0 ../FPGAEncrypt_bsp/\libucosii_bsp.a(alt_irq_vars.o)
 .data          0x0000000005055374        0x0 ../FPGAEncrypt_bsp/\libucosii_bsp.a(alt_open.o)
 .data          0x0000000005055374        0x0 ../FPGAEncrypt_bsp/\libucosii_bsp.a(alt_printf.o)
 .data          0x0000000005055374        0x0 ../FPGAEncrypt_bsp/\libucosii_bsp.a(alt_putchar.o)
 .data          0x0000000005055374        0x0 ../FPGAEncrypt_bsp/\libucosii_bsp.a(alt_read.o)
 .data          0x0000000005055374        0x0 ../FPGAEncrypt_bsp/\libucosii_bsp.a(alt_release_fd.o)
 .data          0x0000000005055374        0x0 ../FPGAEncrypt_bsp/\libucosii_bsp.a(alt_remap_cached.o)
 .data          0x0000000005055374        0x0 ../FPGAEncrypt_bsp/\libucosii_bsp.a(alt_tick.o)
 .data          0x0000000005055374        0x0 ../FPGAEncrypt_bsp/\libucosii_bsp.a(alt_uncached_free.o)
 .data          0x0000000005055374        0x0 ../FPGAEncrypt_bsp/\libucosii_bsp.a(alt_uncached_malloc.o)
 .data          0x0000000005055374        0x0 ../FPGAEncrypt_bsp/\libucosii_bsp.a(alt_write.o)
 .data          0x0000000005055374        0x0 ../FPGAEncrypt_bsp/\libucosii_bsp.a(altera_nios2_gen2_irq.o)
 .data          0x0000000005055374        0x0 ../FPGAEncrypt_bsp/\libucosii_bsp.a(os_cpu_a.o)
 .data          0x0000000005055374        0x0 ../FPGAEncrypt_bsp/\libucosii_bsp.a(os_cpu_c.o)
 .data          0x0000000005055374        0x0 ../FPGAEncrypt_bsp/\libucosii_bsp.a(altera_avalon_tse.o)
 .data          0x0000000005055374       0x18 ../FPGAEncrypt_bsp/\libucosii_bsp.a(allports.o)
                0x0000000005055374                icmpdu_types
 .data          0x000000000505538c        0x0 ../FPGAEncrypt_bsp/\libucosii_bsp.a(timeouts.o)
 .data          0x000000000505538c        0x0 ../FPGAEncrypt_bsp/\libucosii_bsp.a(tk_misc.o)
 .data          0x000000000505538c        0x0 ../FPGAEncrypt_bsp/\libucosii_bsp.a(alt_iniche_fcntl.o)
 .data          0x000000000505538c        0x0 ../FPGAEncrypt_bsp/\libucosii_bsp.a(et_arp.o)
 .data          0x000000000505538c        0x0 ../FPGAEncrypt_bsp/\libucosii_bsp.a(iface.o)
 .data          0x000000000505538c        0x0 ../FPGAEncrypt_bsp/\libucosii_bsp.a(ip.o)
 .data          0x000000000505538c        0x0 ../FPGAEncrypt_bsp/\libucosii_bsp.a(ip_reasm.o)
 .data          0x000000000505538c        0x0 ../FPGAEncrypt_bsp/\libucosii_bsp.a(ipdemux.o)
 .data          0x000000000505538c        0x0 ../FPGAEncrypt_bsp/\libucosii_bsp.a(ipmc.o)
 .data          0x000000000505538c        0x0 ../FPGAEncrypt_bsp/\libucosii_bsp.a(ipport.o)
 .data          0x000000000505538c        0x0 ../FPGAEncrypt_bsp/\libucosii_bsp.a(ipraw.o)
 .data          0x000000000505538c        0x9 ../FPGAEncrypt_bsp/\libucosii_bsp.a(iproute.o)
                0x000000000505538c                rtp_priority
 .data          0x0000000005055395        0x0 ../FPGAEncrypt_bsp/\libucosii_bsp.a(udp.o)
 .data          0x0000000005055395        0x0 ../FPGAEncrypt_bsp/\libucosii_bsp.a(igmp.o)
 .data          0x0000000005055395        0x0 ../FPGAEncrypt_bsp/\libucosii_bsp.a(igmp2.o)
 .data          0x0000000005055395        0x0 ../FPGAEncrypt_bsp/\libucosii_bsp.a(ipopt.o)
 .data          0x0000000005055395        0x0 ../FPGAEncrypt_bsp/\libucosii_bsp.a(u_mctest.o)
 .data          0x0000000005055395        0x0 ../FPGAEncrypt_bsp/\libucosii_bsp.a(dhcsetup.o)
 *fill*         0x0000000005055395        0x3 
 .data          0x0000000005055398       0xd4 ../FPGAEncrypt_bsp/\libucosii_bsp.a(memdev.o)
                0x0000000005055398                mdio
                0x00000000050553bc                mdlist
 .data          0x000000000505546c        0x0 ../FPGAEncrypt_bsp/\libucosii_bsp.a(parseip.o)
 .data          0x000000000505546c        0x0 ../FPGAEncrypt_bsp/\libucosii_bsp.a(tcpcksum.o)
 .data          0x000000000505546c        0x0 ../FPGAEncrypt_bsp/\libucosii_bsp.a(in_pcb.o)
 .data          0x000000000505546c       0x80 ../FPGAEncrypt_bsp/\libucosii_bsp.a(vfsfiles.o)
                0x000000000505546c                vfs_root_path
 .data          0x00000000050554ec        0x0 ../FPGAEncrypt_bsp/\libucosii_bsp.a(vfsport.o)
 .data          0x00000000050554ec        0x0 ../FPGAEncrypt_bsp/\libucosii_bsp.a(alt_exception_entry.o)
 .data          0x00000000050554ec        0x0 ../FPGAEncrypt_bsp/\libucosii_bsp.a(alt_fcntl.o)
 .data          0x00000000050554ec        0x0 ../FPGAEncrypt_bsp/\libucosii_bsp.a(alt_find_file.o)
 .data          0x00000000050554ec        0x0 ../FPGAEncrypt_bsp/\libucosii_bsp.a(alt_get_fd.o)
 .data          0x00000000050554ec        0x0 ../FPGAEncrypt_bsp/\libucosii_bsp.a(alt_instruction_exception_entry.o)
 .data          0x00000000050554ec        0x0 ../FPGAEncrypt_bsp/\libucosii_bsp.a(alt_usleep.o)
 .data          0x00000000050554ec       0x18 ../FPGAEncrypt_bsp/\libucosii_bsp.a(icmp.o)
 .data          0x0000000005055504        0x0 c:/intelfpga_lite/18.1/nios2eds/bin/gnu/h-x86_64-mingw32/bin/../lib/gcc/nios2-elf/5.3.0/../../../../../H-x86_64-mingw32/nios2-elf/lib\libc.a(lib_a-atexit.o)
 .data          0x0000000005055504        0x0 c:/intelfpga_lite/18.1/nios2eds/bin/gnu/h-x86_64-mingw32/bin/../lib/gcc/nios2-elf/5.3.0/../../../../../H-x86_64-mingw32/nios2-elf/lib\libc.a(lib_a-atoi.o)
 .data          0x0000000005055504        0x0 c:/intelfpga_lite/18.1/nios2eds/bin/gnu/h-x86_64-mingw32/bin/../lib/gcc/nios2-elf/5.3.0/../../../../../H-x86_64-mingw32/nios2-elf/lib\libc.a(lib_a-exit.o)
 .data          0x0000000005055504        0x0 c:/intelfpga_lite/18.1/nios2eds/bin/gnu/h-x86_64-mingw32/bin/../lib/gcc/nios2-elf/5.3.0/../../../../../H-x86_64-mingw32/nios2-elf/lib\libc.a(lib_a-malign.o)
 .data          0x0000000005055504        0x0 c:/intelfpga_lite/18.1/nios2eds/bin/gnu/h-x86_64-mingw32/bin/../lib/gcc/nios2-elf/5.3.0/../../../../../H-x86_64-mingw32/nios2-elf/lib\libc.a(lib_a-malignr.o)
 .data          0x0000000005055504        0x0 c:/intelfpga_lite/18.1/nios2eds/bin/gnu/h-x86_64-mingw32/bin/../lib/gcc/nios2-elf/5.3.0/../../../../../H-x86_64-mingw32/nios2-elf/lib\libc.a(lib_a-malloc.o)
 .data          0x0000000005055504        0x0 c:/intelfpga_lite/18.1/nios2eds/bin/gnu/h-x86_64-mingw32/bin/../lib/gcc/nios2-elf/5.3.0/../../../../../H-x86_64-mingw32/nios2-elf/lib\libc.a(lib_a-strcpy.o)
 .data          0x0000000005055504        0x0 c:/intelfpga_lite/18.1/nios2eds/bin/gnu/h-x86_64-mingw32/bin/../lib/gcc/nios2-elf/5.3.0/../../../../../H-x86_64-mingw32/nios2-elf/lib\libc.a(lib_a-strncmp.o)
 .data          0x0000000005055504        0x0 c:/intelfpga_lite/18.1/nios2eds/bin/gnu/h-x86_64-mingw32/bin/../lib/gcc/nios2-elf/5.3.0/../../../../../H-x86_64-mingw32/nios2-elf/lib\libc.a(lib_a-strncpy.o)
 .data          0x0000000005055504        0x0 c:/intelfpga_lite/18.1/nios2eds/bin/gnu/h-x86_64-mingw32/bin/../lib/gcc/nios2-elf/5.3.0/../../../../../H-x86_64-mingw32/nios2-elf/lib\libc.a(lib_a-strtol.o)
 .data          0x0000000005055504        0x0 c:/intelfpga_lite/18.1/nios2eds/bin/gnu/h-x86_64-mingw32/bin/../lib/gcc/nios2-elf/5.3.0/../../../../../H-x86_64-mingw32/nios2-elf/lib\libc.a(lib_a-vprintf.o)
 .data          0x0000000005055504        0x0 c:/intelfpga_lite/18.1/nios2eds/bin/gnu/h-x86_64-mingw32/bin/../lib/gcc/nios2-elf/5.3.0/../../../../../H-x86_64-mingw32/nios2-elf/lib\libc.a(lib_a-vsprintf.o)
 .data          0x0000000005055504        0x0 c:/intelfpga_lite/18.1/nios2eds/bin/gnu/h-x86_64-mingw32/bin/../lib/gcc/nios2-elf/5.3.0/../../../../../H-x86_64-mingw32/nios2-elf/lib\libc.a(lib_a-__atexit.o)
 .data          0x0000000005055504        0x0 c:/intelfpga_lite/18.1/nios2eds/bin/gnu/h-x86_64-mingw32/bin/../lib/gcc/nios2-elf/5.3.0/../../../../../H-x86_64-mingw32/nios2-elf/lib\libc.a(lib_a-__call_atexit.o)
 .data          0x0000000005055504        0x0 c:/intelfpga_lite/18.1/nios2eds/bin/gnu/h-x86_64-mingw32/bin/../lib/gcc/nios2-elf/5.3.0/../../../../../H-x86_64-mingw32/nios2-elf/lib\libc.a(lib_a-vfprintfr_1.o)
 .data          0x0000000005055504        0x0 ../FPGAEncrypt_bsp/\libucosii_bsp.a(alt_exit.o)
                0x000000000505d504                _gp = ABSOLUTE ((. + 0x8000))
                [!provide]                        PROVIDE (gp, _gp)
 *(.rwdata .rwdata.*)
 *(.sdata .sdata.* .gnu.linkonce.s.*)
 .sdata.__ctype_ptr__
                0x0000000005055504        0x4 c:/intelfpga_lite/18.1/nios2eds/bin/gnu/h-x86_64-mingw32/bin/../lib/gcc/nios2-elf/5.3.0/../../../../../H-x86_64-mingw32/nios2-elf/lib\libc.a(lib_a-ctype_.o)
                0x0000000005055504                __ctype_ptr__
 .sdata._global_impure_ptr
                0x0000000005055508        0x4 c:/intelfpga_lite/18.1/nios2eds/bin/gnu/h-x86_64-mingw32/bin/../lib/gcc/nios2-elf/5.3.0/../../../../../H-x86_64-mingw32/nios2-elf/lib\libc.a(lib_a-impure.o)
                0x0000000005055508                _global_impure_ptr
 .sdata._impure_ptr
                0x000000000505550c        0x4 c:/intelfpga_lite/18.1/nios2eds/bin/gnu/h-x86_64-mingw32/bin/../lib/gcc/nios2-elf/5.3.0/../../../../../H-x86_64-mingw32/nios2-elf/lib\libc.a(lib_a-impure.o)
                0x000000000505550c                _impure_ptr
 .sdata.__mb_cur_max
                0x0000000005055510        0x4 c:/intelfpga_lite/18.1/nios2eds/bin/gnu/h-x86_64-mingw32/bin/../lib/gcc/nios2-elf/5.3.0/../../../../../H-x86_64-mingw32/nios2-elf/lib\libc.a(lib_a-locale.o)
                0x0000000005055510                __mb_cur_max
 .sdata.__malloc_sbrk_base
                0x0000000005055514        0x4 c:/intelfpga_lite/18.1/nios2eds/bin/gnu/h-x86_64-mingw32/bin/../lib/gcc/nios2-elf/5.3.0/../../../../../H-x86_64-mingw32/nios2-elf/lib\libc.a(lib_a-mallocr.o)
                0x0000000005055514                __malloc_sbrk_base
 .sdata.__malloc_trim_threshold
                0x0000000005055518        0x4 c:/intelfpga_lite/18.1/nios2eds/bin/gnu/h-x86_64-mingw32/bin/../lib/gcc/nios2-elf/5.3.0/../../../../../H-x86_64-mingw32/nios2-elf/lib\libc.a(lib_a-mallocr.o)
                0x0000000005055518                __malloc_trim_threshold
 .sdata.__wctomb
                0x000000000505551c        0x4 c:/intelfpga_lite/18.1/nios2eds/bin/gnu/h-x86_64-mingw32/bin/../lib/gcc/nios2-elf/5.3.0/../../../../../H-x86_64-mingw32/nios2-elf/lib\libc.a(lib_a-wctomb_r.o)
                0x000000000505551c                __wctomb
 .sdata         0x0000000005055520        0x4 ../FPGAEncrypt_bsp/\libucosii_bsp.a(alt_sbrk.o)
 .sdata         0x0000000005055524        0x4 ../FPGAEncrypt_bsp/\libucosii_bsp.a(alt_env_lock.o)
 .sdata         0x0000000005055528        0x4 ../FPGAEncrypt_bsp/\libucosii_bsp.a(alt_malloc_lock.o)
 .sdata         0x000000000505552c       0x72 ../FPGAEncrypt_bsp/\libucosii_bsp.a(os_dbg.o)
                0x000000000505552c                OSDebugEn
                0x0000000005055530                OSEndiannessTest
                0x0000000005055534                OSEventEn
                0x0000000005055536                OSEventMax
                0x0000000005055538                OSEventNameSize
                0x000000000505553a                OSEventSize
                0x000000000505553c                OSEventTblSize
                0x000000000505553e                OSEventMultiEn
                0x0000000005055540                OSFlagEn
                0x0000000005055542                OSFlagGrpSize
                0x0000000005055544                OSFlagNodeSize
                0x0000000005055546                OSFlagWidth
                0x0000000005055548                OSFlagMax
                0x000000000505554a                OSFlagNameSize
                0x000000000505554c                OSLowestPrio
                0x000000000505554e                OSMboxEn
                0x0000000005055550                OSMemEn
                0x0000000005055552                OSMemMax
                0x0000000005055554                OSMemNameSize
                0x0000000005055556                OSMemSize
                0x0000000005055558                OSMemTblSize
                0x000000000505555a                OSMutexEn
                0x000000000505555c                OSPtrSize
                0x000000000505555e                OSQEn
                0x0000000005055560                OSQMax
                0x0000000005055562                OSQSize
                0x0000000005055564                OSRdyTblSize
                0x0000000005055566                OSSemEn
                0x0000000005055568                OSStkWidth
                0x000000000505556a                OSTaskCreateEn
                0x000000000505556c                OSTaskCreateExtEn
                0x000000000505556e                OSTaskDelEn
                0x0000000005055570                OSTaskIdleStkSize
                0x0000000005055572                OSTaskProfileEn
                0x0000000005055574                OSTaskMax
                0x0000000005055576                OSTaskNameSize
                0x0000000005055578                OSTaskStatEn
                0x000000000505557a                OSTaskStatStkSize
                0x000000000505557c                OSTaskStatStkChkEn
                0x000000000505557e                OSTaskSwHookEn
                0x0000000005055580                OSTCBPrioTblMax
                0x0000000005055582                OSTCBSize
                0x0000000005055584                OSTicksPerSec
                0x0000000005055586                OSTimeTickHookEn
                0x0000000005055588                OSVersionNbr
                0x000000000505558a                OSTmrEn
                0x000000000505558c                OSTmrCfgMax
                0x000000000505558e                OSTmrCfgNameSize
                0x0000000005055590                OSTmrCfgWheelSize
                0x0000000005055592                OSTmrCfgTicksPerSec
                0x0000000005055594                OSTmrSize
                0x0000000005055596                OSTmrTblSize
                0x0000000005055598                OSTmrWheelSize
                0x000000000505559a                OSTmrWheelTblSize
                0x000000000505559c                OSDataSize
 *fill*         0x000000000505559e        0x2 
 .sdata         0x00000000050555a0        0x4 ../FPGAEncrypt_bsp/\libucosii_bsp.a(alt_sys_init.o)
                0x00000000050555a0                eth_tse_name
 .sdata         0x00000000050555a4        0x8 ../FPGAEncrypt_bsp/\libucosii_bsp.a(altera_msgdma.o)
                0x00000000050555a4                alt_msgdma_list
 .sdata         0x00000000050555ac        0x8 ../FPGAEncrypt_bsp/\libucosii_bsp.a(altera_remote_update.o)
                0x00000000050555ac                altera_remote_update_list
 .sdata         0x00000000050555b4        0x8 ../FPGAEncrypt_bsp/\libucosii_bsp.a(alt_iniche_dev.o)
                0x00000000050555b4                alt_iniche_dev_list
 .sdata         0x00000000050555bc        0x4 ../FPGAEncrypt_bsp/\libucosii_bsp.a(ipstart.o)
                0x00000000050555bc                ipmcfail_str
 .sdata         0x00000000050555c0        0x4 ../FPGAEncrypt_bsp/\libucosii_bsp.a(cksum.o)
 .sdata         0x00000000050555c4        0x4 ../FPGAEncrypt_bsp/\libucosii_bsp.a(netmain.o)
                0x00000000050555c4                num_net_tasks
 .sdata         0x00000000050555c8        0xc ../FPGAEncrypt_bsp/\libucosii_bsp.a(dhcpclnt.o)
                0x00000000050555c8                xids
                0x00000000050555cc                reqlist
                0x00000000050555d0                reqlist_len
 .sdata         0x00000000050555d4       0x10 ../FPGAEncrypt_bsp/\libucosii_bsp.a(pktalloc.o)
                0x00000000050555d4                lilbufs
                0x00000000050555d8                lilbufsiz
                0x00000000050555dc                bigbufs
                0x00000000050555e0                bigbufsiz
 .sdata         0x00000000050555e4        0x4 ../FPGAEncrypt_bsp/\libucosii_bsp.a(brdutils.o)
                0x00000000050555e4                kb_last
 .sdata         0x00000000050555e8        0x4 ../FPGAEncrypt_bsp/\libucosii_bsp.a(nptcp.o)
                0x00000000050555e8                TCPTV_MSL
 .sdata         0x00000000050555ec        0x2 ../FPGAEncrypt_bsp/\libucosii_bsp.a(socket.o)
                0x00000000050555ec                socket_defaults
 .sdata         0x00000000050555ee        0x1 ../FPGAEncrypt_bsp/\libucosii_bsp.a(tcp_in.o)
                0x00000000050555ee                tcprexmtthresh
 *fill*         0x00000000050555ef        0x1 
 .sdata         0x00000000050555f0        0x4 ../FPGAEncrypt_bsp/\libucosii_bsp.a(tcp_subr.o)
                0x00000000050555f0                tcp_ttl
 .sdata         0x00000000050555f4        0x8 ../FPGAEncrypt_bsp/\libucosii_bsp.a(tcp_timr.o)
                0x00000000050555f4                tcp_keepidle
                0x00000000050555f8                tcp_keepintvl
 .sdata         0x00000000050555fc        0x8 ../FPGAEncrypt_bsp/\libucosii_bsp.a(tcp_usr.o)
                0x00000000050555fc                tcp_sendspace
                0x0000000005055600                tcp_recvspace
 .sdata         0x0000000005055604       0x14 ../FPGAEncrypt_bsp/\libucosii_bsp.a(alt_dev.o)
                0x0000000005055604                alt_fs_list
                0x000000000505560c                alt_dev_list
                0x0000000005055614                alt_max_fd
 .sdata         0x0000000005055618        0x4 ../FPGAEncrypt_bsp/\libucosii_bsp.a(alt_errno.o)
                0x0000000005055618                alt_errno
 .sdata         0x000000000505561c        0x8 ../FPGAEncrypt_bsp/\libucosii_bsp.a(alt_flash_dev.o)
                0x000000000505561c                alt_flash_dev_list
 .sdata         0x0000000005055624        0x4 ../FPGAEncrypt_bsp/\libucosii_bsp.a(alt_irq_vars.o)
                0x0000000005055624                alt_priority_mask
 .sdata         0x0000000005055628        0x8 ../FPGAEncrypt_bsp/\libucosii_bsp.a(alt_tick.o)
                0x0000000005055628                alt_alarm_list
 .sdata         0x0000000005055630        0x1 ../FPGAEncrypt_bsp/\libucosii_bsp.a(altera_avalon_tse.o)
                0x0000000005055630                max_mac_system
 *fill*         0x0000000005055631        0x3 
 .sdata         0x0000000005055634       0x10 ../FPGAEncrypt_bsp/\libucosii_bsp.a(allports.o)
                0x0000000005055634                name
                0x0000000005055638                prompt
                0x000000000505563c                pingdelay
                0x0000000005055640                deflength
 .sdata         0x0000000005055644        0x4 ../FPGAEncrypt_bsp/\libucosii_bsp.a(et_arp.o)
                0x0000000005055644                arp_ageout
 .sdata         0x0000000005055648        0x8 ../FPGAEncrypt_bsp/\libucosii_bsp.a(ip.o)
                0x000000000505564c                ipRoutes
 .sdata         0x0000000005055650        0x4 ../FPGAEncrypt_bsp/\libucosii_bsp.a(u_mctest.o)
 .sdata         0x0000000005055654        0x4 ../FPGAEncrypt_bsp/\libucosii_bsp.a(memdev.o)
                0x0000000005055654                mdlist_size
 .sdata         0x0000000005055658        0x4 ../FPGAEncrypt_bsp/\libucosii_bsp.a(parseip.o)
                0x0000000005055658                pton_error
 .sdata         0x000000000505565c        0x4 ../FPGAEncrypt_bsp/\libucosii_bsp.a(vfsfiles.o)
                0x000000000505565c                http_root_path
 *(.sdata2 .sdata2.* .gnu.linkonce.s2.*)
                0x0000000005055660                . = ALIGN (0x4)
                0x0000000005055660                _edata = ABSOLUTE (.)
                [!provide]                        PROVIDE (edata, ABSOLUTE (.))
                [!provide]                        PROVIDE (__ram_rwdata_end, ABSOLUTE (.))
                [!provide]                        PROVIDE (__flash_rwdata_start, LOADADDR (.rwdata))

.bss            0x0000000005055660     0xac20
                0x0000000005055660                __bss_start = ABSOLUTE (.)
                [!provide]                        PROVIDE (__sbss_start, ABSOLUTE (.))
                [!provide]                        PROVIDE (___sbss_start, ABSOLUTE (.))
 *(.dynsbss)
 *(.sbss .sbss.* .gnu.linkonce.sb.*)
 .sbss          0x0000000005055660        0x8 obj/default/network_utilities.o
                0x0000000005055660                last_flash_sector_offset
                0x0000000005055664                last_flash_sector
 .sbss          0x0000000005055668       0x10 obj/default/simple_socket_server.o
                0x000000000505566c                SSSLEDCommandQ
                0x0000000005055670                SSSLEDLightshowSem
                0x0000000005055674                SSSLEDEventFlag
 .sbss._PathLocale
                0x0000000005055678        0x4 c:/intelfpga_lite/18.1/nios2eds/bin/gnu/h-x86_64-mingw32/bin/../lib/gcc/nios2-elf/5.3.0/../../../../../H-x86_64-mingw32/nios2-elf/lib\libc.a(lib_a-locale.o)
                0x0000000005055678                _PathLocale
 .sbss.__mlocale_changed
                0x000000000505567c        0x4 c:/intelfpga_lite/18.1/nios2eds/bin/gnu/h-x86_64-mingw32/bin/../lib/gcc/nios2-elf/5.3.0/../../../../../H-x86_64-mingw32/nios2-elf/lib\libc.a(lib_a-locale.o)
                0x000000000505567c                __mlocale_changed
 .sbss.__nlocale_changed
                0x0000000005055680        0x4 c:/intelfpga_lite/18.1/nios2eds/bin/gnu/h-x86_64-mingw32/bin/../lib/gcc/nios2-elf/5.3.0/../../../../../H-x86_64-mingw32/nios2-elf/lib\libc.a(lib_a-locale.o)
                0x0000000005055680                __nlocale_changed
 .sbss.__malloc_max_total_mem
                0x0000000005055684        0x4 c:/intelfpga_lite/18.1/nios2eds/bin/gnu/h-x86_64-mingw32/bin/../lib/gcc/nios2-elf/5.3.0/../../../../../H-x86_64-mingw32/nios2-elf/lib\libc.a(lib_a-mallocr.o)
                0x0000000005055684                __malloc_max_total_mem
 .sbss.__malloc_max_sbrked_mem
                0x0000000005055688        0x4 c:/intelfpga_lite/18.1/nios2eds/bin/gnu/h-x86_64-mingw32/bin/../lib/gcc/nios2-elf/5.3.0/../../../../../H-x86_64-mingw32/nios2-elf/lib\libc.a(lib_a-mallocr.o)
                0x0000000005055688                __malloc_max_sbrked_mem
 .sbss.__malloc_top_pad
                0x000000000505568c        0x4 c:/intelfpga_lite/18.1/nios2eds/bin/gnu/h-x86_64-mingw32/bin/../lib/gcc/nios2-elf/5.3.0/../../../../../H-x86_64-mingw32/nios2-elf/lib\libc.a(lib_a-mallocr.o)
                0x000000000505568c                __malloc_top_pad
 .sbss          0x0000000005055690        0x4 c:/intelfpga_lite/18.1/nios2eds/bin/gnu/h-x86_64-mingw32/bin/../lib/gcc/nios2-elf/5.3.0/../../../../../H-x86_64-mingw32/nios2-elf/lib\libc.a(lib_a-int_errno.o)
                0x0000000005055690                errno
 .sbss          0x0000000005055694        0xc ../FPGAEncrypt_bsp/\libucosii_bsp.a(alt_main.o)
                0x0000000005055694                alt_argc
                0x0000000005055698                alt_argv
                0x000000000505569c                alt_envp
 .sbss          0x00000000050556a0        0x8 ../FPGAEncrypt_bsp/\libucosii_bsp.a(alt_env_lock.o)
                0x00000000050556a4                alt_envsem
 .sbss          0x00000000050556a8        0x8 ../FPGAEncrypt_bsp/\libucosii_bsp.a(alt_malloc_lock.o)
                0x00000000050556ac                alt_heapsem
 .sbss          0x00000000050556b0       0x50 ../FPGAEncrypt_bsp/\libucosii_bsp.a(os_core.o)
                0x00000000050556b0                OSLockNesting
                0x00000000050556b1                OSRunning
                0x00000000050556b4                OSIdleCtr
                0x00000000050556b8                OSPrioHighRdy
                0x00000000050556b9                OSPrioCur
                0x00000000050556bc                OSTCBList
                0x00000000050556c0                OSTickStepState
                0x00000000050556c4                OSCtxSwCtr
                0x00000000050556c8                OSIdleCtrMax
                0x00000000050556cc                OSTCBFreeList
                0x00000000050556d0                OSCPUUsage
                0x00000000050556d1                OSTaskCtr
                0x00000000050556d4                OSMemFreeList
                0x00000000050556d8                OSTCBHighRdy
                0x00000000050556dc                OSQFreeList
                0x00000000050556e0                OSRdyGrp
                0x00000000050556e1                OSRdyTbl
                0x00000000050556e4                OSEventFreeList
                0x00000000050556e8                OSIntNesting
                0x00000000050556ec                OSTCBCur
                0x00000000050556f0                OSTime
                0x00000000050556f4                OSFlagFreeList
                0x00000000050556f8                OSStatRdy
                0x00000000050556fc                OSIdleCtrRun
 .sbss          0x0000000005055700        0x1 ../FPGAEncrypt_bsp/\libucosii_bsp.a(ins_tse_mac.o)
                0x0000000005055700                number_of_tse_mac
 *fill*         0x0000000005055701        0x3 
 .sbss          0x0000000005055704        0xc ../FPGAEncrypt_bsp/\libucosii_bsp.a(ipnet.o)
                0x0000000005055704                MaxLnh
                0x0000000005055708                MaxMtu
                0x000000000505570c                NDEBUG
 .sbss          0x0000000005055710        0x8 ../FPGAEncrypt_bsp/\libucosii_bsp.a(ipstart.o)
                0x0000000005055710                ifNumber
 .sbss          0x0000000005055718       0x10 ../FPGAEncrypt_bsp/\libucosii_bsp.a(igmp_cmn.o)
                0x0000000005055718                igmp_timers_are_running
                0x000000000505571c                igmp_cticks
                0x0000000005055720                igmp_all_hosts_group
                0x0000000005055724                igmp_all_rtrs_group
 .sbss          0x0000000005055728        0xe ../FPGAEncrypt_bsp/\libucosii_bsp.a(netmain.o)
                0x0000000005055728                netmain_wakes
                0x000000000505572c                nettick_wakes
                0x0000000005055730                iniche_net_ready
                0x0000000005055734                to_netmain
                0x0000000005055735                to_nettick
 *fill*         0x0000000005055736        0x2 
 .sbss          0x0000000005055738        0x4 ../FPGAEncrypt_bsp/\libucosii_bsp.a(tk_crnos.o)
                0x0000000005055738                tcp_sleep_timeout
 .sbss          0x000000000505573c       0x34 ../FPGAEncrypt_bsp/\libucosii_bsp.a(dhcpclnt.o)
                0x000000000505573c                dhc_conn
                0x0000000005055740                dsc_errors
                0x0000000005055744                dsc_discovers
                0x0000000005055748                dsc_offers
                0x000000000505574c                dsc_requests
                0x0000000005055750                dsc_acks
                0x0000000005055754                dsc_bpreplys
                0x0000000005055758                dsc_declines
                0x000000000505575c                dsc_releases
                0x0000000005055760                dsc_naks
                0x0000000005055764                dsc_renew
                0x0000000005055768                dsc_rebind
                0x000000000505576c                dsc_rlyerrs
 .sbss          0x0000000005055770        0x4 ../FPGAEncrypt_bsp/\libucosii_bsp.a(udp_open.o)
                0x0000000005055770                firstudp
 .sbss          0x0000000005055774       0x18 ../FPGAEncrypt_bsp/\libucosii_bsp.a(brdutils.o)
                0x0000000005055774                cticks_initialized
                0x0000000005055778                irq_level
                0x0000000005055784                cticks_factor
                0x0000000005055788                OS_TPS
 .sbss          0x000000000505578c       0x18 ../FPGAEncrypt_bsp/\libucosii_bsp.a(osportco.o)
                0x000000000505578c                tcp_sleep_count
                0x0000000005055790                tcp_wakeup_count
                0x0000000005055794                netq_intmask
                0x0000000005055798                old_mode
                0x000000000505579c                global_TCPwakeup_setIndx
                0x00000000050557a0                cticks
 .sbss          0x00000000050557a4        0xc ../FPGAEncrypt_bsp/\libucosii_bsp.a(targnios.o)
                0x00000000050557a4                memtrapsize
                0x00000000050557a8                mheap_sem_ptr
                0x00000000050557ac                rcvdq_sem_ptr
 .sbss          0x00000000050557b0       0x12 ../FPGAEncrypt_bsp/\libucosii_bsp.a(nptcp.o)
                0x00000000050557b0                nextslow
                0x00000000050557b8                mbstat
                0x00000000050557c0                select_wait
 *fill*         0x00000000050557c2        0x2 
 .sbss          0x00000000050557c4        0x8 ../FPGAEncrypt_bsp/\libucosii_bsp.a(tcp_in.o)
                0x00000000050557c4                tcpprintfs
                0x00000000050557c8                dropline
 .sbss          0x00000000050557cc        0x4 ../FPGAEncrypt_bsp/\libucosii_bsp.a(tcp_out.o)
                0x00000000050557cc                tcp_optionbuf
 .sbss          0x00000000050557d0        0x8 ../FPGAEncrypt_bsp/\libucosii_bsp.a(tcp_timr.o)
                0x00000000050557d0                tcp_maxidle
                0x00000000050557d4                tcp_iss
 .sbss          0x00000000050557d8        0x4 ../FPGAEncrypt_bsp/\libucosii_bsp.a(alt_dev.o)
                0x00000000050557d8                alt_fd_list_lock
 .sbss          0x00000000050557dc        0x4 ../FPGAEncrypt_bsp/\libucosii_bsp.a(alt_irq_vars.o)
                0x00000000050557dc                alt_irq_active
 .sbss          0x00000000050557e0        0x8 ../FPGAEncrypt_bsp/\libucosii_bsp.a(alt_tick.o)
                0x00000000050557e0                _alt_tick_rate
                0x00000000050557e4                _alt_nticks
 .sbss          0x00000000050557e8        0x4 ../FPGAEncrypt_bsp/\libucosii_bsp.a(altera_avalon_tse.o)
                0x00000000050557e8                phy_profile_count
                0x00000000050557e9                mac_group_count
 .sbss          0x00000000050557ec        0x8 ../FPGAEncrypt_bsp/\libucosii_bsp.a(allports.o)
                0x00000000050557ec                activehost
 .sbss          0x00000000050557f4        0xc ../FPGAEncrypt_bsp/\libucosii_bsp.a(timeouts.o)
                0x00000000050557f4                nextppp
                0x00000000050557f8                port_1s_callout
 .sbss          0x0000000005055800       0x1c ../FPGAEncrypt_bsp/\libucosii_bsp.a(et_arp.o)
                0x0000000005055804                arpcache
                0x000000000505580c                arpReqsIn
                0x0000000005055810                arpReqsOut
                0x0000000005055814                arpRepsIn
                0x0000000005055818                arpRepsOut
 .sbss          0x000000000505581c        0x4 ../FPGAEncrypt_bsp/\libucosii_bsp.a(ip.o)
                0x000000000505581c                rt_mib
 .sbss          0x0000000005055820        0xc ../FPGAEncrypt_bsp/\libucosii_bsp.a(ip_reasm.o)
                0x0000000005055820                ipr_curr_mem
                0x0000000005055824                h_ireq
                0x0000000005055828                ire_cticks
 .sbss          0x000000000505582c       0x11 ../FPGAEncrypt_bsp/\libucosii_bsp.a(ipport.o)
                0x000000000505582c                port_prep
                0x0000000005055830                net_system_exit
                0x0000000005055834                so_evtmap_create
                0x0000000005055838                so_evtmap_delete
                0x000000000505583c                so_evtmap
 *fill*         0x000000000505583d        0x3 
 .sbss          0x0000000005055840        0x4 ../FPGAEncrypt_bsp/\libucosii_bsp.a(ipraw.o)
                0x0000000005055840                ipraw_eps
 .sbss          0x0000000005055844        0x4 ../FPGAEncrypt_bsp/\libucosii_bsp.a(iproute.o)
                0x0000000005055844                cachedRoute
 .sbss          0x0000000005055848        0x2 ../FPGAEncrypt_bsp/\libucosii_bsp.a(udp.o)
 *fill*         0x000000000505584a        0x2 
 .sbss          0x000000000505584c        0x8 ../FPGAEncrypt_bsp/\libucosii_bsp.a(in_pcb.o)
                0x000000000505584c                inpcb_cachehits
                0x0000000005055850                inpcb_cachemiss
 .sbss          0x0000000005055854       0x20 ../FPGAEncrypt_bsp/\libucosii_bsp.a(vfsfiles.o)
                0x0000000005055854                vfsystems
                0x0000000005055858                vfiles
                0x000000000505585c                vfsfiles
                0x0000000005055860                vfopen_error
                0x0000000005055864                vfs_dir_stale
                0x0000000005055868                vfs_open_files
                0x000000000505586c                vfs_total_rw_space
                0x0000000005055870                vfs_total_dyna_files
 .sbss          0x0000000005055874        0x4 ../FPGAEncrypt_bsp/\libucosii_bsp.a(alt_instruction_exception_entry.o)
                0x0000000005055874                alt_instruction_exception_handler
 .sbss          0x0000000005055878        0x4 ../FPGAEncrypt_bsp/\libucosii_bsp.a(icmp.o)
                0x0000000005055878                icmpdu_hook
 *(.sbss2 .sbss2.* .gnu.linkonce.sb2.*)
 *(.scommon)
                [!provide]                        PROVIDE (__sbss_end, ABSOLUTE (.))
                [!provide]                        PROVIDE (___sbss_end, ABSOLUTE (.))
 *(.dynbss)
 *(.bss .bss.* .gnu.linkonce.b.*)
 .bss           0x000000000505587c        0x0 ../FPGAEncrypt_bsp//obj/HAL/src/crt0.o
 .bss           0x000000000505587c        0x0 obj/default/alt_error_handler.o
 .bss           0x000000000505587c        0x0 obj/default/iniche_init.o
 .bss           0x000000000505587c        0x0 obj/default/led.o
 .bss           0x000000000505587c        0x0 obj/default/network_utilities.o
 .bss           0x000000000505587c      0x5f0 obj/default/simple_socket_server.o
 .bss           0x0000000005055e6c        0x0 obj/default/tse_my_system.o
 .bss           0x0000000005055e6c        0x0 c:/intelfpga_lite/18.1/nios2eds/bin/gnu/h-x86_64-mingw32/bin/../lib/gcc/nios2-elf/5.3.0/../../../../../H-x86_64-mingw32/nios2-elf/lib\libc.a(lib_a-ctype_.o)
 .bss           0x0000000005055e6c        0x0 c:/intelfpga_lite/18.1/nios2eds/bin/gnu/h-x86_64-mingw32/bin/../lib/gcc/nios2-elf/5.3.0/../../../../../H-x86_64-mingw32/nios2-elf/lib\libc.a(lib_a-fprintf.o)
 .bss           0x0000000005055e6c        0x0 c:/intelfpga_lite/18.1/nios2eds/bin/gnu/h-x86_64-mingw32/bin/../lib/gcc/nios2-elf/5.3.0/../../../../../H-x86_64-mingw32/nios2-elf/lib\libc.a(lib_a-fwrite.o)
 .bss           0x0000000005055e6c        0x0 c:/intelfpga_lite/18.1/nios2eds/bin/gnu/h-x86_64-mingw32/bin/../lib/gcc/nios2-elf/5.3.0/../../../../../H-x86_64-mingw32/nios2-elf/lib\libc.a(lib_a-getc.o)
 .bss           0x0000000005055e6c        0x0 c:/intelfpga_lite/18.1/nios2eds/bin/gnu/h-x86_64-mingw32/bin/../lib/gcc/nios2-elf/5.3.0/../../../../../H-x86_64-mingw32/nios2-elf/lib\libc.a(lib_a-impure.o)
 .bss           0x0000000005055e6c        0x0 c:/intelfpga_lite/18.1/nios2eds/bin/gnu/h-x86_64-mingw32/bin/../lib/gcc/nios2-elf/5.3.0/../../../../../H-x86_64-mingw32/nios2-elf/lib\libc.a(lib_a-memcpy.o)
 .bss           0x0000000005055e6c        0x0 c:/intelfpga_lite/18.1/nios2eds/bin/gnu/h-x86_64-mingw32/bin/../lib/gcc/nios2-elf/5.3.0/../../../../../H-x86_64-mingw32/nios2-elf/lib\libc.a(lib_a-memmove.o)
 .bss           0x0000000005055e6c        0x0 c:/intelfpga_lite/18.1/nios2eds/bin/gnu/h-x86_64-mingw32/bin/../lib/gcc/nios2-elf/5.3.0/../../../../../H-x86_64-mingw32/nios2-elf/lib\libc.a(lib_a-memset.o)
 .bss           0x0000000005055e6c        0x0 c:/intelfpga_lite/18.1/nios2eds/bin/gnu/h-x86_64-mingw32/bin/../lib/gcc/nios2-elf/5.3.0/../../../../../H-x86_64-mingw32/nios2-elf/lib\libc.a(lib_a-perror.o)
 .bss           0x0000000005055e6c        0x0 c:/intelfpga_lite/18.1/nios2eds/bin/gnu/h-x86_64-mingw32/bin/../lib/gcc/nios2-elf/5.3.0/../../../../../H-x86_64-mingw32/nios2-elf/lib\libc.a(lib_a-printf.o)
 .bss           0x0000000005055e6c        0x0 c:/intelfpga_lite/18.1/nios2eds/bin/gnu/h-x86_64-mingw32/bin/../lib/gcc/nios2-elf/5.3.0/../../../../../H-x86_64-mingw32/nios2-elf/lib\libc.a(lib_a-putc.o)
 .bss           0x0000000005055e6c        0x0 c:/intelfpga_lite/18.1/nios2eds/bin/gnu/h-x86_64-mingw32/bin/../lib/gcc/nios2-elf/5.3.0/../../../../../H-x86_64-mingw32/nios2-elf/lib\libc.a(lib_a-putchar.o)
 .bss           0x0000000005055e6c        0x0 c:/intelfpga_lite/18.1/nios2eds/bin/gnu/h-x86_64-mingw32/bin/../lib/gcc/nios2-elf/5.3.0/../../../../../H-x86_64-mingw32/nios2-elf/lib\libc.a(lib_a-puts.o)
 .bss           0x0000000005055e6c        0x0 c:/intelfpga_lite/18.1/nios2eds/bin/gnu/h-x86_64-mingw32/bin/../lib/gcc/nios2-elf/5.3.0/../../../../../H-x86_64-mingw32/nios2-elf/lib\libc.a(lib_a-rget.o)
 .bss           0x0000000005055e6c        0x0 c:/intelfpga_lite/18.1/nios2eds/bin/gnu/h-x86_64-mingw32/bin/../lib/gcc/nios2-elf/5.3.0/../../../../../H-x86_64-mingw32/nios2-elf/lib\libc.a(lib_a-sprintf.o)
 .bss           0x0000000005055e6c        0x0 c:/intelfpga_lite/18.1/nios2eds/bin/gnu/h-x86_64-mingw32/bin/../lib/gcc/nios2-elf/5.3.0/../../../../../H-x86_64-mingw32/nios2-elf/lib\libc.a(lib_a-strchr.o)
 .bss           0x0000000005055e6c        0x0 c:/intelfpga_lite/18.1/nios2eds/bin/gnu/h-x86_64-mingw32/bin/../lib/gcc/nios2-elf/5.3.0/../../../../../H-x86_64-mingw32/nios2-elf/lib\libc.a(lib_a-strerror.o)
 .bss           0x0000000005055e6c        0x0 c:/intelfpga_lite/18.1/nios2eds/bin/gnu/h-x86_64-mingw32/bin/../lib/gcc/nios2-elf/5.3.0/../../../../../H-x86_64-mingw32/nios2-elf/lib\libc.a(lib_a-strlen.o)
 .bss           0x0000000005055e6c        0x0 c:/intelfpga_lite/18.1/nios2eds/bin/gnu/h-x86_64-mingw32/bin/../lib/gcc/nios2-elf/5.3.0/../../../../../H-x86_64-mingw32/nios2-elf/lib\libc.a(lib_a-strstr.o)
 .bss           0x0000000005055e6c        0x0 c:/intelfpga_lite/18.1/nios2eds/bin/gnu/h-x86_64-mingw32/bin/../lib/gcc/nios2-elf/5.3.0/../../../../../H-x86_64-mingw32/nios2-elf/lib\libc.a(lib_a-svfprintf.o)
 .bss           0x0000000005055e6c        0x0 c:/intelfpga_lite/18.1/nios2eds/bin/gnu/h-x86_64-mingw32/bin/../lib/gcc/nios2-elf/5.3.0/../../../../../H-x86_64-mingw32/nios2-elf/lib\libc.a(lib_a-u_strerr.o)
 .bss           0x0000000005055e6c        0x0 c:/intelfpga_lite/18.1/nios2eds/bin/gnu/h-x86_64-mingw32/bin/../lib/gcc/nios2-elf/5.3.0/../../../../../H-x86_64-mingw32/nios2-elf/lib\libc.a(lib_a-vfprintf.o)
 .bss           0x0000000005055e6c        0x0 c:/intelfpga_lite/18.1/nios2eds/bin/gnu/h-x86_64-mingw32/bin/../lib/gcc/nios2-elf/5.3.0/../../../../../H-x86_64-mingw32/nios2-elf/lib\libc.a(lib_a-wbuf.o)
 .bss           0x0000000005055e6c        0x0 c:/intelfpga_lite/18.1/nios2eds/bin/gnu/h-x86_64-mingw32/bin/../lib/gcc/nios2-elf/5.3.0/../../../../../H-x86_64-mingw32/nios2-elf/lib\libc.a(lib_a-wsetup.o)
 .bss           0x0000000005055e6c        0x0 c:/intelfpga_lite/18.1/nios2eds/bin/gnu/h-x86_64-mingw32/bin/../lib/gcc/nios2-elf/5.3.0/../../../../../H-x86_64-mingw32/nios2-elf/lib\libc.a(lib_a-dtoa.o)
 .bss           0x0000000005055e6c        0x0 c:/intelfpga_lite/18.1/nios2eds/bin/gnu/h-x86_64-mingw32/bin/../lib/gcc/nios2-elf/5.3.0/../../../../../H-x86_64-mingw32/nios2-elf/lib\libc.a(lib_a-fflush.o)
 .bss           0x0000000005055e6c        0x0 c:/intelfpga_lite/18.1/nios2eds/bin/gnu/h-x86_64-mingw32/bin/../lib/gcc/nios2-elf/5.3.0/../../../../../H-x86_64-mingw32/nios2-elf/lib\libc.a(lib_a-findfp.o)
 .bss           0x0000000005055e6c        0x0 c:/intelfpga_lite/18.1/nios2eds/bin/gnu/h-x86_64-mingw32/bin/../lib/gcc/nios2-elf/5.3.0/../../../../../H-x86_64-mingw32/nios2-elf/lib\libc.a(lib_a-fputc.o)
 .bss           0x0000000005055e6c        0x0 c:/intelfpga_lite/18.1/nios2eds/bin/gnu/h-x86_64-mingw32/bin/../lib/gcc/nios2-elf/5.3.0/../../../../../H-x86_64-mingw32/nios2-elf/lib\libc.a(lib_a-fputs.o)
 .bss           0x0000000005055e6c        0x0 c:/intelfpga_lite/18.1/nios2eds/bin/gnu/h-x86_64-mingw32/bin/../lib/gcc/nios2-elf/5.3.0/../../../../../H-x86_64-mingw32/nios2-elf/lib\libc.a(lib_a-freer.o)
 .bss           0x0000000005055e6c        0x0 c:/intelfpga_lite/18.1/nios2eds/bin/gnu/h-x86_64-mingw32/bin/../lib/gcc/nios2-elf/5.3.0/../../../../../H-x86_64-mingw32/nios2-elf/lib\libc.a(lib_a-fvwrite.o)
 .bss           0x0000000005055e6c        0x0 c:/intelfpga_lite/18.1/nios2eds/bin/gnu/h-x86_64-mingw32/bin/../lib/gcc/nios2-elf/5.3.0/../../../../../H-x86_64-mingw32/nios2-elf/lib\libc.a(lib_a-fwalk.o)
 .bss           0x0000000005055e6c        0x0 c:/intelfpga_lite/18.1/nios2eds/bin/gnu/h-x86_64-mingw32/bin/../lib/gcc/nios2-elf/5.3.0/../../../../../H-x86_64-mingw32/nios2-elf/lib\libc.a(lib_a-locale.o)
 .bss           0x0000000005055e6c        0x0 c:/intelfpga_lite/18.1/nios2eds/bin/gnu/h-x86_64-mingw32/bin/../lib/gcc/nios2-elf/5.3.0/../../../../../H-x86_64-mingw32/nios2-elf/lib\libc.a(lib_a-makebuf.o)
 .bss           0x0000000005055e6c        0x0 c:/intelfpga_lite/18.1/nios2eds/bin/gnu/h-x86_64-mingw32/bin/../lib/gcc/nios2-elf/5.3.0/../../../../../H-x86_64-mingw32/nios2-elf/lib\libc.a(lib_a-mallocr.o)
 .bss.__malloc_current_mallinfo
                0x0000000005055e6c       0x28 c:/intelfpga_lite/18.1/nios2eds/bin/gnu/h-x86_64-mingw32/bin/../lib/gcc/nios2-elf/5.3.0/../../../../../H-x86_64-mingw32/nios2-elf/lib\libc.a(lib_a-mallocr.o)
                0x0000000005055e6c                __malloc_current_mallinfo
 .bss           0x0000000005055e94        0x0 c:/intelfpga_lite/18.1/nios2eds/bin/gnu/h-x86_64-mingw32/bin/../lib/gcc/nios2-elf/5.3.0/../../../../../H-x86_64-mingw32/nios2-elf/lib\libc.a(lib_a-memchr.o)
 .bss           0x0000000005055e94        0x0 c:/intelfpga_lite/18.1/nios2eds/bin/gnu/h-x86_64-mingw32/bin/../lib/gcc/nios2-elf/5.3.0/../../../../../H-x86_64-mingw32/nios2-elf/lib\libc.a(lib_a-memcmp.o)
 .bss           0x0000000005055e94        0x0 c:/intelfpga_lite/18.1/nios2eds/bin/gnu/h-x86_64-mingw32/bin/../lib/gcc/nios2-elf/5.3.0/../../../../../H-x86_64-mingw32/nios2-elf/lib\libc.a(lib_a-mprec.o)
 .bss           0x0000000005055e94        0x0 c:/intelfpga_lite/18.1/nios2eds/bin/gnu/h-x86_64-mingw32/bin/../lib/gcc/nios2-elf/5.3.0/../../../../../H-x86_64-mingw32/nios2-elf/lib\libc.a(lib_a-reallocr.o)
 .bss           0x0000000005055e94        0x0 c:/intelfpga_lite/18.1/nios2eds/bin/gnu/h-x86_64-mingw32/bin/../lib/gcc/nios2-elf/5.3.0/../../../../../H-x86_64-mingw32/nios2-elf/lib\libc.a(lib_a-refill.o)
 .bss           0x0000000005055e94        0x0 c:/intelfpga_lite/18.1/nios2eds/bin/gnu/h-x86_64-mingw32/bin/../lib/gcc/nios2-elf/5.3.0/../../../../../H-x86_64-mingw32/nios2-elf/lib\libc.a(lib_a-s_fpclassify.o)
 .bss           0x0000000005055e94        0x0 c:/intelfpga_lite/18.1/nios2eds/bin/gnu/h-x86_64-mingw32/bin/../lib/gcc/nios2-elf/5.3.0/../../../../../H-x86_64-mingw32/nios2-elf/lib\libc.a(lib_a-sbrkr.o)
 .bss           0x0000000005055e94        0x0 c:/intelfpga_lite/18.1/nios2eds/bin/gnu/h-x86_64-mingw32/bin/../lib/gcc/nios2-elf/5.3.0/../../../../../H-x86_64-mingw32/nios2-elf/lib\libc.a(lib_a-stdio.o)
 .bss           0x0000000005055e94        0x0 c:/intelfpga_lite/18.1/nios2eds/bin/gnu/h-x86_64-mingw32/bin/../lib/gcc/nios2-elf/5.3.0/../../../../../H-x86_64-mingw32/nios2-elf/lib\libc.a(lib_a-strcmp.o)
 .bss           0x0000000005055e94        0x0 c:/intelfpga_lite/18.1/nios2eds/bin/gnu/h-x86_64-mingw32/bin/../lib/gcc/nios2-elf/5.3.0/../../../../../H-x86_64-mingw32/nios2-elf/lib\libc.a(lib_a-svfiprintf.o)
 .bss           0x0000000005055e94        0x0 c:/intelfpga_lite/18.1/nios2eds/bin/gnu/h-x86_64-mingw32/bin/../lib/gcc/nios2-elf/5.3.0/../../../../../H-x86_64-mingw32/nios2-elf/lib\libc.a(lib_a-vfiprintf.o)
 .bss           0x0000000005055e94        0x0 c:/intelfpga_lite/18.1/nios2eds/bin/gnu/h-x86_64-mingw32/bin/../lib/gcc/nios2-elf/5.3.0/../../../../../H-x86_64-mingw32/nios2-elf/lib\libc.a(lib_a-writer.o)
 .bss           0x0000000005055e94        0x0 c:/intelfpga_lite/18.1/nios2eds/bin/gnu/h-x86_64-mingw32/bin/../lib/gcc/nios2-elf/5.3.0/../../../../../H-x86_64-mingw32/nios2-elf/lib\libc.a(closer.o)
 .bss           0x0000000005055e94        0x0 c:/intelfpga_lite/18.1/nios2eds/bin/gnu/h-x86_64-mingw32/bin/../lib/gcc/nios2-elf/5.3.0/../../../../../H-x86_64-mingw32/nios2-elf/lib\libc.a(lib_a-callocr.o)
 .bss           0x0000000005055e94        0x0 c:/intelfpga_lite/18.1/nios2eds/bin/gnu/h-x86_64-mingw32/bin/../lib/gcc/nios2-elf/5.3.0/../../../../../H-x86_64-mingw32/nios2-elf/lib\libc.a(lib_a-fclose.o)
 .bss           0x0000000005055e94        0x0 c:/intelfpga_lite/18.1/nios2eds/bin/gnu/h-x86_64-mingw32/bin/../lib/gcc/nios2-elf/5.3.0/../../../../../H-x86_64-mingw32/nios2-elf/lib\libc.a(lib_a-fputwc.o)
 .bss           0x0000000005055e94        0x0 c:/intelfpga_lite/18.1/nios2eds/bin/gnu/h-x86_64-mingw32/bin/../lib/gcc/nios2-elf/5.3.0/../../../../../H-x86_64-mingw32/nios2-elf/lib\libc.a(lib_a-fstatr.o)
 .bss           0x0000000005055e94        0x0 c:/intelfpga_lite/18.1/nios2eds/bin/gnu/h-x86_64-mingw32/bin/../lib/gcc/nios2-elf/5.3.0/../../../../../H-x86_64-mingw32/nios2-elf/lib\libc.a(lib_a-int_errno.o)
 .bss           0x0000000005055e94        0x0 c:/intelfpga_lite/18.1/nios2eds/bin/gnu/h-x86_64-mingw32/bin/../lib/gcc/nios2-elf/5.3.0/../../../../../H-x86_64-mingw32/nios2-elf/lib\libc.a(lib_a-isattyr.o)
 .bss           0x0000000005055e94        0x0 c:/intelfpga_lite/18.1/nios2eds/bin/gnu/h-x86_64-mingw32/bin/../lib/gcc/nios2-elf/5.3.0/../../../../../H-x86_64-mingw32/nios2-elf/lib\libc.a(lib_a-lseekr.o)
 .bss           0x0000000005055e94        0x0 c:/intelfpga_lite/18.1/nios2eds/bin/gnu/h-x86_64-mingw32/bin/../lib/gcc/nios2-elf/5.3.0/../../../../../H-x86_64-mingw32/nios2-elf/lib\libc.a(lib_a-readr.o)
 .bss           0x0000000005055e94        0x0 c:/intelfpga_lite/18.1/nios2eds/bin/gnu/h-x86_64-mingw32/bin/../lib/gcc/nios2-elf/5.3.0/../../../../../H-x86_64-mingw32/nios2-elf/lib\libc.a(lib_a-wcrtomb.o)
 .bss           0x0000000005055e94        0x0 c:/intelfpga_lite/18.1/nios2eds/bin/gnu/h-x86_64-mingw32/bin/../lib/gcc/nios2-elf/5.3.0/../../../../../H-x86_64-mingw32/nios2-elf/lib\libc.a(lib_a-wctomb_r.o)
 .bss           0x0000000005055e94        0x0 c:/intelfpga_lite/18.1/nios2eds/bin/gnu/h-x86_64-mingw32/bin/../lib/gcc/nios2-elf/5.3.0\libgcc.a(_udivdi3.o)
 .bss           0x0000000005055e94        0x0 c:/intelfpga_lite/18.1/nios2eds/bin/gnu/h-x86_64-mingw32/bin/../lib/gcc/nios2-elf/5.3.0\libgcc.a(_umoddi3.o)
 .bss           0x0000000005055e94        0x0 c:/intelfpga_lite/18.1/nios2eds/bin/gnu/h-x86_64-mingw32/bin/../lib/gcc/nios2-elf/5.3.0\libgcc.a(lib2-divmod.o)
 .bss           0x0000000005055e94        0x0 c:/intelfpga_lite/18.1/nios2eds/bin/gnu/h-x86_64-mingw32/bin/../lib/gcc/nios2-elf/5.3.0\libgcc.a(adddf3.o)
 .bss           0x0000000005055e94        0x0 c:/intelfpga_lite/18.1/nios2eds/bin/gnu/h-x86_64-mingw32/bin/../lib/gcc/nios2-elf/5.3.0\libgcc.a(divdf3.o)
 .bss           0x0000000005055e94        0x0 c:/intelfpga_lite/18.1/nios2eds/bin/gnu/h-x86_64-mingw32/bin/../lib/gcc/nios2-elf/5.3.0\libgcc.a(eqdf2.o)
 .bss           0x0000000005055e94        0x0 c:/intelfpga_lite/18.1/nios2eds/bin/gnu/h-x86_64-mingw32/bin/../lib/gcc/nios2-elf/5.3.0\libgcc.a(gedf2.o)
 .bss           0x0000000005055e94        0x0 c:/intelfpga_lite/18.1/nios2eds/bin/gnu/h-x86_64-mingw32/bin/../lib/gcc/nios2-elf/5.3.0\libgcc.a(ledf2.o)
 .bss           0x0000000005055e94        0x0 c:/intelfpga_lite/18.1/nios2eds/bin/gnu/h-x86_64-mingw32/bin/../lib/gcc/nios2-elf/5.3.0\libgcc.a(muldf3.o)
 .bss           0x0000000005055e94        0x0 c:/intelfpga_lite/18.1/nios2eds/bin/gnu/h-x86_64-mingw32/bin/../lib/gcc/nios2-elf/5.3.0\libgcc.a(subdf3.o)
 .bss           0x0000000005055e94        0x0 c:/intelfpga_lite/18.1/nios2eds/bin/gnu/h-x86_64-mingw32/bin/../lib/gcc/nios2-elf/5.3.0\libgcc.a(fixdfsi.o)
 .bss           0x0000000005055e94        0x0 c:/intelfpga_lite/18.1/nios2eds/bin/gnu/h-x86_64-mingw32/bin/../lib/gcc/nios2-elf/5.3.0\libgcc.a(floatsidf.o)
 .bss           0x0000000005055e94        0x0 c:/intelfpga_lite/18.1/nios2eds/bin/gnu/h-x86_64-mingw32/bin/../lib/gcc/nios2-elf/5.3.0\libgcc.a(floatunsidf.o)
 .bss           0x0000000005055e94        0x0 c:/intelfpga_lite/18.1/nios2eds/bin/gnu/h-x86_64-mingw32/bin/../lib/gcc/nios2-elf/5.3.0\libgcc.a(_clz.o)
 .bss           0x0000000005055e94        0x0 c:/intelfpga_lite/18.1/nios2eds/bin/gnu/h-x86_64-mingw32/bin/../lib/gcc/nios2-elf/5.3.0\libgcc.a(_clzsi2.o)
 .bss           0x0000000005055e94        0x0 ../FPGAEncrypt_bsp/\libucosii_bsp.a(alt_fstat.o)
 .bss           0x0000000005055e94        0x0 ../FPGAEncrypt_bsp/\libucosii_bsp.a(alt_isatty.o)
 .bss           0x0000000005055e94        0x0 ../FPGAEncrypt_bsp/\libucosii_bsp.a(alt_lseek.o)
 .bss           0x0000000005055e94        0x0 ../FPGAEncrypt_bsp/\libucosii_bsp.a(alt_main.o)
 .bss           0x0000000005055e94        0x0 ../FPGAEncrypt_bsp/\libucosii_bsp.a(alt_sbrk.o)
 .bss           0x0000000005055e94        0x0 ../FPGAEncrypt_bsp/\libucosii_bsp.a(alt_env_lock.o)
 .bss           0x0000000005055e94        0x0 ../FPGAEncrypt_bsp/\libucosii_bsp.a(alt_malloc_lock.o)
 .bss           0x0000000005055e94        0x0 ../FPGAEncrypt_bsp/\libucosii_bsp.a(os_core.o)
 .bss           0x0000000005055e94        0x0 ../FPGAEncrypt_bsp/\libucosii_bsp.a(os_dbg.o)
 .bss           0x0000000005055e94        0x0 ../FPGAEncrypt_bsp/\libucosii_bsp.a(os_flag.o)
 .bss           0x0000000005055e94        0x0 ../FPGAEncrypt_bsp/\libucosii_bsp.a(os_mem.o)
 .bss           0x0000000005055e94        0x0 ../FPGAEncrypt_bsp/\libucosii_bsp.a(os_q.o)
 .bss           0x0000000005055e94        0x0 ../FPGAEncrypt_bsp/\libucosii_bsp.a(os_sem.o)
 .bss           0x0000000005055e94        0x0 ../FPGAEncrypt_bsp/\libucosii_bsp.a(os_task.o)
 .bss           0x0000000005055e94        0x0 ../FPGAEncrypt_bsp/\libucosii_bsp.a(os_time.o)
 .bss           0x0000000005055e94        0x0 ../FPGAEncrypt_bsp/\libucosii_bsp.a(alt_sys_init.o)
 .bss           0x0000000005055e94        0x0 ../FPGAEncrypt_bsp/\libucosii_bsp.a(altera_avalon_jtag_uart_fd.o)
 .bss           0x0000000005055e94        0x0 ../FPGAEncrypt_bsp/\libucosii_bsp.a(altera_avalon_jtag_uart_init.o)
 .bss           0x0000000005055e94        0x0 ../FPGAEncrypt_bsp/\libucosii_bsp.a(altera_avalon_jtag_uart_ioctl.o)
 .bss           0x0000000005055e94        0x0 ../FPGAEncrypt_bsp/\libucosii_bsp.a(altera_avalon_jtag_uart_read.o)
 .bss           0x0000000005055e94        0x0 ../FPGAEncrypt_bsp/\libucosii_bsp.a(altera_avalon_jtag_uart_write.o)
 .bss           0x0000000005055e94        0x0 ../FPGAEncrypt_bsp/\libucosii_bsp.a(altera_avalon_timer_sc.o)
 .bss           0x0000000005055e94        0x0 ../FPGAEncrypt_bsp/\libucosii_bsp.a(altera_epcq_controller2.o)
 .bss           0x0000000005055e94        0x0 ../FPGAEncrypt_bsp/\libucosii_bsp.a(altera_msgdma.o)
 .bss           0x0000000005055e94        0x0 ../FPGAEncrypt_bsp/\libucosii_bsp.a(altera_remote_update.o)
 .bss           0x0000000005055e94        0x0 ../FPGAEncrypt_bsp/\libucosii_bsp.a(ins_tse_mac.o)
 .bss           0x0000000005055e94        0x0 ../FPGAEncrypt_bsp/\libucosii_bsp.a(alt_iniche_close.o)
 .bss           0x0000000005055e94        0x0 ../FPGAEncrypt_bsp/\libucosii_bsp.a(alt_iniche_dev.o)
 .bss           0x0000000005055e94        0x0 ../FPGAEncrypt_bsp/\libucosii_bsp.a(alt_iniche_read.o)
 .bss           0x0000000005055e94        0x0 ../FPGAEncrypt_bsp/\libucosii_bsp.a(alt_iniche_write.o)
 .bss           0x0000000005055e94        0x0 ../FPGAEncrypt_bsp/\libucosii_bsp.a(ipnet.o)
 .bss           0x0000000005055e94       0x3c ../FPGAEncrypt_bsp/\libucosii_bsp.a(ipstart.o)
 .bss           0x0000000005055ed0        0x0 ../FPGAEncrypt_bsp/\libucosii_bsp.a(igmp_cmn.o)
 .bss           0x0000000005055ed0        0x0 ../FPGAEncrypt_bsp/\libucosii_bsp.a(bsdsock.o)
 .bss           0x0000000005055ed0        0x0 ../FPGAEncrypt_bsp/\libucosii_bsp.a(cksum.o)
 .bss           0x0000000005055ed0       0x18 ../FPGAEncrypt_bsp/\libucosii_bsp.a(in_utils.o)
 .bss           0x0000000005055ee8        0x0 ../FPGAEncrypt_bsp/\libucosii_bsp.a(netmain.o)
 .bss           0x0000000005055ee8        0x0 ../FPGAEncrypt_bsp/\libucosii_bsp.a(tk_crnos.o)
 .bss           0x0000000005055ee8        0x0 ../FPGAEncrypt_bsp/\libucosii_bsp.a(dhcpclnt.o)
 .bss           0x0000000005055ee8        0x0 ../FPGAEncrypt_bsp/\libucosii_bsp.a(dhcputil.o)
 .bss           0x0000000005055ee8        0x0 ../FPGAEncrypt_bsp/\libucosii_bsp.a(pktalloc.o)
 .bss           0x0000000005055ee8        0x0 ../FPGAEncrypt_bsp/\libucosii_bsp.a(q.o)
 .bss           0x0000000005055ee8        0x0 ../FPGAEncrypt_bsp/\libucosii_bsp.a(udp_open.o)
 .bss           0x0000000005055ee8        0x0 ../FPGAEncrypt_bsp/\libucosii_bsp.a(asm_cksum.o)
 .bss           0x0000000005055ee8        0x0 ../FPGAEncrypt_bsp/\libucosii_bsp.a(brdutils.o)
 .bss           0x0000000005055ee8        0x0 ../FPGAEncrypt_bsp/\libucosii_bsp.a(osportco.o)
 .bss           0x0000000005055ee8        0x0 ../FPGAEncrypt_bsp/\libucosii_bsp.a(targnios.o)
 .bss           0x0000000005055ee8        0x0 ../FPGAEncrypt_bsp/\libucosii_bsp.a(nptcp.o)
 .bss           0x0000000005055ee8        0x0 ../FPGAEncrypt_bsp/\libucosii_bsp.a(rawsock.o)
 .bss           0x0000000005055ee8        0x0 ../FPGAEncrypt_bsp/\libucosii_bsp.a(sockcall.o)
 .bss           0x0000000005055ee8        0x0 ../FPGAEncrypt_bsp/\libucosii_bsp.a(socket.o)
 .bss           0x0000000005055ee8        0x0 ../FPGAEncrypt_bsp/\libucosii_bsp.a(socket2.o)
 .bss           0x0000000005055ee8        0x0 ../FPGAEncrypt_bsp/\libucosii_bsp.a(soselect.o)
 .bss           0x0000000005055ee8        0x0 ../FPGAEncrypt_bsp/\libucosii_bsp.a(tcp_in.o)
 .bss           0x0000000005055ee8        0x0 ../FPGAEncrypt_bsp/\libucosii_bsp.a(tcp_out.o)
 .bss           0x0000000005055ee8        0x0 ../FPGAEncrypt_bsp/\libucosii_bsp.a(tcp_subr.o)
 .bss           0x0000000005055ee8        0x0 ../FPGAEncrypt_bsp/\libucosii_bsp.a(tcp_timr.o)
 .bss           0x0000000005055ee8        0x0 ../FPGAEncrypt_bsp/\libucosii_bsp.a(tcp_usr.o)
 .bss           0x0000000005055ee8        0x0 ../FPGAEncrypt_bsp/\libucosii_bsp.a(tcpport.o)
 .bss           0x0000000005055ee8        0x0 ../FPGAEncrypt_bsp/\libucosii_bsp.a(udpsock.o)
 .bss           0x0000000005055ee8        0x0 ../FPGAEncrypt_bsp/\libucosii_bsp.a(alt_alarm_start.o)
 .bss           0x0000000005055ee8        0x0 ../FPGAEncrypt_bsp/\libucosii_bsp.a(alt_busy_sleep.o)
 .bss           0x0000000005055ee8        0x0 ../FPGAEncrypt_bsp/\libucosii_bsp.a(alt_close.o)
 .bss           0x0000000005055ee8        0x0 ../FPGAEncrypt_bsp/\libucosii_bsp.a(alt_dcache_flush.o)
 .bss           0x0000000005055ee8        0x0 ../FPGAEncrypt_bsp/\libucosii_bsp.a(alt_dev.o)
 .bss           0x0000000005055ee8        0x0 ../FPGAEncrypt_bsp/\libucosii_bsp.a(alt_dev_llist_insert.o)
 .bss           0x0000000005055ee8        0x0 ../FPGAEncrypt_bsp/\libucosii_bsp.a(alt_do_ctors.o)
 .bss           0x0000000005055ee8        0x0 ../FPGAEncrypt_bsp/\libucosii_bsp.a(alt_do_dtors.o)
 .bss           0x0000000005055ee8        0x0 ../FPGAEncrypt_bsp/\libucosii_bsp.a(alt_errno.o)
 .bss           0x0000000005055ee8        0x0 ../FPGAEncrypt_bsp/\libucosii_bsp.a(alt_find_dev.o)
 .bss           0x0000000005055ee8        0x0 ../FPGAEncrypt_bsp/\libucosii_bsp.a(alt_flash_dev.o)
 .bss           0x0000000005055ee8        0x0 ../FPGAEncrypt_bsp/\libucosii_bsp.a(alt_iic.o)
 .bss           0x0000000005055ee8        0x0 ../FPGAEncrypt_bsp/\libucosii_bsp.a(alt_iic_isr_register.o)
 .bss           0x0000000005055ee8        0x0 ../FPGAEncrypt_bsp/\libucosii_bsp.a(alt_io_redirect.o)
 .bss           0x0000000005055ee8        0x0 ../FPGAEncrypt_bsp/\libucosii_bsp.a(alt_irq_entry.o)
 .bss           0x0000000005055ee8        0x0 ../FPGAEncrypt_bsp/\libucosii_bsp.a(alt_irq_handler.o)
 .bss           0x0000000005055ee8        0x0 ../FPGAEncrypt_bsp/\libucosii_bsp.a(alt_irq_vars.o)
 .bss           0x0000000005055ee8        0x0 ../FPGAEncrypt_bsp/\libucosii_bsp.a(alt_open.o)
 .bss           0x0000000005055ee8        0x0 ../FPGAEncrypt_bsp/\libucosii_bsp.a(alt_printf.o)
 .bss           0x0000000005055ee8        0x0 ../FPGAEncrypt_bsp/\libucosii_bsp.a(alt_putchar.o)
 .bss           0x0000000005055ee8        0x0 ../FPGAEncrypt_bsp/\libucosii_bsp.a(alt_read.o)
 .bss           0x0000000005055ee8        0x0 ../FPGAEncrypt_bsp/\libucosii_bsp.a(alt_release_fd.o)
 .bss           0x0000000005055ee8        0x0 ../FPGAEncrypt_bsp/\libucosii_bsp.a(alt_remap_cached.o)
 .bss           0x0000000005055ee8        0x0 ../FPGAEncrypt_bsp/\libucosii_bsp.a(alt_tick.o)
 .bss           0x0000000005055ee8        0x0 ../FPGAEncrypt_bsp/\libucosii_bsp.a(alt_uncached_free.o)
 .bss           0x0000000005055ee8        0x0 ../FPGAEncrypt_bsp/\libucosii_bsp.a(alt_uncached_malloc.o)
 .bss           0x0000000005055ee8        0x0 ../FPGAEncrypt_bsp/\libucosii_bsp.a(alt_write.o)
 .bss           0x0000000005055ee8        0x0 ../FPGAEncrypt_bsp/\libucosii_bsp.a(altera_nios2_gen2_irq.o)
 .bss           0x0000000005055ee8        0x0 ../FPGAEncrypt_bsp/\libucosii_bsp.a(os_cpu_a.o)
 .bss           0x0000000005055ee8        0x0 ../FPGAEncrypt_bsp/\libucosii_bsp.a(os_cpu_c.o)
 .bss           0x0000000005055ee8        0x0 ../FPGAEncrypt_bsp/\libucosii_bsp.a(altera_avalon_tse.o)
 .bss           0x0000000005055ee8        0x0 ../FPGAEncrypt_bsp/\libucosii_bsp.a(allports.o)
 .bss           0x0000000005055ee8        0x0 ../FPGAEncrypt_bsp/\libucosii_bsp.a(timeouts.o)
 .bss           0x0000000005055ee8        0x0 ../FPGAEncrypt_bsp/\libucosii_bsp.a(tk_misc.o)
 .bss           0x0000000005055ee8        0x0 ../FPGAEncrypt_bsp/\libucosii_bsp.a(alt_iniche_fcntl.o)
 .bss           0x0000000005055ee8        0x0 ../FPGAEncrypt_bsp/\libucosii_bsp.a(et_arp.o)
 .bss           0x0000000005055ee8        0x0 ../FPGAEncrypt_bsp/\libucosii_bsp.a(iface.o)
 .bss           0x0000000005055ee8        0x0 ../FPGAEncrypt_bsp/\libucosii_bsp.a(ip.o)
 .bss           0x0000000005055ee8        0x0 ../FPGAEncrypt_bsp/\libucosii_bsp.a(ip_reasm.o)
 .bss           0x0000000005055ee8        0x0 ../FPGAEncrypt_bsp/\libucosii_bsp.a(ipdemux.o)
 .bss           0x0000000005055ee8        0x0 ../FPGAEncrypt_bsp/\libucosii_bsp.a(ipmc.o)
 .bss           0x0000000005055ee8        0x0 ../FPGAEncrypt_bsp/\libucosii_bsp.a(ipport.o)
 .bss           0x0000000005055ee8        0x0 ../FPGAEncrypt_bsp/\libucosii_bsp.a(ipraw.o)
 .bss           0x0000000005055ee8        0x0 ../FPGAEncrypt_bsp/\libucosii_bsp.a(iproute.o)
 .bss           0x0000000005055ee8        0x0 ../FPGAEncrypt_bsp/\libucosii_bsp.a(udp.o)
 .bss           0x0000000005055ee8        0x0 ../FPGAEncrypt_bsp/\libucosii_bsp.a(igmp.o)
 .bss           0x0000000005055ee8        0x0 ../FPGAEncrypt_bsp/\libucosii_bsp.a(igmp2.o)
 .bss           0x0000000005055ee8        0x0 ../FPGAEncrypt_bsp/\libucosii_bsp.a(ipopt.o)
 .bss           0x0000000005055ee8        0x0 ../FPGAEncrypt_bsp/\libucosii_bsp.a(u_mctest.o)
 .bss           0x0000000005055ee8        0x0 ../FPGAEncrypt_bsp/\libucosii_bsp.a(dhcsetup.o)
 .bss           0x0000000005055ee8        0x0 ../FPGAEncrypt_bsp/\libucosii_bsp.a(memdev.o)
 .bss           0x0000000005055ee8       0x1e ../FPGAEncrypt_bsp/\libucosii_bsp.a(parseip.o)
 .bss           0x0000000005055f06        0x0 ../FPGAEncrypt_bsp/\libucosii_bsp.a(tcpcksum.o)
 .bss           0x0000000005055f06        0x0 ../FPGAEncrypt_bsp/\libucosii_bsp.a(in_pcb.o)
 .bss           0x0000000005055f06        0x0 ../FPGAEncrypt_bsp/\libucosii_bsp.a(vfsfiles.o)
 .bss           0x0000000005055f06        0x0 ../FPGAEncrypt_bsp/\libucosii_bsp.a(vfsport.o)
 .bss           0x0000000005055f06        0x0 ../FPGAEncrypt_bsp/\libucosii_bsp.a(alt_exception_entry.o)
 .bss           0x0000000005055f06        0x0 ../FPGAEncrypt_bsp/\libucosii_bsp.a(alt_fcntl.o)
 .bss           0x0000000005055f06        0x0 ../FPGAEncrypt_bsp/\libucosii_bsp.a(alt_find_file.o)
 .bss           0x0000000005055f06        0x0 ../FPGAEncrypt_bsp/\libucosii_bsp.a(alt_get_fd.o)
 .bss           0x0000000005055f06        0x0 ../FPGAEncrypt_bsp/\libucosii_bsp.a(alt_instruction_exception_entry.o)
 .bss           0x0000000005055f06        0x0 ../FPGAEncrypt_bsp/\libucosii_bsp.a(alt_usleep.o)
 .bss           0x0000000005055f06        0x0 ../FPGAEncrypt_bsp/\libucosii_bsp.a(icmp.o)
 .bss           0x0000000005055f06        0x0 c:/intelfpga_lite/18.1/nios2eds/bin/gnu/h-x86_64-mingw32/bin/../lib/gcc/nios2-elf/5.3.0/../../../../../H-x86_64-mingw32/nios2-elf/lib\libc.a(lib_a-atexit.o)
 .bss           0x0000000005055f06        0x0 c:/intelfpga_lite/18.1/nios2eds/bin/gnu/h-x86_64-mingw32/bin/../lib/gcc/nios2-elf/5.3.0/../../../../../H-x86_64-mingw32/nios2-elf/lib\libc.a(lib_a-atoi.o)
 .bss           0x0000000005055f06        0x0 c:/intelfpga_lite/18.1/nios2eds/bin/gnu/h-x86_64-mingw32/bin/../lib/gcc/nios2-elf/5.3.0/../../../../../H-x86_64-mingw32/nios2-elf/lib\libc.a(lib_a-exit.o)
 .bss           0x0000000005055f06        0x0 c:/intelfpga_lite/18.1/nios2eds/bin/gnu/h-x86_64-mingw32/bin/../lib/gcc/nios2-elf/5.3.0/../../../../../H-x86_64-mingw32/nios2-elf/lib\libc.a(lib_a-malign.o)
 .bss           0x0000000005055f06        0x0 c:/intelfpga_lite/18.1/nios2eds/bin/gnu/h-x86_64-mingw32/bin/../lib/gcc/nios2-elf/5.3.0/../../../../../H-x86_64-mingw32/nios2-elf/lib\libc.a(lib_a-malignr.o)
 .bss           0x0000000005055f06        0x0 c:/intelfpga_lite/18.1/nios2eds/bin/gnu/h-x86_64-mingw32/bin/../lib/gcc/nios2-elf/5.3.0/../../../../../H-x86_64-mingw32/nios2-elf/lib\libc.a(lib_a-malloc.o)
 .bss           0x0000000005055f06        0x0 c:/intelfpga_lite/18.1/nios2eds/bin/gnu/h-x86_64-mingw32/bin/../lib/gcc/nios2-elf/5.3.0/../../../../../H-x86_64-mingw32/nios2-elf/lib\libc.a(lib_a-strcpy.o)
 .bss           0x0000000005055f06        0x0 c:/intelfpga_lite/18.1/nios2eds/bin/gnu/h-x86_64-mingw32/bin/../lib/gcc/nios2-elf/5.3.0/../../../../../H-x86_64-mingw32/nios2-elf/lib\libc.a(lib_a-strncmp.o)
 .bss           0x0000000005055f06        0x0 c:/intelfpga_lite/18.1/nios2eds/bin/gnu/h-x86_64-mingw32/bin/../lib/gcc/nios2-elf/5.3.0/../../../../../H-x86_64-mingw32/nios2-elf/lib\libc.a(lib_a-strncpy.o)
 .bss           0x0000000005055f06        0x0 c:/intelfpga_lite/18.1/nios2eds/bin/gnu/h-x86_64-mingw32/bin/../lib/gcc/nios2-elf/5.3.0/../../../../../H-x86_64-mingw32/nios2-elf/lib\libc.a(lib_a-strtol.o)
 .bss           0x0000000005055f06        0x0 c:/intelfpga_lite/18.1/nios2eds/bin/gnu/h-x86_64-mingw32/bin/../lib/gcc/nios2-elf/5.3.0/../../../../../H-x86_64-mingw32/nios2-elf/lib\libc.a(lib_a-vprintf.o)
 .bss           0x0000000005055f06        0x0 c:/intelfpga_lite/18.1/nios2eds/bin/gnu/h-x86_64-mingw32/bin/../lib/gcc/nios2-elf/5.3.0/../../../../../H-x86_64-mingw32/nios2-elf/lib\libc.a(lib_a-vsprintf.o)
 .bss           0x0000000005055f06        0x0 c:/intelfpga_lite/18.1/nios2eds/bin/gnu/h-x86_64-mingw32/bin/../lib/gcc/nios2-elf/5.3.0/../../../../../H-x86_64-mingw32/nios2-elf/lib\libc.a(lib_a-__atexit.o)
 .bss           0x0000000005055f06        0x0 c:/intelfpga_lite/18.1/nios2eds/bin/gnu/h-x86_64-mingw32/bin/../lib/gcc/nios2-elf/5.3.0/../../../../../H-x86_64-mingw32/nios2-elf/lib\libc.a(lib_a-__call_atexit.o)
 .bss           0x0000000005055f06        0x0 c:/intelfpga_lite/18.1/nios2eds/bin/gnu/h-x86_64-mingw32/bin/../lib/gcc/nios2-elf/5.3.0/../../../../../H-x86_64-mingw32/nios2-elf/lib\libc.a(lib_a-vfprintfr_1.o)
 .bss           0x0000000005055f06        0x0 ../FPGAEncrypt_bsp/\libucosii_bsp.a(alt_exit.o)
 *(COMMON)
 *fill*         0x0000000005055f06        0x2 
 COMMON         0x0000000005055f08     0x2000 obj/default/iniche_init.o
                0x0000000005055f08                SSSInitialTaskStk
 COMMON         0x0000000005057f08     0x4078 obj/default/simple_socket_server.o
                0x0000000005057f08                LED7SegLightshowTaskStk
                0x0000000005059f08                SSSLEDCommandQTbl
                0x0000000005059f80                LEDManagementTaskStk
 COMMON         0x000000000505bf80     0x3224 ../FPGAEncrypt_bsp/\libucosii_bsp.a(os_core.o)
                0x000000000505bf80                OSFlagTbl
                0x000000000505c2f0                OSMemTbl
                0x000000000505cf20                OSTaskStatStk
                0x000000000505d720                OSQTbl
                0x000000000505d900                OSTaskIdleStk
                0x000000000505e100                OSEventTbl
                0x000000000505ec40                OSTCBTbl
                0x000000000505f150                OSTCBPrioTbl
 COMMON         0x000000000505f1a4       0xe0 ../FPGAEncrypt_bsp/\libucosii_bsp.a(alt_sys_init.o)
                0x000000000505f1a4                eth_tse_if
 COMMON         0x000000000505f284      0x2c0 ../FPGAEncrypt_bsp/\libucosii_bsp.a(ins_tse_mac.o)
                0x000000000505f284                tse_iniche_dev_driver_data
                0x000000000505f2b4                tse
 COMMON         0x000000000505f544       0x14 ../FPGAEncrypt_bsp/\libucosii_bsp.a(ipnet.o)
                0x000000000505f544                rcvdq
 COMMON         0x000000000505f558      0x310 ../FPGAEncrypt_bsp/\libucosii_bsp.a(ipstart.o)
                0x000000000505f558                netstatic
                0x000000000505f858                nets
 COMMON         0x000000000505f868       0x64 ../FPGAEncrypt_bsp/\libucosii_bsp.a(igmp_cmn.o)
                0x000000000505f868                igmpstats
 COMMON         0x000000000505f8cc       0x24 ../FPGAEncrypt_bsp/\libucosii_bsp.a(in_utils.o)
                0x000000000505f8cc                eth_prt_buf
                0x000000000505f8de                ipreturn
 COMMON         0x000000000505f8f0       0xf0 ../FPGAEncrypt_bsp/\libucosii_bsp.a(dhcpclnt.o)
                0x000000000505f8f0                dhc_states
 COMMON         0x000000000505f9e0      0x128 ../FPGAEncrypt_bsp/\libucosii_bsp.a(pktalloc.o)
                0x000000000505f9e0                lilfreeq
                0x000000000505f9f4                memestats
                0x000000000505fa04                pktlog
                0x000000000505faf4                bigfreeq
 COMMON         0x000000000505fb08      0x1ec ../FPGAEncrypt_bsp/\libucosii_bsp.a(osportco.o)
                0x000000000505fb08                global_tcb_ext
                0x000000000505fc04                global_TCPwakeup_set
 COMMON         0x000000000505fcf4       0x58 ../FPGAEncrypt_bsp/\libucosii_bsp.a(targnios.o)
                0x000000000505fcf4                resid_semaphore
                0x000000000505fd34                app_semaphore
 COMMON         0x000000000505fd4c       0x78 ../FPGAEncrypt_bsp/\libucosii_bsp.a(nptcp.o)
                0x000000000505fd4c                soq
                0x000000000505fd60                tcpmib
                0x000000000505fd9c                mbufq
                0x000000000505fdb0                mfreeq
 COMMON         0x000000000505fdc4       0x28 ../FPGAEncrypt_bsp/\libucosii_bsp.a(tcp_in.o)
                0x000000000505fdc4                tcp_saveti
 COMMON         0x000000000505fdec      0x10c ../FPGAEncrypt_bsp/\libucosii_bsp.a(tcp_subr.o)
                0x000000000505fdec                tcb
                0x000000000505fe18                tcpstat
 COMMON         0x000000000505fef8      0x100 ../FPGAEncrypt_bsp/\libucosii_bsp.a(alt_irq_handler.o)
                0x000000000505fef8                alt_irq
 COMMON         0x000000000505fff8       0x30 ../FPGAEncrypt_bsp/\libucosii_bsp.a(altera_avalon_tse.o)
                0x000000000505fff8                pmac_groups
                0x0000000005060008                pphy_profiles
 COMMON         0x0000000005060028       0x64 ../FPGAEncrypt_bsp/\libucosii_bsp.a(timeouts.o)
                0x0000000005060028                intimers
 COMMON         0x000000000506008c      0x100 ../FPGAEncrypt_bsp/\libucosii_bsp.a(et_arp.o)
                0x000000000506008c                arp_table
 COMMON         0x000000000506018c       0x14 ../FPGAEncrypt_bsp/\libucosii_bsp.a(iface.o)
                0x000000000506018c                netlist
 COMMON         0x00000000050601a0       0x50 ../FPGAEncrypt_bsp/\libucosii_bsp.a(ip.o)
                0x00000000050601a0                ip_mib
 COMMON         0x00000000050601f0       0x18 ../FPGAEncrypt_bsp/\libucosii_bsp.a(ip_reasm.o)
                0x00000000050601f0                ire_stats
 COMMON         0x0000000005060208       0x10 ../FPGAEncrypt_bsp/\libucosii_bsp.a(udp.o)
                0x0000000005060208                udp_mib
 COMMON         0x0000000005060218       0x68 ../FPGAEncrypt_bsp/\libucosii_bsp.a(icmp.o)
                0x0000000005060218                icmp_mib
                0x0000000005060280                . = ALIGN (0x4)
                0x0000000005060280                __bss_end = ABSOLUTE (.)

.ext_epcq_flash_avl_mem
                0x0000000000300020        0x0
                [!provide]                        PROVIDE (_alt_partition_ext_epcq_flash_avl_mem_start, ABSOLUTE (.))
 *(.ext_epcq_flash_avl_mem .ext_epcq_flash_avl_mem. ext_epcq_flash_avl_mem.*)
                0x0000000000300020                . = ALIGN (0x4)
                [!provide]                        PROVIDE (_alt_partition_ext_epcq_flash_avl_mem_end, ABSOLUTE (.))
                [!provide]                        PROVIDE (_alt_partition_ext_epcq_flash_avl_mem_load_addr, LOADADDR (.ext_epcq_flash_avl_mem))

.descriptor_memory
                0x0000000001004000        0x0
                [!provide]                        PROVIDE (_alt_partition_descriptor_memory_start, ABSOLUTE (.))
 *(.descriptor_memory .descriptor_memory. descriptor_memory.*)
                0x0000000001004000                . = ALIGN (0x4)
                [!provide]                        PROVIDE (_alt_partition_descriptor_memory_end, ABSOLUTE (.))
                [!provide]                        PROVIDE (_alt_partition_descriptor_memory_load_addr, LOADADDR (.descriptor_memory))

.sll_hyperbus_controller_top_0
                0x0000000005060280        0x0
                [!provide]                        PROVIDE (_alt_partition_sll_hyperbus_controller_top_0_start, ABSOLUTE (.))
 *(.sll_hyperbus_controller_top_0 .sll_hyperbus_controller_top_0. sll_hyperbus_controller_top_0.*)
                0x0000000005060280                . = ALIGN (0x4)
                [!provide]                        PROVIDE (_alt_partition_sll_hyperbus_controller_top_0_end, ABSOLUTE (.))
                0x0000000005060280                _end = ABSOLUTE (.)
                0x0000000005060280                end = ABSOLUTE (.)
                0x0000000005060280                __alt_stack_base = ABSOLUTE (.)
                [!provide]                        PROVIDE (_alt_partition_sll_hyperbus_controller_top_0_load_addr, LOADADDR (.sll_hyperbus_controller_top_0))

.onchip_ram     0x0000000007000800        0x0
                [!provide]                        PROVIDE (_alt_partition_onchip_ram_start, ABSOLUTE (.))
 *(.onchip_ram .onchip_ram. onchip_ram.*)
                0x0000000007000800                . = ALIGN (0x4)
                [!provide]                        PROVIDE (_alt_partition_onchip_ram_end, ABSOLUTE (.))
                [!provide]                        PROVIDE (_alt_partition_onchip_ram_load_addr, LOADADDR (.onchip_ram))

.stab
 *(.stab)

.stabstr
 *(.stabstr)

.stab.excl
 *(.stab.excl)

.stab.exclstr
 *(.stab.exclstr)

.stab.index
 *(.stab.index)

.stab.indexstr
 *(.stab.indexstr)

.comment        0x0000000000000000       0x46
 *(.comment)
 .comment       0x0000000000000000       0x23 obj/default/alt_error_handler.o
                                         0x24 (size before relaxing)
 .comment       0x0000000000000023       0x24 obj/default/iniche_init.o
 .comment       0x0000000000000023       0x24 obj/default/led.o
 .comment       0x0000000000000023       0x24 obj/default/network_utilities.o
 .comment       0x0000000000000023       0x24 obj/default/simple_socket_server.o
 .comment       0x0000000000000023       0x24 obj/default/tse_my_system.o
 .comment       0x0000000000000023       0x24 c:/intelfpga_lite/18.1/nios2eds/bin/gnu/h-x86_64-mingw32/bin/../lib/gcc/nios2-elf/5.3.0/../../../../../H-x86_64-mingw32/nios2-elf/lib\libc.a(lib_a-ctype_.o)
 .comment       0x0000000000000023       0x24 c:/intelfpga_lite/18.1/nios2eds/bin/gnu/h-x86_64-mingw32/bin/../lib/gcc/nios2-elf/5.3.0/../../../../../H-x86_64-mingw32/nios2-elf/lib\libc.a(lib_a-fprintf.o)
 .comment       0x0000000000000023       0x24 c:/intelfpga_lite/18.1/nios2eds/bin/gnu/h-x86_64-mingw32/bin/../lib/gcc/nios2-elf/5.3.0/../../../../../H-x86_64-mingw32/nios2-elf/lib\libc.a(lib_a-fwrite.o)
 .comment       0x0000000000000023       0x24 c:/intelfpga_lite/18.1/nios2eds/bin/gnu/h-x86_64-mingw32/bin/../lib/gcc/nios2-elf/5.3.0/../../../../../H-x86_64-mingw32/nios2-elf/lib\libc.a(lib_a-getc.o)
 .comment       0x0000000000000023       0x24 c:/intelfpga_lite/18.1/nios2eds/bin/gnu/h-x86_64-mingw32/bin/../lib/gcc/nios2-elf/5.3.0/../../../../../H-x86_64-mingw32/nios2-elf/lib\libc.a(lib_a-impure.o)
 .comment       0x0000000000000023       0x24 c:/intelfpga_lite/18.1/nios2eds/bin/gnu/h-x86_64-mingw32/bin/../lib/gcc/nios2-elf/5.3.0/../../../../../H-x86_64-mingw32/nios2-elf/lib\libc.a(lib_a-memcpy.o)
 .comment       0x0000000000000023       0x24 c:/intelfpga_lite/18.1/nios2eds/bin/gnu/h-x86_64-mingw32/bin/../lib/gcc/nios2-elf/5.3.0/../../../../../H-x86_64-mingw32/nios2-elf/lib\libc.a(lib_a-memmove.o)
 .comment       0x0000000000000023       0x24 c:/intelfpga_lite/18.1/nios2eds/bin/gnu/h-x86_64-mingw32/bin/../lib/gcc/nios2-elf/5.3.0/../../../../../H-x86_64-mingw32/nios2-elf/lib\libc.a(lib_a-memset.o)
 .comment       0x0000000000000023       0x24 c:/intelfpga_lite/18.1/nios2eds/bin/gnu/h-x86_64-mingw32/bin/../lib/gcc/nios2-elf/5.3.0/../../../../../H-x86_64-mingw32/nios2-elf/lib\libc.a(lib_a-perror.o)
 .comment       0x0000000000000023       0x24 c:/intelfpga_lite/18.1/nios2eds/bin/gnu/h-x86_64-mingw32/bin/../lib/gcc/nios2-elf/5.3.0/../../../../../H-x86_64-mingw32/nios2-elf/lib\libc.a(lib_a-printf.o)
 .comment       0x0000000000000023       0x24 c:/intelfpga_lite/18.1/nios2eds/bin/gnu/h-x86_64-mingw32/bin/../lib/gcc/nios2-elf/5.3.0/../../../../../H-x86_64-mingw32/nios2-elf/lib\libc.a(lib_a-putc.o)
 .comment       0x0000000000000023       0x24 c:/intelfpga_lite/18.1/nios2eds/bin/gnu/h-x86_64-mingw32/bin/../lib/gcc/nios2-elf/5.3.0/../../../../../H-x86_64-mingw32/nios2-elf/lib\libc.a(lib_a-putchar.o)
 .comment       0x0000000000000023       0x24 c:/intelfpga_lite/18.1/nios2eds/bin/gnu/h-x86_64-mingw32/bin/../lib/gcc/nios2-elf/5.3.0/../../../../../H-x86_64-mingw32/nios2-elf/lib\libc.a(lib_a-puts.o)
 .comment       0x0000000000000023       0x24 c:/intelfpga_lite/18.1/nios2eds/bin/gnu/h-x86_64-mingw32/bin/../lib/gcc/nios2-elf/5.3.0/../../../../../H-x86_64-mingw32/nios2-elf/lib\libc.a(lib_a-rget.o)
 .comment       0x0000000000000023       0x24 c:/intelfpga_lite/18.1/nios2eds/bin/gnu/h-x86_64-mingw32/bin/../lib/gcc/nios2-elf/5.3.0/../../../../../H-x86_64-mingw32/nios2-elf/lib\libc.a(lib_a-sprintf.o)
 .comment       0x0000000000000023       0x24 c:/intelfpga_lite/18.1/nios2eds/bin/gnu/h-x86_64-mingw32/bin/../lib/gcc/nios2-elf/5.3.0/../../../../../H-x86_64-mingw32/nios2-elf/lib\libc.a(lib_a-strchr.o)
 .comment       0x0000000000000023       0x24 c:/intelfpga_lite/18.1/nios2eds/bin/gnu/h-x86_64-mingw32/bin/../lib/gcc/nios2-elf/5.3.0/../../../../../H-x86_64-mingw32/nios2-elf/lib\libc.a(lib_a-strerror.o)
 .comment       0x0000000000000023       0x24 c:/intelfpga_lite/18.1/nios2eds/bin/gnu/h-x86_64-mingw32/bin/../lib/gcc/nios2-elf/5.3.0/../../../../../H-x86_64-mingw32/nios2-elf/lib\libc.a(lib_a-strlen.o)
 .comment       0x0000000000000023       0x24 c:/intelfpga_lite/18.1/nios2eds/bin/gnu/h-x86_64-mingw32/bin/../lib/gcc/nios2-elf/5.3.0/../../../../../H-x86_64-mingw32/nios2-elf/lib\libc.a(lib_a-strstr.o)
 .comment       0x0000000000000023       0x24 c:/intelfpga_lite/18.1/nios2eds/bin/gnu/h-x86_64-mingw32/bin/../lib/gcc/nios2-elf/5.3.0/../../../../../H-x86_64-mingw32/nios2-elf/lib\libc.a(lib_a-svfprintf.o)
 .comment       0x0000000000000023       0x24 c:/intelfpga_lite/18.1/nios2eds/bin/gnu/h-x86_64-mingw32/bin/../lib/gcc/nios2-elf/5.3.0/../../../../../H-x86_64-mingw32/nios2-elf/lib\libc.a(lib_a-u_strerr.o)
 .comment       0x0000000000000023       0x24 c:/intelfpga_lite/18.1/nios2eds/bin/gnu/h-x86_64-mingw32/bin/../lib/gcc/nios2-elf/5.3.0/../../../../../H-x86_64-mingw32/nios2-elf/lib\libc.a(lib_a-vfprintf.o)
 .comment       0x0000000000000023       0x24 c:/intelfpga_lite/18.1/nios2eds/bin/gnu/h-x86_64-mingw32/bin/../lib/gcc/nios2-elf/5.3.0/../../../../../H-x86_64-mingw32/nios2-elf/lib\libc.a(lib_a-wbuf.o)
 .comment       0x0000000000000023       0x24 c:/intelfpga_lite/18.1/nios2eds/bin/gnu/h-x86_64-mingw32/bin/../lib/gcc/nios2-elf/5.3.0/../../../../../H-x86_64-mingw32/nios2-elf/lib\libc.a(lib_a-wsetup.o)
 .comment       0x0000000000000023       0x24 c:/intelfpga_lite/18.1/nios2eds/bin/gnu/h-x86_64-mingw32/bin/../lib/gcc/nios2-elf/5.3.0/../../../../../H-x86_64-mingw32/nios2-elf/lib\libc.a(lib_a-dtoa.o)
 .comment       0x0000000000000023       0x24 c:/intelfpga_lite/18.1/nios2eds/bin/gnu/h-x86_64-mingw32/bin/../lib/gcc/nios2-elf/5.3.0/../../../../../H-x86_64-mingw32/nios2-elf/lib\libc.a(lib_a-fflush.o)
 .comment       0x0000000000000023       0x24 c:/intelfpga_lite/18.1/nios2eds/bin/gnu/h-x86_64-mingw32/bin/../lib/gcc/nios2-elf/5.3.0/../../../../../H-x86_64-mingw32/nios2-elf/lib\libc.a(lib_a-findfp.o)
 .comment       0x0000000000000023       0x24 c:/intelfpga_lite/18.1/nios2eds/bin/gnu/h-x86_64-mingw32/bin/../lib/gcc/nios2-elf/5.3.0/../../../../../H-x86_64-mingw32/nios2-elf/lib\libc.a(lib_a-fputc.o)
 .comment       0x0000000000000023       0x24 c:/intelfpga_lite/18.1/nios2eds/bin/gnu/h-x86_64-mingw32/bin/../lib/gcc/nios2-elf/5.3.0/../../../../../H-x86_64-mingw32/nios2-elf/lib\libc.a(lib_a-fputs.o)
 .comment       0x0000000000000023       0x24 c:/intelfpga_lite/18.1/nios2eds/bin/gnu/h-x86_64-mingw32/bin/../lib/gcc/nios2-elf/5.3.0/../../../../../H-x86_64-mingw32/nios2-elf/lib\libc.a(lib_a-freer.o)
 .comment       0x0000000000000023       0x24 c:/intelfpga_lite/18.1/nios2eds/bin/gnu/h-x86_64-mingw32/bin/../lib/gcc/nios2-elf/5.3.0/../../../../../H-x86_64-mingw32/nios2-elf/lib\libc.a(lib_a-fvwrite.o)
 .comment       0x0000000000000023       0x24 c:/intelfpga_lite/18.1/nios2eds/bin/gnu/h-x86_64-mingw32/bin/../lib/gcc/nios2-elf/5.3.0/../../../../../H-x86_64-mingw32/nios2-elf/lib\libc.a(lib_a-fwalk.o)
 .comment       0x0000000000000023       0x24 c:/intelfpga_lite/18.1/nios2eds/bin/gnu/h-x86_64-mingw32/bin/../lib/gcc/nios2-elf/5.3.0/../../../../../H-x86_64-mingw32/nios2-elf/lib\libc.a(lib_a-locale.o)
 .comment       0x0000000000000023       0x24 c:/intelfpga_lite/18.1/nios2eds/bin/gnu/h-x86_64-mingw32/bin/../lib/gcc/nios2-elf/5.3.0/../../../../../H-x86_64-mingw32/nios2-elf/lib\libc.a(lib_a-makebuf.o)
 .comment       0x0000000000000023       0x24 c:/intelfpga_lite/18.1/nios2eds/bin/gnu/h-x86_64-mingw32/bin/../lib/gcc/nios2-elf/5.3.0/../../../../../H-x86_64-mingw32/nios2-elf/lib\libc.a(lib_a-mallocr.o)
 .comment       0x0000000000000023       0x24 c:/intelfpga_lite/18.1/nios2eds/bin/gnu/h-x86_64-mingw32/bin/../lib/gcc/nios2-elf/5.3.0/../../../../../H-x86_64-mingw32/nios2-elf/lib\libc.a(lib_a-memchr.o)
 .comment       0x0000000000000023       0x24 c:/intelfpga_lite/18.1/nios2eds/bin/gnu/h-x86_64-mingw32/bin/../lib/gcc/nios2-elf/5.3.0/../../../../../H-x86_64-mingw32/nios2-elf/lib\libc.a(lib_a-memcmp.o)
 .comment       0x0000000000000023       0x24 c:/intelfpga_lite/18.1/nios2eds/bin/gnu/h-x86_64-mingw32/bin/../lib/gcc/nios2-elf/5.3.0/../../../../../H-x86_64-mingw32/nios2-elf/lib\libc.a(lib_a-mprec.o)
 .comment       0x0000000000000023       0x24 c:/intelfpga_lite/18.1/nios2eds/bin/gnu/h-x86_64-mingw32/bin/../lib/gcc/nios2-elf/5.3.0/../../../../../H-x86_64-mingw32/nios2-elf/lib\libc.a(lib_a-reallocr.o)
 .comment       0x0000000000000023       0x24 c:/intelfpga_lite/18.1/nios2eds/bin/gnu/h-x86_64-mingw32/bin/../lib/gcc/nios2-elf/5.3.0/../../../../../H-x86_64-mingw32/nios2-elf/lib\libc.a(lib_a-refill.o)
 .comment       0x0000000000000023       0x24 c:/intelfpga_lite/18.1/nios2eds/bin/gnu/h-x86_64-mingw32/bin/../lib/gcc/nios2-elf/5.3.0/../../../../../H-x86_64-mingw32/nios2-elf/lib\libc.a(lib_a-s_fpclassify.o)
 .comment       0x0000000000000023       0x24 c:/intelfpga_lite/18.1/nios2eds/bin/gnu/h-x86_64-mingw32/bin/../lib/gcc/nios2-elf/5.3.0/../../../../../H-x86_64-mingw32/nios2-elf/lib\libc.a(lib_a-sbrkr.o)
 .comment       0x0000000000000023       0x24 c:/intelfpga_lite/18.1/nios2eds/bin/gnu/h-x86_64-mingw32/bin/../lib/gcc/nios2-elf/5.3.0/../../../../../H-x86_64-mingw32/nios2-elf/lib\libc.a(lib_a-stdio.o)
 .comment       0x0000000000000023       0x24 c:/intelfpga_lite/18.1/nios2eds/bin/gnu/h-x86_64-mingw32/bin/../lib/gcc/nios2-elf/5.3.0/../../../../../H-x86_64-mingw32/nios2-elf/lib\libc.a(lib_a-strcmp.o)
 .comment       0x0000000000000023       0x24 c:/intelfpga_lite/18.1/nios2eds/bin/gnu/h-x86_64-mingw32/bin/../lib/gcc/nios2-elf/5.3.0/../../../../../H-x86_64-mingw32/nios2-elf/lib\libc.a(lib_a-svfiprintf.o)
 .comment       0x0000000000000023       0x24 c:/intelfpga_lite/18.1/nios2eds/bin/gnu/h-x86_64-mingw32/bin/../lib/gcc/nios2-elf/5.3.0/../../../../../H-x86_64-mingw32/nios2-elf/lib\libc.a(lib_a-vfiprintf.o)
 .comment       0x0000000000000023       0x24 c:/intelfpga_lite/18.1/nios2eds/bin/gnu/h-x86_64-mingw32/bin/../lib/gcc/nios2-elf/5.3.0/../../../../../H-x86_64-mingw32/nios2-elf/lib\libc.a(lib_a-writer.o)
 .comment       0x0000000000000023       0x24 c:/intelfpga_lite/18.1/nios2eds/bin/gnu/h-x86_64-mingw32/bin/../lib/gcc/nios2-elf/5.3.0/../../../../../H-x86_64-mingw32/nios2-elf/lib\libc.a(closer.o)
 .comment       0x0000000000000023       0x24 c:/intelfpga_lite/18.1/nios2eds/bin/gnu/h-x86_64-mingw32/bin/../lib/gcc/nios2-elf/5.3.0/../../../../../H-x86_64-mingw32/nios2-elf/lib\libc.a(lib_a-callocr.o)
 .comment       0x0000000000000023       0x24 c:/intelfpga_lite/18.1/nios2eds/bin/gnu/h-x86_64-mingw32/bin/../lib/gcc/nios2-elf/5.3.0/../../../../../H-x86_64-mingw32/nios2-elf/lib\libc.a(lib_a-fclose.o)
 .comment       0x0000000000000023       0x24 c:/intelfpga_lite/18.1/nios2eds/bin/gnu/h-x86_64-mingw32/bin/../lib/gcc/nios2-elf/5.3.0/../../../../../H-x86_64-mingw32/nios2-elf/lib\libc.a(lib_a-fputwc.o)
 .comment       0x0000000000000023       0x24 c:/intelfpga_lite/18.1/nios2eds/bin/gnu/h-x86_64-mingw32/bin/../lib/gcc/nios2-elf/5.3.0/../../../../../H-x86_64-mingw32/nios2-elf/lib\libc.a(lib_a-fstatr.o)
 .comment       0x0000000000000023       0x24 c:/intelfpga_lite/18.1/nios2eds/bin/gnu/h-x86_64-mingw32/bin/../lib/gcc/nios2-elf/5.3.0/../../../../../H-x86_64-mingw32/nios2-elf/lib\libc.a(lib_a-int_errno.o)
 .comment       0x0000000000000023       0x24 c:/intelfpga_lite/18.1/nios2eds/bin/gnu/h-x86_64-mingw32/bin/../lib/gcc/nios2-elf/5.3.0/../../../../../H-x86_64-mingw32/nios2-elf/lib\libc.a(lib_a-isattyr.o)
 .comment       0x0000000000000023       0x24 c:/intelfpga_lite/18.1/nios2eds/bin/gnu/h-x86_64-mingw32/bin/../lib/gcc/nios2-elf/5.3.0/../../../../../H-x86_64-mingw32/nios2-elf/lib\libc.a(lib_a-lseekr.o)
 .comment       0x0000000000000023       0x24 c:/intelfpga_lite/18.1/nios2eds/bin/gnu/h-x86_64-mingw32/bin/../lib/gcc/nios2-elf/5.3.0/../../../../../H-x86_64-mingw32/nios2-elf/lib\libc.a(lib_a-readr.o)
 .comment       0x0000000000000023       0x24 c:/intelfpga_lite/18.1/nios2eds/bin/gnu/h-x86_64-mingw32/bin/../lib/gcc/nios2-elf/5.3.0/../../../../../H-x86_64-mingw32/nios2-elf/lib\libc.a(lib_a-wcrtomb.o)
 .comment       0x0000000000000023       0x24 c:/intelfpga_lite/18.1/nios2eds/bin/gnu/h-x86_64-mingw32/bin/../lib/gcc/nios2-elf/5.3.0/../../../../../H-x86_64-mingw32/nios2-elf/lib\libc.a(lib_a-wctomb_r.o)
 .comment       0x0000000000000023       0x24 c:/intelfpga_lite/18.1/nios2eds/bin/gnu/h-x86_64-mingw32/bin/../lib/gcc/nios2-elf/5.3.0\libgcc.a(_udivdi3.o)
 .comment       0x0000000000000023       0x24 c:/intelfpga_lite/18.1/nios2eds/bin/gnu/h-x86_64-mingw32/bin/../lib/gcc/nios2-elf/5.3.0\libgcc.a(_umoddi3.o)
 .comment       0x0000000000000023       0x24 c:/intelfpga_lite/18.1/nios2eds/bin/gnu/h-x86_64-mingw32/bin/../lib/gcc/nios2-elf/5.3.0\libgcc.a(lib2-divmod.o)
 .comment       0x0000000000000023       0x24 c:/intelfpga_lite/18.1/nios2eds/bin/gnu/h-x86_64-mingw32/bin/../lib/gcc/nios2-elf/5.3.0\libgcc.a(adddf3.o)
 .comment       0x0000000000000023       0x24 c:/intelfpga_lite/18.1/nios2eds/bin/gnu/h-x86_64-mingw32/bin/../lib/gcc/nios2-elf/5.3.0\libgcc.a(divdf3.o)
 .comment       0x0000000000000023       0x24 c:/intelfpga_lite/18.1/nios2eds/bin/gnu/h-x86_64-mingw32/bin/../lib/gcc/nios2-elf/5.3.0\libgcc.a(eqdf2.o)
 .comment       0x0000000000000023       0x24 c:/intelfpga_lite/18.1/nios2eds/bin/gnu/h-x86_64-mingw32/bin/../lib/gcc/nios2-elf/5.3.0\libgcc.a(gedf2.o)
 .comment       0x0000000000000023       0x24 c:/intelfpga_lite/18.1/nios2eds/bin/gnu/h-x86_64-mingw32/bin/../lib/gcc/nios2-elf/5.3.0\libgcc.a(ledf2.o)
 .comment       0x0000000000000023       0x24 c:/intelfpga_lite/18.1/nios2eds/bin/gnu/h-x86_64-mingw32/bin/../lib/gcc/nios2-elf/5.3.0\libgcc.a(muldf3.o)
 .comment       0x0000000000000023       0x24 c:/intelfpga_lite/18.1/nios2eds/bin/gnu/h-x86_64-mingw32/bin/../lib/gcc/nios2-elf/5.3.0\libgcc.a(subdf3.o)
 .comment       0x0000000000000023       0x24 c:/intelfpga_lite/18.1/nios2eds/bin/gnu/h-x86_64-mingw32/bin/../lib/gcc/nios2-elf/5.3.0\libgcc.a(fixdfsi.o)
 .comment       0x0000000000000023       0x24 c:/intelfpga_lite/18.1/nios2eds/bin/gnu/h-x86_64-mingw32/bin/../lib/gcc/nios2-elf/5.3.0\libgcc.a(floatsidf.o)
 .comment       0x0000000000000023       0x24 c:/intelfpga_lite/18.1/nios2eds/bin/gnu/h-x86_64-mingw32/bin/../lib/gcc/nios2-elf/5.3.0\libgcc.a(floatunsidf.o)
 .comment       0x0000000000000023       0x24 c:/intelfpga_lite/18.1/nios2eds/bin/gnu/h-x86_64-mingw32/bin/../lib/gcc/nios2-elf/5.3.0\libgcc.a(_clz.o)
 .comment       0x0000000000000023       0x24 c:/intelfpga_lite/18.1/nios2eds/bin/gnu/h-x86_64-mingw32/bin/../lib/gcc/nios2-elf/5.3.0\libgcc.a(_clzsi2.o)
 .comment       0x0000000000000023       0x24 ../FPGAEncrypt_bsp/\libucosii_bsp.a(alt_fstat.o)
 .comment       0x0000000000000023       0x24 ../FPGAEncrypt_bsp/\libucosii_bsp.a(alt_isatty.o)
 .comment       0x0000000000000023       0x24 ../FPGAEncrypt_bsp/\libucosii_bsp.a(alt_lseek.o)
 .comment       0x0000000000000023       0x24 ../FPGAEncrypt_bsp/\libucosii_bsp.a(alt_main.o)
 .comment       0x0000000000000023       0x24 ../FPGAEncrypt_bsp/\libucosii_bsp.a(alt_sbrk.o)
 .comment       0x0000000000000023       0x24 ../FPGAEncrypt_bsp/\libucosii_bsp.a(alt_env_lock.o)
 .comment       0x0000000000000023       0x24 ../FPGAEncrypt_bsp/\libucosii_bsp.a(alt_malloc_lock.o)
 .comment       0x0000000000000023       0x24 ../FPGAEncrypt_bsp/\libucosii_bsp.a(os_core.o)
 .comment       0x0000000000000023       0x24 ../FPGAEncrypt_bsp/\libucosii_bsp.a(os_dbg.o)
 .comment       0x0000000000000023       0x24 ../FPGAEncrypt_bsp/\libucosii_bsp.a(os_flag.o)
 .comment       0x0000000000000023       0x24 ../FPGAEncrypt_bsp/\libucosii_bsp.a(os_mem.o)
 .comment       0x0000000000000023       0x24 ../FPGAEncrypt_bsp/\libucosii_bsp.a(os_q.o)
 .comment       0x0000000000000023       0x24 ../FPGAEncrypt_bsp/\libucosii_bsp.a(os_sem.o)
 .comment       0x0000000000000023       0x24 ../FPGAEncrypt_bsp/\libucosii_bsp.a(os_task.o)
 .comment       0x0000000000000023       0x24 ../FPGAEncrypt_bsp/\libucosii_bsp.a(os_time.o)
 .comment       0x0000000000000023       0x24 ../FPGAEncrypt_bsp/\libucosii_bsp.a(alt_sys_init.o)
 .comment       0x0000000000000023       0x24 ../FPGAEncrypt_bsp/\libucosii_bsp.a(altera_avalon_jtag_uart_fd.o)
 .comment       0x0000000000000023       0x24 ../FPGAEncrypt_bsp/\libucosii_bsp.a(altera_avalon_jtag_uart_init.o)
 .comment       0x0000000000000023       0x24 ../FPGAEncrypt_bsp/\libucosii_bsp.a(altera_avalon_jtag_uart_ioctl.o)
 .comment       0x0000000000000023       0x24 ../FPGAEncrypt_bsp/\libucosii_bsp.a(altera_avalon_jtag_uart_read.o)
 .comment       0x0000000000000023       0x24 ../FPGAEncrypt_bsp/\libucosii_bsp.a(altera_avalon_jtag_uart_write.o)
 .comment       0x0000000000000023       0x24 ../FPGAEncrypt_bsp/\libucosii_bsp.a(altera_avalon_timer_sc.o)
 .comment       0x0000000000000023       0x23 ../FPGAEncrypt_bsp/\libucosii_bsp.a(altera_epcq_controller2.o)
                                         0x24 (size before relaxing)
 .comment       0x0000000000000046       0x24 ../FPGAEncrypt_bsp/\libucosii_bsp.a(altera_msgdma.o)
 .comment       0x0000000000000046       0x24 ../FPGAEncrypt_bsp/\libucosii_bsp.a(altera_remote_update.o)
 .comment       0x0000000000000046       0x24 ../FPGAEncrypt_bsp/\libucosii_bsp.a(ins_tse_mac.o)
 .comment       0x0000000000000046       0x24 ../FPGAEncrypt_bsp/\libucosii_bsp.a(alt_iniche_close.o)
 .comment       0x0000000000000046       0x24 ../FPGAEncrypt_bsp/\libucosii_bsp.a(alt_iniche_dev.o)
 .comment       0x0000000000000046       0x24 ../FPGAEncrypt_bsp/\libucosii_bsp.a(alt_iniche_read.o)
 .comment       0x0000000000000046       0x24 ../FPGAEncrypt_bsp/\libucosii_bsp.a(alt_iniche_write.o)
 .comment       0x0000000000000046       0x24 ../FPGAEncrypt_bsp/\libucosii_bsp.a(ipnet.o)
 .comment       0x0000000000000046       0x24 ../FPGAEncrypt_bsp/\libucosii_bsp.a(ipstart.o)
 .comment       0x0000000000000046       0x24 ../FPGAEncrypt_bsp/\libucosii_bsp.a(igmp_cmn.o)
 .comment       0x0000000000000046       0x24 ../FPGAEncrypt_bsp/\libucosii_bsp.a(bsdsock.o)
 .comment       0x0000000000000046       0x24 ../FPGAEncrypt_bsp/\libucosii_bsp.a(cksum.o)
 .comment       0x0000000000000046       0x24 ../FPGAEncrypt_bsp/\libucosii_bsp.a(in_utils.o)
 .comment       0x0000000000000046       0x24 ../FPGAEncrypt_bsp/\libucosii_bsp.a(netmain.o)
 .comment       0x0000000000000046       0x24 ../FPGAEncrypt_bsp/\libucosii_bsp.a(tk_crnos.o)
 .comment       0x0000000000000046       0x24 ../FPGAEncrypt_bsp/\libucosii_bsp.a(dhcpclnt.o)
 .comment       0x0000000000000046       0x24 ../FPGAEncrypt_bsp/\libucosii_bsp.a(dhcputil.o)
 .comment       0x0000000000000046       0x24 ../FPGAEncrypt_bsp/\libucosii_bsp.a(pktalloc.o)
 .comment       0x0000000000000046       0x24 ../FPGAEncrypt_bsp/\libucosii_bsp.a(q.o)
 .comment       0x0000000000000046       0x24 ../FPGAEncrypt_bsp/\libucosii_bsp.a(udp_open.o)
 .comment       0x0000000000000046       0x24 ../FPGAEncrypt_bsp/\libucosii_bsp.a(brdutils.o)
 .comment       0x0000000000000046       0x24 ../FPGAEncrypt_bsp/\libucosii_bsp.a(osportco.o)
 .comment       0x0000000000000046       0x24 ../FPGAEncrypt_bsp/\libucosii_bsp.a(targnios.o)
 .comment       0x0000000000000046       0x24 ../FPGAEncrypt_bsp/\libucosii_bsp.a(nptcp.o)
 .comment       0x0000000000000046       0x24 ../FPGAEncrypt_bsp/\libucosii_bsp.a(rawsock.o)
 .comment       0x0000000000000046       0x24 ../FPGAEncrypt_bsp/\libucosii_bsp.a(sockcall.o)
 .comment       0x0000000000000046       0x24 ../FPGAEncrypt_bsp/\libucosii_bsp.a(socket.o)
 .comment       0x0000000000000046       0x24 ../FPGAEncrypt_bsp/\libucosii_bsp.a(socket2.o)
 .comment       0x0000000000000046       0x24 ../FPGAEncrypt_bsp/\libucosii_bsp.a(soselect.o)
 .comment       0x0000000000000046       0x24 ../FPGAEncrypt_bsp/\libucosii_bsp.a(tcp_in.o)
 .comment       0x0000000000000046       0x24 ../FPGAEncrypt_bsp/\libucosii_bsp.a(tcp_out.o)
 .comment       0x0000000000000046       0x24 ../FPGAEncrypt_bsp/\libucosii_bsp.a(tcp_subr.o)
 .comment       0x0000000000000046       0x24 ../FPGAEncrypt_bsp/\libucosii_bsp.a(tcp_timr.o)
 .comment       0x0000000000000046       0x24 ../FPGAEncrypt_bsp/\libucosii_bsp.a(tcp_usr.o)
 .comment       0x0000000000000046       0x24 ../FPGAEncrypt_bsp/\libucosii_bsp.a(tcpport.o)
 .comment       0x0000000000000046       0x24 ../FPGAEncrypt_bsp/\libucosii_bsp.a(udpsock.o)
 .comment       0x0000000000000046       0x24 ../FPGAEncrypt_bsp/\libucosii_bsp.a(alt_alarm_start.o)
 .comment       0x0000000000000046       0x24 ../FPGAEncrypt_bsp/\libucosii_bsp.a(alt_busy_sleep.o)
 .comment       0x0000000000000046       0x24 ../FPGAEncrypt_bsp/\libucosii_bsp.a(alt_close.o)
 .comment       0x0000000000000046       0x24 ../FPGAEncrypt_bsp/\libucosii_bsp.a(alt_dcache_flush.o)
 .comment       0x0000000000000046       0x24 ../FPGAEncrypt_bsp/\libucosii_bsp.a(alt_dev.o)
 .comment       0x0000000000000046       0x24 ../FPGAEncrypt_bsp/\libucosii_bsp.a(alt_dev_llist_insert.o)
 .comment       0x0000000000000046       0x24 ../FPGAEncrypt_bsp/\libucosii_bsp.a(alt_do_ctors.o)
 .comment       0x0000000000000046       0x24 ../FPGAEncrypt_bsp/\libucosii_bsp.a(alt_do_dtors.o)
 .comment       0x0000000000000046       0x24 ../FPGAEncrypt_bsp/\libucosii_bsp.a(alt_errno.o)
 .comment       0x0000000000000046       0x24 ../FPGAEncrypt_bsp/\libucosii_bsp.a(alt_find_dev.o)
 .comment       0x0000000000000046       0x24 ../FPGAEncrypt_bsp/\libucosii_bsp.a(alt_flash_dev.o)
 .comment       0x0000000000000046       0x24 ../FPGAEncrypt_bsp/\libucosii_bsp.a(alt_iic.o)
 .comment       0x0000000000000046       0x24 ../FPGAEncrypt_bsp/\libucosii_bsp.a(alt_iic_isr_register.o)
 .comment       0x0000000000000046       0x24 ../FPGAEncrypt_bsp/\libucosii_bsp.a(alt_io_redirect.o)
 .comment       0x0000000000000046       0x24 ../FPGAEncrypt_bsp/\libucosii_bsp.a(alt_irq_handler.o)
 .comment       0x0000000000000046       0x24 ../FPGAEncrypt_bsp/\libucosii_bsp.a(alt_irq_vars.o)
 .comment       0x0000000000000046       0x24 ../FPGAEncrypt_bsp/\libucosii_bsp.a(alt_open.o)
 .comment       0x0000000000000046       0x24 ../FPGAEncrypt_bsp/\libucosii_bsp.a(alt_printf.o)
 .comment       0x0000000000000046       0x24 ../FPGAEncrypt_bsp/\libucosii_bsp.a(alt_putchar.o)
 .comment       0x0000000000000046       0x24 ../FPGAEncrypt_bsp/\libucosii_bsp.a(alt_read.o)
 .comment       0x0000000000000046       0x24 ../FPGAEncrypt_bsp/\libucosii_bsp.a(alt_release_fd.o)
 .comment       0x0000000000000046       0x24 ../FPGAEncrypt_bsp/\libucosii_bsp.a(alt_remap_cached.o)
 .comment       0x0000000000000046       0x24 ../FPGAEncrypt_bsp/\libucosii_bsp.a(alt_tick.o)
 .comment       0x0000000000000046       0x24 ../FPGAEncrypt_bsp/\libucosii_bsp.a(alt_uncached_free.o)
 .comment       0x0000000000000046       0x24 ../FPGAEncrypt_bsp/\libucosii_bsp.a(alt_uncached_malloc.o)
 .comment       0x0000000000000046       0x24 ../FPGAEncrypt_bsp/\libucosii_bsp.a(alt_write.o)
 .comment       0x0000000000000046       0x24 ../FPGAEncrypt_bsp/\libucosii_bsp.a(altera_nios2_gen2_irq.o)
 .comment       0x0000000000000046       0x24 ../FPGAEncrypt_bsp/\libucosii_bsp.a(os_cpu_c.o)
 .comment       0x0000000000000046       0x24 ../FPGAEncrypt_bsp/\libucosii_bsp.a(altera_avalon_tse.o)
 .comment       0x0000000000000046       0x24 ../FPGAEncrypt_bsp/\libucosii_bsp.a(allports.o)
 .comment       0x0000000000000046       0x24 ../FPGAEncrypt_bsp/\libucosii_bsp.a(timeouts.o)
 .comment       0x0000000000000046       0x24 ../FPGAEncrypt_bsp/\libucosii_bsp.a(tk_misc.o)
 .comment       0x0000000000000046       0x24 ../FPGAEncrypt_bsp/\libucosii_bsp.a(alt_iniche_fcntl.o)
 .comment       0x0000000000000046       0x24 ../FPGAEncrypt_bsp/\libucosii_bsp.a(et_arp.o)
 .comment       0x0000000000000046       0x24 ../FPGAEncrypt_bsp/\libucosii_bsp.a(iface.o)
 .comment       0x0000000000000046       0x24 ../FPGAEncrypt_bsp/\libucosii_bsp.a(ip.o)
 .comment       0x0000000000000046       0x24 ../FPGAEncrypt_bsp/\libucosii_bsp.a(ip_reasm.o)
 .comment       0x0000000000000046       0x24 ../FPGAEncrypt_bsp/\libucosii_bsp.a(ipdemux.o)
 .comment       0x0000000000000046       0x24 ../FPGAEncrypt_bsp/\libucosii_bsp.a(ipmc.o)
 .comment       0x0000000000000046       0x24 ../FPGAEncrypt_bsp/\libucosii_bsp.a(ipport.o)
 .comment       0x0000000000000046       0x24 ../FPGAEncrypt_bsp/\libucosii_bsp.a(ipraw.o)
 .comment       0x0000000000000046       0x24 ../FPGAEncrypt_bsp/\libucosii_bsp.a(iproute.o)
 .comment       0x0000000000000046       0x24 ../FPGAEncrypt_bsp/\libucosii_bsp.a(udp.o)
 .comment       0x0000000000000046       0x24 ../FPGAEncrypt_bsp/\libucosii_bsp.a(igmp.o)
 .comment       0x0000000000000046       0x24 ../FPGAEncrypt_bsp/\libucosii_bsp.a(igmp2.o)
 .comment       0x0000000000000046       0x24 ../FPGAEncrypt_bsp/\libucosii_bsp.a(ipopt.o)
 .comment       0x0000000000000046       0x24 ../FPGAEncrypt_bsp/\libucosii_bsp.a(u_mctest.o)
 .comment       0x0000000000000046       0x24 ../FPGAEncrypt_bsp/\libucosii_bsp.a(dhcsetup.o)
 .comment       0x0000000000000046       0x24 ../FPGAEncrypt_bsp/\libucosii_bsp.a(memdev.o)
 .comment       0x0000000000000046       0x24 ../FPGAEncrypt_bsp/\libucosii_bsp.a(parseip.o)
 .comment       0x0000000000000046       0x24 ../FPGAEncrypt_bsp/\libucosii_bsp.a(tcpcksum.o)
 .comment       0x0000000000000046       0x24 ../FPGAEncrypt_bsp/\libucosii_bsp.a(in_pcb.o)
 .comment       0x0000000000000046       0x24 ../FPGAEncrypt_bsp/\libucosii_bsp.a(vfsfiles.o)
 .comment       0x0000000000000046       0x24 ../FPGAEncrypt_bsp/\libucosii_bsp.a(vfsport.o)
 .comment       0x0000000000000046       0x24 ../FPGAEncrypt_bsp/\libucosii_bsp.a(alt_fcntl.o)
 .comment       0x0000000000000046       0x24 ../FPGAEncrypt_bsp/\libucosii_bsp.a(alt_find_file.o)
 .comment       0x0000000000000046       0x24 ../FPGAEncrypt_bsp/\libucosii_bsp.a(alt_get_fd.o)
 .comment       0x0000000000000046       0x24 ../FPGAEncrypt_bsp/\libucosii_bsp.a(alt_instruction_exception_entry.o)
 .comment       0x0000000000000046       0x24 ../FPGAEncrypt_bsp/\libucosii_bsp.a(alt_usleep.o)
 .comment       0x0000000000000046       0x24 ../FPGAEncrypt_bsp/\libucosii_bsp.a(icmp.o)
 .comment       0x0000000000000046       0x24 c:/intelfpga_lite/18.1/nios2eds/bin/gnu/h-x86_64-mingw32/bin/../lib/gcc/nios2-elf/5.3.0/../../../../../H-x86_64-mingw32/nios2-elf/lib\libc.a(lib_a-atexit.o)
 .comment       0x0000000000000046       0x24 c:/intelfpga_lite/18.1/nios2eds/bin/gnu/h-x86_64-mingw32/bin/../lib/gcc/nios2-elf/5.3.0/../../../../../H-x86_64-mingw32/nios2-elf/lib\libc.a(lib_a-atoi.o)
 .comment       0x0000000000000046       0x24 c:/intelfpga_lite/18.1/nios2eds/bin/gnu/h-x86_64-mingw32/bin/../lib/gcc/nios2-elf/5.3.0/../../../../../H-x86_64-mingw32/nios2-elf/lib\libc.a(lib_a-exit.o)
 .comment       0x0000000000000046       0x24 c:/intelfpga_lite/18.1/nios2eds/bin/gnu/h-x86_64-mingw32/bin/../lib/gcc/nios2-elf/5.3.0/../../../../../H-x86_64-mingw32/nios2-elf/lib\libc.a(lib_a-malign.o)
 .comment       0x0000000000000046       0x24 c:/intelfpga_lite/18.1/nios2eds/bin/gnu/h-x86_64-mingw32/bin/../lib/gcc/nios2-elf/5.3.0/../../../../../H-x86_64-mingw32/nios2-elf/lib\libc.a(lib_a-malignr.o)
 .comment       0x0000000000000046       0x24 c:/intelfpga_lite/18.1/nios2eds/bin/gnu/h-x86_64-mingw32/bin/../lib/gcc/nios2-elf/5.3.0/../../../../../H-x86_64-mingw32/nios2-elf/lib\libc.a(lib_a-malloc.o)
 .comment       0x0000000000000046       0x24 c:/intelfpga_lite/18.1/nios2eds/bin/gnu/h-x86_64-mingw32/bin/../lib/gcc/nios2-elf/5.3.0/../../../../../H-x86_64-mingw32/nios2-elf/lib\libc.a(lib_a-strcpy.o)
 .comment       0x0000000000000046       0x24 c:/intelfpga_lite/18.1/nios2eds/bin/gnu/h-x86_64-mingw32/bin/../lib/gcc/nios2-elf/5.3.0/../../../../../H-x86_64-mingw32/nios2-elf/lib\libc.a(lib_a-strncmp.o)
 .comment       0x0000000000000046       0x24 c:/intelfpga_lite/18.1/nios2eds/bin/gnu/h-x86_64-mingw32/bin/../lib/gcc/nios2-elf/5.3.0/../../../../../H-x86_64-mingw32/nios2-elf/lib\libc.a(lib_a-strncpy.o)
 .comment       0x0000000000000046       0x24 c:/intelfpga_lite/18.1/nios2eds/bin/gnu/h-x86_64-mingw32/bin/../lib/gcc/nios2-elf/5.3.0/../../../../../H-x86_64-mingw32/nios2-elf/lib\libc.a(lib_a-strtol.o)
 .comment       0x0000000000000046       0x24 c:/intelfpga_lite/18.1/nios2eds/bin/gnu/h-x86_64-mingw32/bin/../lib/gcc/nios2-elf/5.3.0/../../../../../H-x86_64-mingw32/nios2-elf/lib\libc.a(lib_a-vprintf.o)
 .comment       0x0000000000000046       0x24 c:/intelfpga_lite/18.1/nios2eds/bin/gnu/h-x86_64-mingw32/bin/../lib/gcc/nios2-elf/5.3.0/../../../../../H-x86_64-mingw32/nios2-elf/lib\libc.a(lib_a-vsprintf.o)
 .comment       0x0000000000000046       0x24 c:/intelfpga_lite/18.1/nios2eds/bin/gnu/h-x86_64-mingw32/bin/../lib/gcc/nios2-elf/5.3.0/../../../../../H-x86_64-mingw32/nios2-elf/lib\libc.a(lib_a-__atexit.o)
 .comment       0x0000000000000046       0x24 c:/intelfpga_lite/18.1/nios2eds/bin/gnu/h-x86_64-mingw32/bin/../lib/gcc/nios2-elf/5.3.0/../../../../../H-x86_64-mingw32/nios2-elf/lib\libc.a(lib_a-__call_atexit.o)
 .comment       0x0000000000000046       0x24 c:/intelfpga_lite/18.1/nios2eds/bin/gnu/h-x86_64-mingw32/bin/../lib/gcc/nios2-elf/5.3.0/../../../../../H-x86_64-mingw32/nios2-elf/lib\libc.a(lib_a-vfprintfr_1.o)
 .comment       0x0000000000000046       0x24 ../FPGAEncrypt_bsp/\libucosii_bsp.a(alt_exit.o)

.debug
 *(.debug)

.line
 *(.line)

.debug_srcinfo
 *(.debug_srcinfo)

.debug_sfnames
 *(.debug_sfnames)

.debug_aranges  0x0000000000000000     0x1dc0
 *(.debug_aranges)
 .debug_aranges
                0x0000000000000000       0x20 ../FPGAEncrypt_bsp//obj/HAL/src/crt0.o
 .debug_aranges
                0x0000000000000020       0x20 obj/default/alt_error_handler.o
 .debug_aranges
                0x0000000000000040       0x20 obj/default/iniche_init.o
 .debug_aranges
                0x0000000000000060       0x20 obj/default/led.o
 .debug_aranges
                0x0000000000000080       0x20 obj/default/network_utilities.o
 .debug_aranges
                0x00000000000000a0       0x20 obj/default/simple_socket_server.o
 .debug_aranges
                0x00000000000000c0       0x18 obj/default/tse_my_system.o
 .debug_aranges
                0x00000000000000d8       0x18 c:/intelfpga_lite/18.1/nios2eds/bin/gnu/h-x86_64-mingw32/bin/../lib/gcc/nios2-elf/5.3.0/../../../../../H-x86_64-mingw32/nios2-elf/lib\libc.a(lib_a-ctype_.o)
 .debug_aranges
                0x00000000000000f0       0x28 c:/intelfpga_lite/18.1/nios2eds/bin/gnu/h-x86_64-mingw32/bin/../lib/gcc/nios2-elf/5.3.0/../../../../../H-x86_64-mingw32/nios2-elf/lib\libc.a(lib_a-fprintf.o)
 .debug_aranges
                0x0000000000000118       0x28 c:/intelfpga_lite/18.1/nios2eds/bin/gnu/h-x86_64-mingw32/bin/../lib/gcc/nios2-elf/5.3.0/../../../../../H-x86_64-mingw32/nios2-elf/lib\libc.a(lib_a-fwrite.o)
 .debug_aranges
                0x0000000000000140       0x28 c:/intelfpga_lite/18.1/nios2eds/bin/gnu/h-x86_64-mingw32/bin/../lib/gcc/nios2-elf/5.3.0/../../../../../H-x86_64-mingw32/nios2-elf/lib\libc.a(lib_a-getc.o)
 .debug_aranges
                0x0000000000000168       0x18 c:/intelfpga_lite/18.1/nios2eds/bin/gnu/h-x86_64-mingw32/bin/../lib/gcc/nios2-elf/5.3.0/../../../../../H-x86_64-mingw32/nios2-elf/lib\libc.a(lib_a-impure.o)
 .debug_aranges
                0x0000000000000180       0x20 c:/intelfpga_lite/18.1/nios2eds/bin/gnu/h-x86_64-mingw32/bin/../lib/gcc/nios2-elf/5.3.0/../../../../../H-x86_64-mingw32/nios2-elf/lib\libc.a(lib_a-memcpy.o)
 .debug_aranges
                0x00000000000001a0       0x20 c:/intelfpga_lite/18.1/nios2eds/bin/gnu/h-x86_64-mingw32/bin/../lib/gcc/nios2-elf/5.3.0/../../../../../H-x86_64-mingw32/nios2-elf/lib\libc.a(lib_a-memmove.o)
 .debug_aranges
                0x00000000000001c0       0x20 c:/intelfpga_lite/18.1/nios2eds/bin/gnu/h-x86_64-mingw32/bin/../lib/gcc/nios2-elf/5.3.0/../../../../../H-x86_64-mingw32/nios2-elf/lib\libc.a(lib_a-memset.o)
 .debug_aranges
                0x00000000000001e0       0x28 c:/intelfpga_lite/18.1/nios2eds/bin/gnu/h-x86_64-mingw32/bin/../lib/gcc/nios2-elf/5.3.0/../../../../../H-x86_64-mingw32/nios2-elf/lib\libc.a(lib_a-perror.o)
 .debug_aranges
                0x0000000000000208       0x28 c:/intelfpga_lite/18.1/nios2eds/bin/gnu/h-x86_64-mingw32/bin/../lib/gcc/nios2-elf/5.3.0/../../../../../H-x86_64-mingw32/nios2-elf/lib\libc.a(lib_a-printf.o)
 .debug_aranges
                0x0000000000000230       0x28 c:/intelfpga_lite/18.1/nios2eds/bin/gnu/h-x86_64-mingw32/bin/../lib/gcc/nios2-elf/5.3.0/../../../../../H-x86_64-mingw32/nios2-elf/lib\libc.a(lib_a-putc.o)
 .debug_aranges
                0x0000000000000258       0x28 c:/intelfpga_lite/18.1/nios2eds/bin/gnu/h-x86_64-mingw32/bin/../lib/gcc/nios2-elf/5.3.0/../../../../../H-x86_64-mingw32/nios2-elf/lib\libc.a(lib_a-putchar.o)
 .debug_aranges
                0x0000000000000280       0x28 c:/intelfpga_lite/18.1/nios2eds/bin/gnu/h-x86_64-mingw32/bin/../lib/gcc/nios2-elf/5.3.0/../../../../../H-x86_64-mingw32/nios2-elf/lib\libc.a(lib_a-puts.o)
 .debug_aranges
                0x00000000000002a8       0x28 c:/intelfpga_lite/18.1/nios2eds/bin/gnu/h-x86_64-mingw32/bin/../lib/gcc/nios2-elf/5.3.0/../../../../../H-x86_64-mingw32/nios2-elf/lib\libc.a(lib_a-rget.o)
 .debug_aranges
                0x00000000000002d0       0x28 c:/intelfpga_lite/18.1/nios2eds/bin/gnu/h-x86_64-mingw32/bin/../lib/gcc/nios2-elf/5.3.0/../../../../../H-x86_64-mingw32/nios2-elf/lib\libc.a(lib_a-sprintf.o)
 .debug_aranges
                0x00000000000002f8       0x20 c:/intelfpga_lite/18.1/nios2eds/bin/gnu/h-x86_64-mingw32/bin/../lib/gcc/nios2-elf/5.3.0/../../../../../H-x86_64-mingw32/nios2-elf/lib\libc.a(lib_a-strchr.o)
 .debug_aranges
                0x0000000000000318       0x28 c:/intelfpga_lite/18.1/nios2eds/bin/gnu/h-x86_64-mingw32/bin/../lib/gcc/nios2-elf/5.3.0/../../../../../H-x86_64-mingw32/nios2-elf/lib\libc.a(lib_a-strerror.o)
 .debug_aranges
                0x0000000000000340       0x20 c:/intelfpga_lite/18.1/nios2eds/bin/gnu/h-x86_64-mingw32/bin/../lib/gcc/nios2-elf/5.3.0/../../../../../H-x86_64-mingw32/nios2-elf/lib\libc.a(lib_a-strlen.o)
 .debug_aranges
                0x0000000000000360       0x30 c:/intelfpga_lite/18.1/nios2eds/bin/gnu/h-x86_64-mingw32/bin/../lib/gcc/nios2-elf/5.3.0/../../../../../H-x86_64-mingw32/nios2-elf/lib\libc.a(lib_a-strstr.o)
 .debug_aranges
                0x0000000000000390       0x20 c:/intelfpga_lite/18.1/nios2eds/bin/gnu/h-x86_64-mingw32/bin/../lib/gcc/nios2-elf/5.3.0/../../../../../H-x86_64-mingw32/nios2-elf/lib\libc.a(lib_a-svfprintf.o)
 .debug_aranges
                0x00000000000003b0       0x20 c:/intelfpga_lite/18.1/nios2eds/bin/gnu/h-x86_64-mingw32/bin/../lib/gcc/nios2-elf/5.3.0/../../../../../H-x86_64-mingw32/nios2-elf/lib\libc.a(lib_a-u_strerr.o)
 .debug_aranges
                0x00000000000003d0       0x30 c:/intelfpga_lite/18.1/nios2eds/bin/gnu/h-x86_64-mingw32/bin/../lib/gcc/nios2-elf/5.3.0/../../../../../H-x86_64-mingw32/nios2-elf/lib\libc.a(lib_a-vfprintf.o)
 .debug_aranges
                0x0000000000000400       0x28 c:/intelfpga_lite/18.1/nios2eds/bin/gnu/h-x86_64-mingw32/bin/../lib/gcc/nios2-elf/5.3.0/../../../../../H-x86_64-mingw32/nios2-elf/lib\libc.a(lib_a-wbuf.o)
 .debug_aranges
                0x0000000000000428       0x20 c:/intelfpga_lite/18.1/nios2eds/bin/gnu/h-x86_64-mingw32/bin/../lib/gcc/nios2-elf/5.3.0/../../../../../H-x86_64-mingw32/nios2-elf/lib\libc.a(lib_a-wsetup.o)
 .debug_aranges
                0x0000000000000448       0x28 c:/intelfpga_lite/18.1/nios2eds/bin/gnu/h-x86_64-mingw32/bin/../lib/gcc/nios2-elf/5.3.0/../../../../../H-x86_64-mingw32/nios2-elf/lib\libc.a(lib_a-dtoa.o)
 .debug_aranges
                0x0000000000000470       0x30 c:/intelfpga_lite/18.1/nios2eds/bin/gnu/h-x86_64-mingw32/bin/../lib/gcc/nios2-elf/5.3.0/../../../../../H-x86_64-mingw32/nios2-elf/lib\libc.a(lib_a-fflush.o)
 .debug_aranges
                0x00000000000004a0       0x68 c:/intelfpga_lite/18.1/nios2eds/bin/gnu/h-x86_64-mingw32/bin/../lib/gcc/nios2-elf/5.3.0/../../../../../H-x86_64-mingw32/nios2-elf/lib\libc.a(lib_a-findfp.o)
 .debug_aranges
                0x0000000000000508       0x28 c:/intelfpga_lite/18.1/nios2eds/bin/gnu/h-x86_64-mingw32/bin/../lib/gcc/nios2-elf/5.3.0/../../../../../H-x86_64-mingw32/nios2-elf/lib\libc.a(lib_a-fputc.o)
 .debug_aranges
                0x0000000000000530       0x28 c:/intelfpga_lite/18.1/nios2eds/bin/gnu/h-x86_64-mingw32/bin/../lib/gcc/nios2-elf/5.3.0/../../../../../H-x86_64-mingw32/nios2-elf/lib\libc.a(lib_a-fputs.o)
 .debug_aranges
                0x0000000000000558       0x28 c:/intelfpga_lite/18.1/nios2eds/bin/gnu/h-x86_64-mingw32/bin/../lib/gcc/nios2-elf/5.3.0/../../../../../H-x86_64-mingw32/nios2-elf/lib\libc.a(lib_a-freer.o)
 .debug_aranges
                0x0000000000000580       0x20 c:/intelfpga_lite/18.1/nios2eds/bin/gnu/h-x86_64-mingw32/bin/../lib/gcc/nios2-elf/5.3.0/../../../../../H-x86_64-mingw32/nios2-elf/lib\libc.a(lib_a-fvwrite.o)
 .debug_aranges
                0x00000000000005a0       0x28 c:/intelfpga_lite/18.1/nios2eds/bin/gnu/h-x86_64-mingw32/bin/../lib/gcc/nios2-elf/5.3.0/../../../../../H-x86_64-mingw32/nios2-elf/lib\libc.a(lib_a-fwalk.o)
 .debug_aranges
                0x00000000000005c8       0x58 c:/intelfpga_lite/18.1/nios2eds/bin/gnu/h-x86_64-mingw32/bin/../lib/gcc/nios2-elf/5.3.0/../../../../../H-x86_64-mingw32/nios2-elf/lib\libc.a(lib_a-locale.o)
 .debug_aranges
                0x0000000000000620       0x20 c:/intelfpga_lite/18.1/nios2eds/bin/gnu/h-x86_64-mingw32/bin/../lib/gcc/nios2-elf/5.3.0/../../../../../H-x86_64-mingw32/nios2-elf/lib\libc.a(lib_a-makebuf.o)
 .debug_aranges
                0x0000000000000640       0x20 c:/intelfpga_lite/18.1/nios2eds/bin/gnu/h-x86_64-mingw32/bin/../lib/gcc/nios2-elf/5.3.0/../../../../../H-x86_64-mingw32/nios2-elf/lib\libc.a(lib_a-mallocr.o)
 .debug_aranges
                0x0000000000000660       0x20 c:/intelfpga_lite/18.1/nios2eds/bin/gnu/h-x86_64-mingw32/bin/../lib/gcc/nios2-elf/5.3.0/../../../../../H-x86_64-mingw32/nios2-elf/lib\libc.a(lib_a-memchr.o)
 .debug_aranges
                0x0000000000000680       0x20 c:/intelfpga_lite/18.1/nios2eds/bin/gnu/h-x86_64-mingw32/bin/../lib/gcc/nios2-elf/5.3.0/../../../../../H-x86_64-mingw32/nios2-elf/lib\libc.a(lib_a-memcmp.o)
 .debug_aranges
                0x00000000000006a0       0xb0 c:/intelfpga_lite/18.1/nios2eds/bin/gnu/h-x86_64-mingw32/bin/../lib/gcc/nios2-elf/5.3.0/../../../../../H-x86_64-mingw32/nios2-elf/lib\libc.a(lib_a-mprec.o)
 .debug_aranges
                0x0000000000000750       0x20 c:/intelfpga_lite/18.1/nios2eds/bin/gnu/h-x86_64-mingw32/bin/../lib/gcc/nios2-elf/5.3.0/../../../../../H-x86_64-mingw32/nios2-elf/lib\libc.a(lib_a-reallocr.o)
 .debug_aranges
                0x0000000000000770       0x28 c:/intelfpga_lite/18.1/nios2eds/bin/gnu/h-x86_64-mingw32/bin/../lib/gcc/nios2-elf/5.3.0/../../../../../H-x86_64-mingw32/nios2-elf/lib\libc.a(lib_a-refill.o)
 .debug_aranges
                0x0000000000000798       0x20 c:/intelfpga_lite/18.1/nios2eds/bin/gnu/h-x86_64-mingw32/bin/../lib/gcc/nios2-elf/5.3.0/../../../../../H-x86_64-mingw32/nios2-elf/lib\libc.a(lib_a-s_fpclassify.o)
 .debug_aranges
                0x00000000000007b8       0x20 c:/intelfpga_lite/18.1/nios2eds/bin/gnu/h-x86_64-mingw32/bin/../lib/gcc/nios2-elf/5.3.0/../../../../../H-x86_64-mingw32/nios2-elf/lib\libc.a(lib_a-sbrkr.o)
 .debug_aranges
                0x00000000000007d8       0x40 c:/intelfpga_lite/18.1/nios2eds/bin/gnu/h-x86_64-mingw32/bin/../lib/gcc/nios2-elf/5.3.0/../../../../../H-x86_64-mingw32/nios2-elf/lib\libc.a(lib_a-stdio.o)
 .debug_aranges
                0x0000000000000818       0x20 c:/intelfpga_lite/18.1/nios2eds/bin/gnu/h-x86_64-mingw32/bin/../lib/gcc/nios2-elf/5.3.0/../../../../../H-x86_64-mingw32/nios2-elf/lib\libc.a(lib_a-strcmp.o)
 .debug_aranges
                0x0000000000000838       0x28 c:/intelfpga_lite/18.1/nios2eds/bin/gnu/h-x86_64-mingw32/bin/../lib/gcc/nios2-elf/5.3.0/../../../../../H-x86_64-mingw32/nios2-elf/lib\libc.a(lib_a-svfiprintf.o)
 .debug_aranges
                0x0000000000000860       0x40 c:/intelfpga_lite/18.1/nios2eds/bin/gnu/h-x86_64-mingw32/bin/../lib/gcc/nios2-elf/5.3.0/../../../../../H-x86_64-mingw32/nios2-elf/lib\libc.a(lib_a-vfiprintf.o)
 .debug_aranges
                0x00000000000008a0       0x20 c:/intelfpga_lite/18.1/nios2eds/bin/gnu/h-x86_64-mingw32/bin/../lib/gcc/nios2-elf/5.3.0/../../../../../H-x86_64-mingw32/nios2-elf/lib\libc.a(lib_a-writer.o)
 .debug_aranges
                0x00000000000008c0       0x20 c:/intelfpga_lite/18.1/nios2eds/bin/gnu/h-x86_64-mingw32/bin/../lib/gcc/nios2-elf/5.3.0/../../../../../H-x86_64-mingw32/nios2-elf/lib\libc.a(closer.o)
 .debug_aranges
                0x00000000000008e0       0x20 c:/intelfpga_lite/18.1/nios2eds/bin/gnu/h-x86_64-mingw32/bin/../lib/gcc/nios2-elf/5.3.0/../../../../../H-x86_64-mingw32/nios2-elf/lib\libc.a(lib_a-callocr.o)
 .debug_aranges
                0x0000000000000900       0x28 c:/intelfpga_lite/18.1/nios2eds/bin/gnu/h-x86_64-mingw32/bin/../lib/gcc/nios2-elf/5.3.0/../../../../../H-x86_64-mingw32/nios2-elf/lib\libc.a(lib_a-fclose.o)
 .debug_aranges
                0x0000000000000928       0x30 c:/intelfpga_lite/18.1/nios2eds/bin/gnu/h-x86_64-mingw32/bin/../lib/gcc/nios2-elf/5.3.0/../../../../../H-x86_64-mingw32/nios2-elf/lib\libc.a(lib_a-fputwc.o)
 .debug_aranges
                0x0000000000000958       0x20 c:/intelfpga_lite/18.1/nios2eds/bin/gnu/h-x86_64-mingw32/bin/../lib/gcc/nios2-elf/5.3.0/../../../../../H-x86_64-mingw32/nios2-elf/lib\libc.a(lib_a-fstatr.o)
 .debug_aranges
                0x0000000000000978       0x18 c:/intelfpga_lite/18.1/nios2eds/bin/gnu/h-x86_64-mingw32/bin/../lib/gcc/nios2-elf/5.3.0/../../../../../H-x86_64-mingw32/nios2-elf/lib\libc.a(lib_a-int_errno.o)
 .debug_aranges
                0x0000000000000990       0x20 c:/intelfpga_lite/18.1/nios2eds/bin/gnu/h-x86_64-mingw32/bin/../lib/gcc/nios2-elf/5.3.0/../../../../../H-x86_64-mingw32/nios2-elf/lib\libc.a(lib_a-isattyr.o)
 .debug_aranges
                0x00000000000009b0       0x20 c:/intelfpga_lite/18.1/nios2eds/bin/gnu/h-x86_64-mingw32/bin/../lib/gcc/nios2-elf/5.3.0/../../../../../H-x86_64-mingw32/nios2-elf/lib\libc.a(lib_a-lseekr.o)
 .debug_aranges
                0x00000000000009d0       0x20 c:/intelfpga_lite/18.1/nios2eds/bin/gnu/h-x86_64-mingw32/bin/../lib/gcc/nios2-elf/5.3.0/../../../../../H-x86_64-mingw32/nios2-elf/lib\libc.a(lib_a-readr.o)
 .debug_aranges
                0x00000000000009f0       0x28 c:/intelfpga_lite/18.1/nios2eds/bin/gnu/h-x86_64-mingw32/bin/../lib/gcc/nios2-elf/5.3.0/../../../../../H-x86_64-mingw32/nios2-elf/lib\libc.a(lib_a-wcrtomb.o)
 .debug_aranges
                0x0000000000000a18       0x28 c:/intelfpga_lite/18.1/nios2eds/bin/gnu/h-x86_64-mingw32/bin/../lib/gcc/nios2-elf/5.3.0/../../../../../H-x86_64-mingw32/nios2-elf/lib\libc.a(lib_a-wctomb_r.o)
 .debug_aranges
                0x0000000000000a40       0x20 c:/intelfpga_lite/18.1/nios2eds/bin/gnu/h-x86_64-mingw32/bin/../lib/gcc/nios2-elf/5.3.0\libgcc.a(_udivdi3.o)
 .debug_aranges
                0x0000000000000a60       0x20 c:/intelfpga_lite/18.1/nios2eds/bin/gnu/h-x86_64-mingw32/bin/../lib/gcc/nios2-elf/5.3.0\libgcc.a(_umoddi3.o)
 .debug_aranges
                0x0000000000000a80       0x20 c:/intelfpga_lite/18.1/nios2eds/bin/gnu/h-x86_64-mingw32/bin/../lib/gcc/nios2-elf/5.3.0\libgcc.a(lib2-divmod.o)
 .debug_aranges
                0x0000000000000aa0       0x20 c:/intelfpga_lite/18.1/nios2eds/bin/gnu/h-x86_64-mingw32/bin/../lib/gcc/nios2-elf/5.3.0\libgcc.a(adddf3.o)
 .debug_aranges
                0x0000000000000ac0       0x20 c:/intelfpga_lite/18.1/nios2eds/bin/gnu/h-x86_64-mingw32/bin/../lib/gcc/nios2-elf/5.3.0\libgcc.a(divdf3.o)
 .debug_aranges
                0x0000000000000ae0       0x20 c:/intelfpga_lite/18.1/nios2eds/bin/gnu/h-x86_64-mingw32/bin/../lib/gcc/nios2-elf/5.3.0\libgcc.a(eqdf2.o)
 .debug_aranges
                0x0000000000000b00       0x20 c:/intelfpga_lite/18.1/nios2eds/bin/gnu/h-x86_64-mingw32/bin/../lib/gcc/nios2-elf/5.3.0\libgcc.a(gedf2.o)
 .debug_aranges
                0x0000000000000b20       0x20 c:/intelfpga_lite/18.1/nios2eds/bin/gnu/h-x86_64-mingw32/bin/../lib/gcc/nios2-elf/5.3.0\libgcc.a(ledf2.o)
 .debug_aranges
                0x0000000000000b40       0x20 c:/intelfpga_lite/18.1/nios2eds/bin/gnu/h-x86_64-mingw32/bin/../lib/gcc/nios2-elf/5.3.0\libgcc.a(muldf3.o)
 .debug_aranges
                0x0000000000000b60       0x20 c:/intelfpga_lite/18.1/nios2eds/bin/gnu/h-x86_64-mingw32/bin/../lib/gcc/nios2-elf/5.3.0\libgcc.a(subdf3.o)
 .debug_aranges
                0x0000000000000b80       0x20 c:/intelfpga_lite/18.1/nios2eds/bin/gnu/h-x86_64-mingw32/bin/../lib/gcc/nios2-elf/5.3.0\libgcc.a(fixdfsi.o)
 .debug_aranges
                0x0000000000000ba0       0x20 c:/intelfpga_lite/18.1/nios2eds/bin/gnu/h-x86_64-mingw32/bin/../lib/gcc/nios2-elf/5.3.0\libgcc.a(floatsidf.o)
 .debug_aranges
                0x0000000000000bc0       0x20 c:/intelfpga_lite/18.1/nios2eds/bin/gnu/h-x86_64-mingw32/bin/../lib/gcc/nios2-elf/5.3.0\libgcc.a(floatunsidf.o)
 .debug_aranges
                0x0000000000000be0       0x18 c:/intelfpga_lite/18.1/nios2eds/bin/gnu/h-x86_64-mingw32/bin/../lib/gcc/nios2-elf/5.3.0\libgcc.a(_clz.o)
 .debug_aranges
                0x0000000000000bf8       0x20 c:/intelfpga_lite/18.1/nios2eds/bin/gnu/h-x86_64-mingw32/bin/../lib/gcc/nios2-elf/5.3.0\libgcc.a(_clzsi2.o)
 .debug_aranges
                0x0000000000000c18       0x20 ../FPGAEncrypt_bsp/\libucosii_bsp.a(alt_fstat.o)
 .debug_aranges
                0x0000000000000c38       0x20 ../FPGAEncrypt_bsp/\libucosii_bsp.a(alt_isatty.o)
 .debug_aranges
                0x0000000000000c58       0x20 ../FPGAEncrypt_bsp/\libucosii_bsp.a(alt_lseek.o)
 .debug_aranges
                0x0000000000000c78       0x20 ../FPGAEncrypt_bsp/\libucosii_bsp.a(alt_main.o)
 .debug_aranges
                0x0000000000000c98       0x20 ../FPGAEncrypt_bsp/\libucosii_bsp.a(alt_sbrk.o)
 .debug_aranges
                0x0000000000000cb8       0x20 ../FPGAEncrypt_bsp/\libucosii_bsp.a(alt_env_lock.o)
 .debug_aranges
                0x0000000000000cd8       0x20 ../FPGAEncrypt_bsp/\libucosii_bsp.a(alt_malloc_lock.o)
 .debug_aranges
                0x0000000000000cf8       0x20 ../FPGAEncrypt_bsp/\libucosii_bsp.a(os_core.o)
 .debug_aranges
                0x0000000000000d18       0x20 ../FPGAEncrypt_bsp/\libucosii_bsp.a(os_dbg.o)
 .debug_aranges
                0x0000000000000d38       0x20 ../FPGAEncrypt_bsp/\libucosii_bsp.a(os_flag.o)
 .debug_aranges
                0x0000000000000d58       0x20 ../FPGAEncrypt_bsp/\libucosii_bsp.a(os_mem.o)
 .debug_aranges
                0x0000000000000d78       0x20 ../FPGAEncrypt_bsp/\libucosii_bsp.a(os_q.o)
 .debug_aranges
                0x0000000000000d98       0x20 ../FPGAEncrypt_bsp/\libucosii_bsp.a(os_sem.o)
 .debug_aranges
                0x0000000000000db8       0x20 ../FPGAEncrypt_bsp/\libucosii_bsp.a(os_task.o)
 .debug_aranges
                0x0000000000000dd8       0x20 ../FPGAEncrypt_bsp/\libucosii_bsp.a(os_time.o)
 .debug_aranges
                0x0000000000000df8       0x20 ../FPGAEncrypt_bsp/\libucosii_bsp.a(alt_sys_init.o)
 .debug_aranges
                0x0000000000000e18       0x20 ../FPGAEncrypt_bsp/\libucosii_bsp.a(altera_avalon_jtag_uart_fd.o)
 .debug_aranges
                0x0000000000000e38       0x20 ../FPGAEncrypt_bsp/\libucosii_bsp.a(altera_avalon_jtag_uart_init.o)
 .debug_aranges
                0x0000000000000e58       0x20 ../FPGAEncrypt_bsp/\libucosii_bsp.a(altera_avalon_jtag_uart_ioctl.o)
 .debug_aranges
                0x0000000000000e78       0x20 ../FPGAEncrypt_bsp/\libucosii_bsp.a(altera_avalon_jtag_uart_read.o)
 .debug_aranges
                0x0000000000000e98       0x20 ../FPGAEncrypt_bsp/\libucosii_bsp.a(altera_avalon_jtag_uart_write.o)
 .debug_aranges
                0x0000000000000eb8       0x20 ../FPGAEncrypt_bsp/\libucosii_bsp.a(altera_avalon_timer_sc.o)
 .debug_aranges
                0x0000000000000ed8       0x20 ../FPGAEncrypt_bsp/\libucosii_bsp.a(altera_epcq_controller2.o)
 .debug_aranges
                0x0000000000000ef8       0x20 ../FPGAEncrypt_bsp/\libucosii_bsp.a(altera_msgdma.o)
 .debug_aranges
                0x0000000000000f18       0x20 ../FPGAEncrypt_bsp/\libucosii_bsp.a(altera_remote_update.o)
 .debug_aranges
                0x0000000000000f38       0x20 ../FPGAEncrypt_bsp/\libucosii_bsp.a(ins_tse_mac.o)
 .debug_aranges
                0x0000000000000f58       0x20 ../FPGAEncrypt_bsp/\libucosii_bsp.a(alt_iniche_close.o)
 .debug_aranges
                0x0000000000000f78       0x20 ../FPGAEncrypt_bsp/\libucosii_bsp.a(alt_iniche_dev.o)
 .debug_aranges
                0x0000000000000f98       0x20 ../FPGAEncrypt_bsp/\libucosii_bsp.a(alt_iniche_read.o)
 .debug_aranges
                0x0000000000000fb8       0x20 ../FPGAEncrypt_bsp/\libucosii_bsp.a(alt_iniche_write.o)
 .debug_aranges
                0x0000000000000fd8       0x20 ../FPGAEncrypt_bsp/\libucosii_bsp.a(ipnet.o)
 .debug_aranges
                0x0000000000000ff8       0x20 ../FPGAEncrypt_bsp/\libucosii_bsp.a(ipstart.o)
 .debug_aranges
                0x0000000000001018       0x20 ../FPGAEncrypt_bsp/\libucosii_bsp.a(igmp_cmn.o)
 .debug_aranges
                0x0000000000001038       0x20 ../FPGAEncrypt_bsp/\libucosii_bsp.a(bsdsock.o)
 .debug_aranges
                0x0000000000001058       0x20 ../FPGAEncrypt_bsp/\libucosii_bsp.a(cksum.o)
 .debug_aranges
                0x0000000000001078       0x20 ../FPGAEncrypt_bsp/\libucosii_bsp.a(in_utils.o)
 .debug_aranges
                0x0000000000001098       0x20 ../FPGAEncrypt_bsp/\libucosii_bsp.a(netmain.o)
 .debug_aranges
                0x00000000000010b8       0x20 ../FPGAEncrypt_bsp/\libucosii_bsp.a(tk_crnos.o)
 .debug_aranges
                0x00000000000010d8       0x20 ../FPGAEncrypt_bsp/\libucosii_bsp.a(dhcpclnt.o)
 .debug_aranges
                0x00000000000010f8       0x20 ../FPGAEncrypt_bsp/\libucosii_bsp.a(dhcputil.o)
 .debug_aranges
                0x0000000000001118       0x20 ../FPGAEncrypt_bsp/\libucosii_bsp.a(pktalloc.o)
 .debug_aranges
                0x0000000000001138       0x20 ../FPGAEncrypt_bsp/\libucosii_bsp.a(q.o)
 .debug_aranges
                0x0000000000001158       0x20 ../FPGAEncrypt_bsp/\libucosii_bsp.a(udp_open.o)
 .debug_aranges
                0x0000000000001178       0x20 ../FPGAEncrypt_bsp/\libucosii_bsp.a(asm_cksum.o)
 .debug_aranges
                0x0000000000001198       0x20 ../FPGAEncrypt_bsp/\libucosii_bsp.a(brdutils.o)
 .debug_aranges
                0x00000000000011b8       0x20 ../FPGAEncrypt_bsp/\libucosii_bsp.a(osportco.o)
 .debug_aranges
                0x00000000000011d8       0x20 ../FPGAEncrypt_bsp/\libucosii_bsp.a(targnios.o)
 .debug_aranges
                0x00000000000011f8       0x20 ../FPGAEncrypt_bsp/\libucosii_bsp.a(nptcp.o)
 .debug_aranges
                0x0000000000001218       0x20 ../FPGAEncrypt_bsp/\libucosii_bsp.a(rawsock.o)
 .debug_aranges
                0x0000000000001238       0x20 ../FPGAEncrypt_bsp/\libucosii_bsp.a(sockcall.o)
 .debug_aranges
                0x0000000000001258       0x20 ../FPGAEncrypt_bsp/\libucosii_bsp.a(socket.o)
 .debug_aranges
                0x0000000000001278       0x20 ../FPGAEncrypt_bsp/\libucosii_bsp.a(socket2.o)
 .debug_aranges
                0x0000000000001298       0x20 ../FPGAEncrypt_bsp/\libucosii_bsp.a(soselect.o)
 .debug_aranges
                0x00000000000012b8       0x20 ../FPGAEncrypt_bsp/\libucosii_bsp.a(tcp_in.o)
 .debug_aranges
                0x00000000000012d8       0x20 ../FPGAEncrypt_bsp/\libucosii_bsp.a(tcp_out.o)
 .debug_aranges
                0x00000000000012f8       0x20 ../FPGAEncrypt_bsp/\libucosii_bsp.a(tcp_subr.o)
 .debug_aranges
                0x0000000000001318       0x20 ../FPGAEncrypt_bsp/\libucosii_bsp.a(tcp_timr.o)
 .debug_aranges
                0x0000000000001338       0x20 ../FPGAEncrypt_bsp/\libucosii_bsp.a(tcp_usr.o)
 .debug_aranges
                0x0000000000001358       0x20 ../FPGAEncrypt_bsp/\libucosii_bsp.a(tcpport.o)
 .debug_aranges
                0x0000000000001378       0x20 ../FPGAEncrypt_bsp/\libucosii_bsp.a(udpsock.o)
 .debug_aranges
                0x0000000000001398       0x20 ../FPGAEncrypt_bsp/\libucosii_bsp.a(alt_alarm_start.o)
 .debug_aranges
                0x00000000000013b8       0x20 ../FPGAEncrypt_bsp/\libucosii_bsp.a(alt_busy_sleep.o)
 .debug_aranges
                0x00000000000013d8       0x20 ../FPGAEncrypt_bsp/\libucosii_bsp.a(alt_close.o)
 .debug_aranges
                0x00000000000013f8       0x20 ../FPGAEncrypt_bsp/\libucosii_bsp.a(alt_dcache_flush.o)
 .debug_aranges
                0x0000000000001418       0x20 ../FPGAEncrypt_bsp/\libucosii_bsp.a(alt_dev.o)
 .debug_aranges
                0x0000000000001438       0x20 ../FPGAEncrypt_bsp/\libucosii_bsp.a(alt_dev_llist_insert.o)
 .debug_aranges
                0x0000000000001458       0x20 ../FPGAEncrypt_bsp/\libucosii_bsp.a(alt_do_ctors.o)
 .debug_aranges
                0x0000000000001478       0x20 ../FPGAEncrypt_bsp/\libucosii_bsp.a(alt_do_dtors.o)
 .debug_aranges
                0x0000000000001498       0x18 ../FPGAEncrypt_bsp/\libucosii_bsp.a(alt_errno.o)
 .debug_aranges
                0x00000000000014b0       0x20 ../FPGAEncrypt_bsp/\libucosii_bsp.a(alt_find_dev.o)
 .debug_aranges
                0x00000000000014d0       0x20 ../FPGAEncrypt_bsp/\libucosii_bsp.a(alt_flash_dev.o)
 .debug_aranges
                0x00000000000014f0       0x20 ../FPGAEncrypt_bsp/\libucosii_bsp.a(alt_iic.o)
 .debug_aranges
                0x0000000000001510       0x20 ../FPGAEncrypt_bsp/\libucosii_bsp.a(alt_iic_isr_register.o)
 .debug_aranges
                0x0000000000001530       0x20 ../FPGAEncrypt_bsp/\libucosii_bsp.a(alt_io_redirect.o)
 .debug_aranges
                0x0000000000001550       0x30 ../FPGAEncrypt_bsp/\libucosii_bsp.a(alt_irq_entry.o)
 .debug_aranges
                0x0000000000001580       0x20 ../FPGAEncrypt_bsp/\libucosii_bsp.a(alt_irq_handler.o)
 .debug_aranges
                0x00000000000015a0       0x18 ../FPGAEncrypt_bsp/\libucosii_bsp.a(alt_irq_vars.o)
 .debug_aranges
                0x00000000000015b8       0x20 ../FPGAEncrypt_bsp/\libucosii_bsp.a(alt_open.o)
 .debug_aranges
                0x00000000000015d8       0x20 ../FPGAEncrypt_bsp/\libucosii_bsp.a(alt_printf.o)
 .debug_aranges
                0x00000000000015f8       0x20 ../FPGAEncrypt_bsp/\libucosii_bsp.a(alt_putchar.o)
 .debug_aranges
                0x0000000000001618       0x20 ../FPGAEncrypt_bsp/\libucosii_bsp.a(alt_read.o)
 .debug_aranges
                0x0000000000001638       0x20 ../FPGAEncrypt_bsp/\libucosii_bsp.a(alt_release_fd.o)
 .debug_aranges
                0x0000000000001658       0x20 ../FPGAEncrypt_bsp/\libucosii_bsp.a(alt_remap_cached.o)
 .debug_aranges
                0x0000000000001678       0x20 ../FPGAEncrypt_bsp/\libucosii_bsp.a(alt_tick.o)
 .debug_aranges
                0x0000000000001698       0x20 ../FPGAEncrypt_bsp/\libucosii_bsp.a(alt_uncached_free.o)
 .debug_aranges
                0x00000000000016b8       0x20 ../FPGAEncrypt_bsp/\libucosii_bsp.a(alt_uncached_malloc.o)
 .debug_aranges
                0x00000000000016d8       0x20 ../FPGAEncrypt_bsp/\libucosii_bsp.a(alt_write.o)
 .debug_aranges
                0x00000000000016f8       0x20 ../FPGAEncrypt_bsp/\libucosii_bsp.a(altera_nios2_gen2_irq.o)
 .debug_aranges
                0x0000000000001718       0x20 ../FPGAEncrypt_bsp/\libucosii_bsp.a(os_cpu_a.o)
 .debug_aranges
                0x0000000000001738       0x20 ../FPGAEncrypt_bsp/\libucosii_bsp.a(os_cpu_c.o)
 .debug_aranges
                0x0000000000001758       0x20 ../FPGAEncrypt_bsp/\libucosii_bsp.a(altera_avalon_tse.o)
 .debug_aranges
                0x0000000000001778       0x20 ../FPGAEncrypt_bsp/\libucosii_bsp.a(allports.o)
 .debug_aranges
                0x0000000000001798       0x20 ../FPGAEncrypt_bsp/\libucosii_bsp.a(timeouts.o)
 .debug_aranges
                0x00000000000017b8       0x20 ../FPGAEncrypt_bsp/\libucosii_bsp.a(tk_misc.o)
 .debug_aranges
                0x00000000000017d8       0x20 ../FPGAEncrypt_bsp/\libucosii_bsp.a(alt_iniche_fcntl.o)
 .debug_aranges
                0x00000000000017f8       0x20 ../FPGAEncrypt_bsp/\libucosii_bsp.a(et_arp.o)
 .debug_aranges
                0x0000000000001818       0x20 ../FPGAEncrypt_bsp/\libucosii_bsp.a(iface.o)
 .debug_aranges
                0x0000000000001838       0x20 ../FPGAEncrypt_bsp/\libucosii_bsp.a(ip.o)
 .debug_aranges
                0x0000000000001858       0x20 ../FPGAEncrypt_bsp/\libucosii_bsp.a(ip_reasm.o)
 .debug_aranges
                0x0000000000001878       0x20 ../FPGAEncrypt_bsp/\libucosii_bsp.a(ipdemux.o)
 .debug_aranges
                0x0000000000001898       0x20 ../FPGAEncrypt_bsp/\libucosii_bsp.a(ipmc.o)
 .debug_aranges
                0x00000000000018b8       0x20 ../FPGAEncrypt_bsp/\libucosii_bsp.a(ipport.o)
 .debug_aranges
                0x00000000000018d8       0x20 ../FPGAEncrypt_bsp/\libucosii_bsp.a(ipraw.o)
 .debug_aranges
                0x00000000000018f8       0x20 ../FPGAEncrypt_bsp/\libucosii_bsp.a(iproute.o)
 .debug_aranges
                0x0000000000001918       0x20 ../FPGAEncrypt_bsp/\libucosii_bsp.a(udp.o)
 .debug_aranges
                0x0000000000001938       0x20 ../FPGAEncrypt_bsp/\libucosii_bsp.a(igmp.o)
 .debug_aranges
                0x0000000000001958       0x20 ../FPGAEncrypt_bsp/\libucosii_bsp.a(igmp2.o)
 .debug_aranges
                0x0000000000001978       0x20 ../FPGAEncrypt_bsp/\libucosii_bsp.a(ipopt.o)
 .debug_aranges
                0x0000000000001998       0x20 ../FPGAEncrypt_bsp/\libucosii_bsp.a(u_mctest.o)
 .debug_aranges
                0x00000000000019b8       0x20 ../FPGAEncrypt_bsp/\libucosii_bsp.a(dhcsetup.o)
 .debug_aranges
                0x00000000000019d8       0x20 ../FPGAEncrypt_bsp/\libucosii_bsp.a(memdev.o)
 .debug_aranges
                0x00000000000019f8       0x20 ../FPGAEncrypt_bsp/\libucosii_bsp.a(parseip.o)
 .debug_aranges
                0x0000000000001a18       0x20 ../FPGAEncrypt_bsp/\libucosii_bsp.a(tcpcksum.o)
 .debug_aranges
                0x0000000000001a38       0x20 ../FPGAEncrypt_bsp/\libucosii_bsp.a(in_pcb.o)
 .debug_aranges
                0x0000000000001a58       0x20 ../FPGAEncrypt_bsp/\libucosii_bsp.a(vfsfiles.o)
 .debug_aranges
                0x0000000000001a78       0x20 ../FPGAEncrypt_bsp/\libucosii_bsp.a(vfsport.o)
 .debug_aranges
                0x0000000000001a98       0x38 ../FPGAEncrypt_bsp/\libucosii_bsp.a(alt_exception_entry.o)
 .debug_aranges
                0x0000000000001ad0       0x20 ../FPGAEncrypt_bsp/\libucosii_bsp.a(alt_fcntl.o)
 .debug_aranges
                0x0000000000001af0       0x20 ../FPGAEncrypt_bsp/\libucosii_bsp.a(alt_find_file.o)
 .debug_aranges
                0x0000000000001b10       0x20 ../FPGAEncrypt_bsp/\libucosii_bsp.a(alt_get_fd.o)
 .debug_aranges
                0x0000000000001b30       0x28 ../FPGAEncrypt_bsp/\libucosii_bsp.a(alt_instruction_exception_entry.o)
 .debug_aranges
                0x0000000000001b58       0x20 ../FPGAEncrypt_bsp/\libucosii_bsp.a(alt_usleep.o)
 .debug_aranges
                0x0000000000001b78       0x20 ../FPGAEncrypt_bsp/\libucosii_bsp.a(icmp.o)
 .debug_aranges
                0x0000000000001b98       0x20 c:/intelfpga_lite/18.1/nios2eds/bin/gnu/h-x86_64-mingw32/bin/../lib/gcc/nios2-elf/5.3.0/../../../../../H-x86_64-mingw32/nios2-elf/lib\libc.a(lib_a-atexit.o)
 .debug_aranges
                0x0000000000001bb8       0x28 c:/intelfpga_lite/18.1/nios2eds/bin/gnu/h-x86_64-mingw32/bin/../lib/gcc/nios2-elf/5.3.0/../../../../../H-x86_64-mingw32/nios2-elf/lib\libc.a(lib_a-atoi.o)
 .debug_aranges
                0x0000000000001be0       0x20 c:/intelfpga_lite/18.1/nios2eds/bin/gnu/h-x86_64-mingw32/bin/../lib/gcc/nios2-elf/5.3.0/../../../../../H-x86_64-mingw32/nios2-elf/lib\libc.a(lib_a-exit.o)
 .debug_aranges
                0x0000000000001c00       0x20 c:/intelfpga_lite/18.1/nios2eds/bin/gnu/h-x86_64-mingw32/bin/../lib/gcc/nios2-elf/5.3.0/../../../../../H-x86_64-mingw32/nios2-elf/lib\libc.a(lib_a-malign.o)
 .debug_aranges
                0x0000000000001c20       0x20 c:/intelfpga_lite/18.1/nios2eds/bin/gnu/h-x86_64-mingw32/bin/../lib/gcc/nios2-elf/5.3.0/../../../../../H-x86_64-mingw32/nios2-elf/lib\libc.a(lib_a-malignr.o)
 .debug_aranges
                0x0000000000001c40       0x28 c:/intelfpga_lite/18.1/nios2eds/bin/gnu/h-x86_64-mingw32/bin/../lib/gcc/nios2-elf/5.3.0/../../../../../H-x86_64-mingw32/nios2-elf/lib\libc.a(lib_a-malloc.o)
 .debug_aranges
                0x0000000000001c68       0x20 c:/intelfpga_lite/18.1/nios2eds/bin/gnu/h-x86_64-mingw32/bin/../lib/gcc/nios2-elf/5.3.0/../../../../../H-x86_64-mingw32/nios2-elf/lib\libc.a(lib_a-strcpy.o)
 .debug_aranges
                0x0000000000001c88       0x20 c:/intelfpga_lite/18.1/nios2eds/bin/gnu/h-x86_64-mingw32/bin/../lib/gcc/nios2-elf/5.3.0/../../../../../H-x86_64-mingw32/nios2-elf/lib\libc.a(lib_a-strncmp.o)
 .debug_aranges
                0x0000000000001ca8       0x20 c:/intelfpga_lite/18.1/nios2eds/bin/gnu/h-x86_64-mingw32/bin/../lib/gcc/nios2-elf/5.3.0/../../../../../H-x86_64-mingw32/nios2-elf/lib\libc.a(lib_a-strncpy.o)
 .debug_aranges
                0x0000000000001cc8       0x28 c:/intelfpga_lite/18.1/nios2eds/bin/gnu/h-x86_64-mingw32/bin/../lib/gcc/nios2-elf/5.3.0/../../../../../H-x86_64-mingw32/nios2-elf/lib\libc.a(lib_a-strtol.o)
 .debug_aranges
                0x0000000000001cf0       0x28 c:/intelfpga_lite/18.1/nios2eds/bin/gnu/h-x86_64-mingw32/bin/../lib/gcc/nios2-elf/5.3.0/../../../../../H-x86_64-mingw32/nios2-elf/lib\libc.a(lib_a-vprintf.o)
 .debug_aranges
                0x0000000000001d18       0x28 c:/intelfpga_lite/18.1/nios2eds/bin/gnu/h-x86_64-mingw32/bin/../lib/gcc/nios2-elf/5.3.0/../../../../../H-x86_64-mingw32/nios2-elf/lib\libc.a(lib_a-vsprintf.o)
 .debug_aranges
                0x0000000000001d40       0x20 c:/intelfpga_lite/18.1/nios2eds/bin/gnu/h-x86_64-mingw32/bin/../lib/gcc/nios2-elf/5.3.0/../../../../../H-x86_64-mingw32/nios2-elf/lib\libc.a(lib_a-__atexit.o)
 .debug_aranges
                0x0000000000001d60       0x20 c:/intelfpga_lite/18.1/nios2eds/bin/gnu/h-x86_64-mingw32/bin/../lib/gcc/nios2-elf/5.3.0/../../../../../H-x86_64-mingw32/nios2-elf/lib\libc.a(lib_a-__call_atexit.o)
 .debug_aranges
                0x0000000000001d80       0x20 c:/intelfpga_lite/18.1/nios2eds/bin/gnu/h-x86_64-mingw32/bin/../lib/gcc/nios2-elf/5.3.0/../../../../../H-x86_64-mingw32/nios2-elf/lib\libc.a(lib_a-vfprintfr_1.o)
 .debug_aranges
                0x0000000000001da0       0x20 ../FPGAEncrypt_bsp/\libucosii_bsp.a(alt_exit.o)

.debug_pubnames
 *(.debug_pubnames)

.debug_info     0x0000000000000000    0x6a177
 *(.debug_info .gnu.linkonce.wi.*)
 .debug_info    0x0000000000000000       0x73 ../FPGAEncrypt_bsp//obj/HAL/src/crt0.o
 .debug_info    0x0000000000000073      0x9b1 obj/default/alt_error_handler.o
 .debug_info    0x0000000000000a24      0x369 obj/default/iniche_init.o
 .debug_info    0x0000000000000d8d      0x2ac obj/default/led.o
 .debug_info    0x0000000000001039     0x1099 obj/default/network_utilities.o
 .debug_info    0x00000000000020d2      0x653 obj/default/simple_socket_server.o
 .debug_info    0x0000000000002725      0x897 obj/default/tse_my_system.o
 .debug_info    0x0000000000002fbc       0x96 c:/intelfpga_lite/18.1/nios2eds/bin/gnu/h-x86_64-mingw32/bin/../lib/gcc/nios2-elf/5.3.0/../../../../../H-x86_64-mingw32/nios2-elf/lib\libc.a(lib_a-ctype_.o)
 .debug_info    0x0000000000003052      0x9a8 c:/intelfpga_lite/18.1/nios2eds/bin/gnu/h-x86_64-mingw32/bin/../lib/gcc/nios2-elf/5.3.0/../../../../../H-x86_64-mingw32/nios2-elf/lib\libc.a(lib_a-fprintf.o)
 .debug_info    0x00000000000039fa      0xa61 c:/intelfpga_lite/18.1/nios2eds/bin/gnu/h-x86_64-mingw32/bin/../lib/gcc/nios2-elf/5.3.0/../../../../../H-x86_64-mingw32/nios2-elf/lib\libc.a(lib_a-fwrite.o)
 .debug_info    0x000000000000445b      0x9a2 c:/intelfpga_lite/18.1/nios2eds/bin/gnu/h-x86_64-mingw32/bin/../lib/gcc/nios2-elf/5.3.0/../../../../../H-x86_64-mingw32/nios2-elf/lib\libc.a(lib_a-getc.o)
 .debug_info    0x0000000000004dfd      0x8a1 c:/intelfpga_lite/18.1/nios2eds/bin/gnu/h-x86_64-mingw32/bin/../lib/gcc/nios2-elf/5.3.0/../../../../../H-x86_64-mingw32/nios2-elf/lib\libc.a(lib_a-impure.o)
 .debug_info    0x000000000000569e      0x144 c:/intelfpga_lite/18.1/nios2eds/bin/gnu/h-x86_64-mingw32/bin/../lib/gcc/nios2-elf/5.3.0/../../../../../H-x86_64-mingw32/nios2-elf/lib\libc.a(lib_a-memcpy.o)
 .debug_info    0x00000000000057e2      0x13a c:/intelfpga_lite/18.1/nios2eds/bin/gnu/h-x86_64-mingw32/bin/../lib/gcc/nios2-elf/5.3.0/../../../../../H-x86_64-mingw32/nios2-elf/lib\libc.a(lib_a-memmove.o)
 .debug_info    0x000000000000591c      0x121 c:/intelfpga_lite/18.1/nios2eds/bin/gnu/h-x86_64-mingw32/bin/../lib/gcc/nios2-elf/5.3.0/../../../../../H-x86_64-mingw32/nios2-elf/lib\libc.a(lib_a-memset.o)
 .debug_info    0x0000000000005a3d      0x988 c:/intelfpga_lite/18.1/nios2eds/bin/gnu/h-x86_64-mingw32/bin/../lib/gcc/nios2-elf/5.3.0/../../../../../H-x86_64-mingw32/nios2-elf/lib\libc.a(lib_a-perror.o)
 .debug_info    0x00000000000063c5      0x991 c:/intelfpga_lite/18.1/nios2eds/bin/gnu/h-x86_64-mingw32/bin/../lib/gcc/nios2-elf/5.3.0/../../../../../H-x86_64-mingw32/nios2-elf/lib\libc.a(lib_a-printf.o)
 .debug_info    0x0000000000006d56      0x9b4 c:/intelfpga_lite/18.1/nios2eds/bin/gnu/h-x86_64-mingw32/bin/../lib/gcc/nios2-elf/5.3.0/../../../../../H-x86_64-mingw32/nios2-elf/lib\libc.a(lib_a-putc.o)
 .debug_info    0x000000000000770a      0x922 c:/intelfpga_lite/18.1/nios2eds/bin/gnu/h-x86_64-mingw32/bin/../lib/gcc/nios2-elf/5.3.0/../../../../../H-x86_64-mingw32/nios2-elf/lib\libc.a(lib_a-putchar.o)
 .debug_info    0x000000000000802c      0xa38 c:/intelfpga_lite/18.1/nios2eds/bin/gnu/h-x86_64-mingw32/bin/../lib/gcc/nios2-elf/5.3.0/../../../../../H-x86_64-mingw32/nios2-elf/lib\libc.a(lib_a-puts.o)
 .debug_info    0x0000000000008a64      0x950 c:/intelfpga_lite/18.1/nios2eds/bin/gnu/h-x86_64-mingw32/bin/../lib/gcc/nios2-elf/5.3.0/../../../../../H-x86_64-mingw32/nios2-elf/lib\libc.a(lib_a-rget.o)
 .debug_info    0x00000000000093b4      0xa00 c:/intelfpga_lite/18.1/nios2eds/bin/gnu/h-x86_64-mingw32/bin/../lib/gcc/nios2-elf/5.3.0/../../../../../H-x86_64-mingw32/nios2-elf/lib\libc.a(lib_a-sprintf.o)
 .debug_info    0x0000000000009db4      0x11d c:/intelfpga_lite/18.1/nios2eds/bin/gnu/h-x86_64-mingw32/bin/../lib/gcc/nios2-elf/5.3.0/../../../../../H-x86_64-mingw32/nios2-elf/lib\libc.a(lib_a-strchr.o)
 .debug_info    0x0000000000009ed1      0x972 c:/intelfpga_lite/18.1/nios2eds/bin/gnu/h-x86_64-mingw32/bin/../lib/gcc/nios2-elf/5.3.0/../../../../../H-x86_64-mingw32/nios2-elf/lib\libc.a(lib_a-strerror.o)
 .debug_info    0x000000000000a843       0xe2 c:/intelfpga_lite/18.1/nios2eds/bin/gnu/h-x86_64-mingw32/bin/../lib/gcc/nios2-elf/5.3.0/../../../../../H-x86_64-mingw32/nios2-elf/lib\libc.a(lib_a-strlen.o)
 .debug_info    0x000000000000a925      0x4b1 c:/intelfpga_lite/18.1/nios2eds/bin/gnu/h-x86_64-mingw32/bin/../lib/gcc/nios2-elf/5.3.0/../../../../../H-x86_64-mingw32/nios2-elf/lib\libc.a(lib_a-strstr.o)
 .debug_info    0x000000000000add6     0x14eb c:/intelfpga_lite/18.1/nios2eds/bin/gnu/h-x86_64-mingw32/bin/../lib/gcc/nios2-elf/5.3.0/../../../../../H-x86_64-mingw32/nios2-elf/lib\libc.a(lib_a-svfprintf.o)
 .debug_info    0x000000000000c2c1       0x81 c:/intelfpga_lite/18.1/nios2eds/bin/gnu/h-x86_64-mingw32/bin/../lib/gcc/nios2-elf/5.3.0/../../../../../H-x86_64-mingw32/nios2-elf/lib\libc.a(lib_a-u_strerr.o)
 .debug_info    0x000000000000c342     0x16b8 c:/intelfpga_lite/18.1/nios2eds/bin/gnu/h-x86_64-mingw32/bin/../lib/gcc/nios2-elf/5.3.0/../../../../../H-x86_64-mingw32/nios2-elf/lib\libc.a(lib_a-vfprintf.o)
 .debug_info    0x000000000000d9fa      0x9be c:/intelfpga_lite/18.1/nios2eds/bin/gnu/h-x86_64-mingw32/bin/../lib/gcc/nios2-elf/5.3.0/../../../../../H-x86_64-mingw32/nios2-elf/lib\libc.a(lib_a-wbuf.o)
 .debug_info    0x000000000000e3b8      0x936 c:/intelfpga_lite/18.1/nios2eds/bin/gnu/h-x86_64-mingw32/bin/../lib/gcc/nios2-elf/5.3.0/../../../../../H-x86_64-mingw32/nios2-elf/lib\libc.a(lib_a-wsetup.o)
 .debug_info    0x000000000000ecee     0x1247 c:/intelfpga_lite/18.1/nios2eds/bin/gnu/h-x86_64-mingw32/bin/../lib/gcc/nios2-elf/5.3.0/../../../../../H-x86_64-mingw32/nios2-elf/lib\libc.a(lib_a-dtoa.o)
 .debug_info    0x000000000000ff35      0xa93 c:/intelfpga_lite/18.1/nios2eds/bin/gnu/h-x86_64-mingw32/bin/../lib/gcc/nios2-elf/5.3.0/../../../../../H-x86_64-mingw32/nios2-elf/lib\libc.a(lib_a-fflush.o)
 .debug_info    0x00000000000109c8      0xd37 c:/intelfpga_lite/18.1/nios2eds/bin/gnu/h-x86_64-mingw32/bin/../lib/gcc/nios2-elf/5.3.0/../../../../../H-x86_64-mingw32/nios2-elf/lib\libc.a(lib_a-findfp.o)
 .debug_info    0x00000000000116ff      0x9c7 c:/intelfpga_lite/18.1/nios2eds/bin/gnu/h-x86_64-mingw32/bin/../lib/gcc/nios2-elf/5.3.0/../../../../../H-x86_64-mingw32/nios2-elf/lib\libc.a(lib_a-fputc.o)
 .debug_info    0x00000000000120c6      0xa41 c:/intelfpga_lite/18.1/nios2eds/bin/gnu/h-x86_64-mingw32/bin/../lib/gcc/nios2-elf/5.3.0/../../../../../H-x86_64-mingw32/nios2-elf/lib\libc.a(lib_a-fputs.o)
 .debug_info    0x0000000000012b07      0xbf7 c:/intelfpga_lite/18.1/nios2eds/bin/gnu/h-x86_64-mingw32/bin/../lib/gcc/nios2-elf/5.3.0/../../../../../H-x86_64-mingw32/nios2-elf/lib\libc.a(lib_a-freer.o)
 .debug_info    0x00000000000136fe      0xbb8 c:/intelfpga_lite/18.1/nios2eds/bin/gnu/h-x86_64-mingw32/bin/../lib/gcc/nios2-elf/5.3.0/../../../../../H-x86_64-mingw32/nios2-elf/lib\libc.a(lib_a-fvwrite.o)
 .debug_info    0x00000000000142b6      0x9b0 c:/intelfpga_lite/18.1/nios2eds/bin/gnu/h-x86_64-mingw32/bin/../lib/gcc/nios2-elf/5.3.0/../../../../../H-x86_64-mingw32/nios2-elf/lib\libc.a(lib_a-fwalk.o)
 .debug_info    0x0000000000014c66      0xc25 c:/intelfpga_lite/18.1/nios2eds/bin/gnu/h-x86_64-mingw32/bin/../lib/gcc/nios2-elf/5.3.0/../../../../../H-x86_64-mingw32/nios2-elf/lib\libc.a(lib_a-locale.o)
 .debug_info    0x000000000001588b      0xad8 c:/intelfpga_lite/18.1/nios2eds/bin/gnu/h-x86_64-mingw32/bin/../lib/gcc/nios2-elf/5.3.0/../../../../../H-x86_64-mingw32/nios2-elf/lib\libc.a(lib_a-makebuf.o)
 .debug_info    0x0000000000016363      0xd57 c:/intelfpga_lite/18.1/nios2eds/bin/gnu/h-x86_64-mingw32/bin/../lib/gcc/nios2-elf/5.3.0/../../../../../H-x86_64-mingw32/nios2-elf/lib\libc.a(lib_a-mallocr.o)
 .debug_info    0x00000000000170ba      0x132 c:/intelfpga_lite/18.1/nios2eds/bin/gnu/h-x86_64-mingw32/bin/../lib/gcc/nios2-elf/5.3.0/../../../../../H-x86_64-mingw32/nios2-elf/lib\libc.a(lib_a-memchr.o)
 .debug_info    0x00000000000171ec      0x11a c:/intelfpga_lite/18.1/nios2eds/bin/gnu/h-x86_64-mingw32/bin/../lib/gcc/nios2-elf/5.3.0/../../../../../H-x86_64-mingw32/nios2-elf/lib\libc.a(lib_a-memcmp.o)
 .debug_info    0x0000000000017306     0x16b7 c:/intelfpga_lite/18.1/nios2eds/bin/gnu/h-x86_64-mingw32/bin/../lib/gcc/nios2-elf/5.3.0/../../../../../H-x86_64-mingw32/nios2-elf/lib\libc.a(lib_a-mprec.o)
 .debug_info    0x00000000000189bd      0xc6b c:/intelfpga_lite/18.1/nios2eds/bin/gnu/h-x86_64-mingw32/bin/../lib/gcc/nios2-elf/5.3.0/../../../../../H-x86_64-mingw32/nios2-elf/lib\libc.a(lib_a-reallocr.o)
 .debug_info    0x0000000000019628      0xa08 c:/intelfpga_lite/18.1/nios2eds/bin/gnu/h-x86_64-mingw32/bin/../lib/gcc/nios2-elf/5.3.0/../../../../../H-x86_64-mingw32/nios2-elf/lib\libc.a(lib_a-refill.o)
 .debug_info    0x000000000001a030       0xdc c:/intelfpga_lite/18.1/nios2eds/bin/gnu/h-x86_64-mingw32/bin/../lib/gcc/nios2-elf/5.3.0/../../../../../H-x86_64-mingw32/nios2-elf/lib\libc.a(lib_a-s_fpclassify.o)
 .debug_info    0x000000000001a10c      0x900 c:/intelfpga_lite/18.1/nios2eds/bin/gnu/h-x86_64-mingw32/bin/../lib/gcc/nios2-elf/5.3.0/../../../../../H-x86_64-mingw32/nios2-elf/lib\libc.a(lib_a-sbrkr.o)
 .debug_info    0x000000000001aa0c      0xb32 c:/intelfpga_lite/18.1/nios2eds/bin/gnu/h-x86_64-mingw32/bin/../lib/gcc/nios2-elf/5.3.0/../../../../../H-x86_64-mingw32/nios2-elf/lib\libc.a(lib_a-stdio.o)
 .debug_info    0x000000000001b53e       0xe4 c:/intelfpga_lite/18.1/nios2eds/bin/gnu/h-x86_64-mingw32/bin/../lib/gcc/nios2-elf/5.3.0/../../../../../H-x86_64-mingw32/nios2-elf/lib\libc.a(lib_a-strcmp.o)
 .debug_info    0x000000000001b622      0xf8d c:/intelfpga_lite/18.1/nios2eds/bin/gnu/h-x86_64-mingw32/bin/../lib/gcc/nios2-elf/5.3.0/../../../../../H-x86_64-mingw32/nios2-elf/lib\libc.a(lib_a-svfiprintf.o)
 .debug_info    0x000000000001c5af     0x1535 c:/intelfpga_lite/18.1/nios2eds/bin/gnu/h-x86_64-mingw32/bin/../lib/gcc/nios2-elf/5.3.0/../../../../../H-x86_64-mingw32/nios2-elf/lib\libc.a(lib_a-vfiprintf.o)
 .debug_info    0x000000000001dae4      0x928 c:/intelfpga_lite/18.1/nios2eds/bin/gnu/h-x86_64-mingw32/bin/../lib/gcc/nios2-elf/5.3.0/../../../../../H-x86_64-mingw32/nios2-elf/lib\libc.a(lib_a-writer.o)
 .debug_info    0x000000000001e40c      0x8df c:/intelfpga_lite/18.1/nios2eds/bin/gnu/h-x86_64-mingw32/bin/../lib/gcc/nios2-elf/5.3.0/../../../../../H-x86_64-mingw32/nios2-elf/lib\libc.a(closer.o)
 .debug_info    0x000000000001eceb      0x9d5 c:/intelfpga_lite/18.1/nios2eds/bin/gnu/h-x86_64-mingw32/bin/../lib/gcc/nios2-elf/5.3.0/../../../../../H-x86_64-mingw32/nios2-elf/lib\libc.a(lib_a-callocr.o)
 .debug_info    0x000000000001f6c0      0xa23 c:/intelfpga_lite/18.1/nios2eds/bin/gnu/h-x86_64-mingw32/bin/../lib/gcc/nios2-elf/5.3.0/../../../../../H-x86_64-mingw32/nios2-elf/lib\libc.a(lib_a-fclose.o)
 .debug_info    0x00000000000200e3      0xad4 c:/intelfpga_lite/18.1/nios2eds/bin/gnu/h-x86_64-mingw32/bin/../lib/gcc/nios2-elf/5.3.0/../../../../../H-x86_64-mingw32/nios2-elf/lib\libc.a(lib_a-fputwc.o)
 .debug_info    0x0000000000020bb7      0xa5d c:/intelfpga_lite/18.1/nios2eds/bin/gnu/h-x86_64-mingw32/bin/../lib/gcc/nios2-elf/5.3.0/../../../../../H-x86_64-mingw32/nios2-elf/lib\libc.a(lib_a-fstatr.o)
 .debug_info    0x0000000000021614       0x8a c:/intelfpga_lite/18.1/nios2eds/bin/gnu/h-x86_64-mingw32/bin/../lib/gcc/nios2-elf/5.3.0/../../../../../H-x86_64-mingw32/nios2-elf/lib\libc.a(lib_a-int_errno.o)
 .debug_info    0x000000000002169e      0x8df c:/intelfpga_lite/18.1/nios2eds/bin/gnu/h-x86_64-mingw32/bin/../lib/gcc/nios2-elf/5.3.0/../../../../../H-x86_64-mingw32/nios2-elf/lib\libc.a(lib_a-isattyr.o)
 .debug_info    0x0000000000021f7d      0x90b c:/intelfpga_lite/18.1/nios2eds/bin/gnu/h-x86_64-mingw32/bin/../lib/gcc/nios2-elf/5.3.0/../../../../../H-x86_64-mingw32/nios2-elf/lib\libc.a(lib_a-lseekr.o)
 .debug_info    0x0000000000022888      0x921 c:/intelfpga_lite/18.1/nios2eds/bin/gnu/h-x86_64-mingw32/bin/../lib/gcc/nios2-elf/5.3.0/../../../../../H-x86_64-mingw32/nios2-elf/lib\libc.a(lib_a-readr.o)
 .debug_info    0x00000000000231a9      0xa82 c:/intelfpga_lite/18.1/nios2eds/bin/gnu/h-x86_64-mingw32/bin/../lib/gcc/nios2-elf/5.3.0/../../../../../H-x86_64-mingw32/nios2-elf/lib\libc.a(lib_a-wcrtomb.o)
 .debug_info    0x0000000000023c2b      0x9b1 c:/intelfpga_lite/18.1/nios2eds/bin/gnu/h-x86_64-mingw32/bin/../lib/gcc/nios2-elf/5.3.0/../../../../../H-x86_64-mingw32/nios2-elf/lib\libc.a(lib_a-wctomb_r.o)
 .debug_info    0x00000000000245dc      0x70e c:/intelfpga_lite/18.1/nios2eds/bin/gnu/h-x86_64-mingw32/bin/../lib/gcc/nios2-elf/5.3.0\libgcc.a(_udivdi3.o)
 .debug_info    0x0000000000024cea      0x765 c:/intelfpga_lite/18.1/nios2eds/bin/gnu/h-x86_64-mingw32/bin/../lib/gcc/nios2-elf/5.3.0\libgcc.a(_umoddi3.o)
 .debug_info    0x000000000002544f      0x2c6 c:/intelfpga_lite/18.1/nios2eds/bin/gnu/h-x86_64-mingw32/bin/../lib/gcc/nios2-elf/5.3.0\libgcc.a(lib2-divmod.o)
 .debug_info    0x0000000000025715      0x4a2 c:/intelfpga_lite/18.1/nios2eds/bin/gnu/h-x86_64-mingw32/bin/../lib/gcc/nios2-elf/5.3.0\libgcc.a(adddf3.o)
 .debug_info    0x0000000000025bb7      0x5c7 c:/intelfpga_lite/18.1/nios2eds/bin/gnu/h-x86_64-mingw32/bin/../lib/gcc/nios2-elf/5.3.0\libgcc.a(divdf3.o)
 .debug_info    0x000000000002617e      0x1e2 c:/intelfpga_lite/18.1/nios2eds/bin/gnu/h-x86_64-mingw32/bin/../lib/gcc/nios2-elf/5.3.0\libgcc.a(eqdf2.o)
 .debug_info    0x0000000000026360      0x202 c:/intelfpga_lite/18.1/nios2eds/bin/gnu/h-x86_64-mingw32/bin/../lib/gcc/nios2-elf/5.3.0\libgcc.a(gedf2.o)
 .debug_info    0x0000000000026562      0x204 c:/intelfpga_lite/18.1/nios2eds/bin/gnu/h-x86_64-mingw32/bin/../lib/gcc/nios2-elf/5.3.0\libgcc.a(ledf2.o)
 .debug_info    0x0000000000026766      0x5f5 c:/intelfpga_lite/18.1/nios2eds/bin/gnu/h-x86_64-mingw32/bin/../lib/gcc/nios2-elf/5.3.0\libgcc.a(muldf3.o)
 .debug_info    0x0000000000026d5b      0x4a2 c:/intelfpga_lite/18.1/nios2eds/bin/gnu/h-x86_64-mingw32/bin/../lib/gcc/nios2-elf/5.3.0\libgcc.a(subdf3.o)
 .debug_info    0x00000000000271fd      0x1ae c:/intelfpga_lite/18.1/nios2eds/bin/gnu/h-x86_64-mingw32/bin/../lib/gcc/nios2-elf/5.3.0\libgcc.a(fixdfsi.o)
 .debug_info    0x00000000000273ab      0x1bc c:/intelfpga_lite/18.1/nios2eds/bin/gnu/h-x86_64-mingw32/bin/../lib/gcc/nios2-elf/5.3.0\libgcc.a(floatsidf.o)
 .debug_info    0x0000000000027567      0x1b0 c:/intelfpga_lite/18.1/nios2eds/bin/gnu/h-x86_64-mingw32/bin/../lib/gcc/nios2-elf/5.3.0\libgcc.a(floatunsidf.o)
 .debug_info    0x0000000000027717       0xb2 c:/intelfpga_lite/18.1/nios2eds/bin/gnu/h-x86_64-mingw32/bin/../lib/gcc/nios2-elf/5.3.0\libgcc.a(_clz.o)
 .debug_info    0x00000000000277c9      0x124 c:/intelfpga_lite/18.1/nios2eds/bin/gnu/h-x86_64-mingw32/bin/../lib/gcc/nios2-elf/5.3.0\libgcc.a(_clzsi2.o)
 .debug_info    0x00000000000278ed      0x4bc ../FPGAEncrypt_bsp/\libucosii_bsp.a(alt_fstat.o)
 .debug_info    0x0000000000027da9      0x4bf ../FPGAEncrypt_bsp/\libucosii_bsp.a(alt_isatty.o)
 .debug_info    0x0000000000028268      0x386 ../FPGAEncrypt_bsp/\libucosii_bsp.a(alt_lseek.o)
 .debug_info    0x00000000000285ee      0x26d ../FPGAEncrypt_bsp/\libucosii_bsp.a(alt_main.o)
 .debug_info    0x000000000002885b      0x1ac ../FPGAEncrypt_bsp/\libucosii_bsp.a(alt_sbrk.o)
 .debug_info    0x0000000000028a07      0xc67 ../FPGAEncrypt_bsp/\libucosii_bsp.a(alt_env_lock.o)
 .debug_info    0x000000000002966e      0xdad ../FPGAEncrypt_bsp/\libucosii_bsp.a(alt_malloc_lock.o)
 .debug_info    0x000000000002a41b     0x15b9 ../FPGAEncrypt_bsp/\libucosii_bsp.a(os_core.o)
 .debug_info    0x000000000002b9d4      0xaa8 ../FPGAEncrypt_bsp/\libucosii_bsp.a(os_dbg.o)
 .debug_info    0x000000000002c47c      0xf9c ../FPGAEncrypt_bsp/\libucosii_bsp.a(os_flag.o)
 .debug_info    0x000000000002d418      0x67a ../FPGAEncrypt_bsp/\libucosii_bsp.a(os_mem.o)
 .debug_info    0x000000000002da92      0xda3 ../FPGAEncrypt_bsp/\libucosii_bsp.a(os_q.o)
 .debug_info    0x000000000002e835      0xa04 ../FPGAEncrypt_bsp/\libucosii_bsp.a(os_sem.o)
 .debug_info    0x000000000002f239     0x1117 ../FPGAEncrypt_bsp/\libucosii_bsp.a(os_task.o)
 .debug_info    0x0000000000030350      0x6e9 ../FPGAEncrypt_bsp/\libucosii_bsp.a(os_time.o)
 .debug_info    0x0000000000030a39     0x11fe ../FPGAEncrypt_bsp/\libucosii_bsp.a(alt_sys_init.o)
 .debug_info    0x0000000000031c37      0x67b ../FPGAEncrypt_bsp/\libucosii_bsp.a(altera_avalon_jtag_uart_fd.o)
 .debug_info    0x00000000000322b2      0x6b3 ../FPGAEncrypt_bsp/\libucosii_bsp.a(altera_avalon_jtag_uart_init.o)
 .debug_info    0x0000000000032965      0x3cd ../FPGAEncrypt_bsp/\libucosii_bsp.a(altera_avalon_jtag_uart_ioctl.o)
 .debug_info    0x0000000000032d32      0x57a ../FPGAEncrypt_bsp/\libucosii_bsp.a(altera_avalon_jtag_uart_read.o)
 .debug_info    0x00000000000332ac      0x579 ../FPGAEncrypt_bsp/\libucosii_bsp.a(altera_avalon_jtag_uart_write.o)
 .debug_info    0x0000000000033825      0x226 ../FPGAEncrypt_bsp/\libucosii_bsp.a(altera_avalon_timer_sc.o)
 .debug_info    0x0000000000033a4b      0x8f3 ../FPGAEncrypt_bsp/\libucosii_bsp.a(altera_epcq_controller2.o)
 .debug_info    0x000000000003433e     0x1ab0 ../FPGAEncrypt_bsp/\libucosii_bsp.a(altera_msgdma.o)
 .debug_info    0x0000000000035dee      0x3c2 ../FPGAEncrypt_bsp/\libucosii_bsp.a(altera_remote_update.o)
 .debug_info    0x00000000000361b0     0x1e18 ../FPGAEncrypt_bsp/\libucosii_bsp.a(ins_tse_mac.o)
 .debug_info    0x0000000000037fc8       0xdc ../FPGAEncrypt_bsp/\libucosii_bsp.a(alt_iniche_close.o)
 .debug_info    0x00000000000380a4      0x72f ../FPGAEncrypt_bsp/\libucosii_bsp.a(alt_iniche_dev.o)
 .debug_info    0x00000000000387d3      0x105 ../FPGAEncrypt_bsp/\libucosii_bsp.a(alt_iniche_read.o)
 .debug_info    0x00000000000388d8      0x10a ../FPGAEncrypt_bsp/\libucosii_bsp.a(alt_iniche_write.o)
 .debug_info    0x00000000000389e2      0x843 ../FPGAEncrypt_bsp/\libucosii_bsp.a(ipnet.o)
 .debug_info    0x0000000000039225      0x7a3 ../FPGAEncrypt_bsp/\libucosii_bsp.a(ipstart.o)
 .debug_info    0x00000000000399c8      0xc98 ../FPGAEncrypt_bsp/\libucosii_bsp.a(igmp_cmn.o)
 .debug_info    0x000000000003a660      0xe8a ../FPGAEncrypt_bsp/\libucosii_bsp.a(bsdsock.o)
 .debug_info    0x000000000003b4ea      0x164 ../FPGAEncrypt_bsp/\libucosii_bsp.a(cksum.o)
 .debug_info    0x000000000003b64e      0x585 ../FPGAEncrypt_bsp/\libucosii_bsp.a(in_utils.o)
 .debug_info    0x000000000003bbd3      0x37f ../FPGAEncrypt_bsp/\libucosii_bsp.a(netmain.o)
 .debug_info    0x000000000003bf52      0x5cd ../FPGAEncrypt_bsp/\libucosii_bsp.a(tk_crnos.o)
 .debug_info    0x000000000003c51f      0xfe0 ../FPGAEncrypt_bsp/\libucosii_bsp.a(dhcpclnt.o)
 .debug_info    0x000000000003d4ff       0xff ../FPGAEncrypt_bsp/\libucosii_bsp.a(dhcputil.o)
 .debug_info    0x000000000003d5fe      0x86e ../FPGAEncrypt_bsp/\libucosii_bsp.a(pktalloc.o)
 .debug_info    0x000000000003de6c      0x1ee ../FPGAEncrypt_bsp/\libucosii_bsp.a(q.o)
 .debug_info    0x000000000003e05a      0x74b ../FPGAEncrypt_bsp/\libucosii_bsp.a(udp_open.o)
 .debug_info    0x000000000003e7a5       0x67 ../FPGAEncrypt_bsp/\libucosii_bsp.a(asm_cksum.o)
 .debug_info    0x000000000003e80c      0xa7d ../FPGAEncrypt_bsp/\libucosii_bsp.a(brdutils.o)
 .debug_info    0x000000000003f289      0x496 ../FPGAEncrypt_bsp/\libucosii_bsp.a(osportco.o)
 .debug_info    0x000000000003f71f      0x4af ../FPGAEncrypt_bsp/\libucosii_bsp.a(targnios.o)
 .debug_info    0x000000000003fbce     0x18ef ../FPGAEncrypt_bsp/\libucosii_bsp.a(nptcp.o)
 .debug_info    0x00000000000414bd      0xc52 ../FPGAEncrypt_bsp/\libucosii_bsp.a(rawsock.o)
 .debug_info    0x000000000004210f     0x155a ../FPGAEncrypt_bsp/\libucosii_bsp.a(sockcall.o)
 .debug_info    0x0000000000043669     0x1326 ../FPGAEncrypt_bsp/\libucosii_bsp.a(socket.o)
 .debug_info    0x000000000004498f      0xf20 ../FPGAEncrypt_bsp/\libucosii_bsp.a(socket2.o)
 .debug_info    0x00000000000458af      0xcc4 ../FPGAEncrypt_bsp/\libucosii_bsp.a(soselect.o)
 .debug_info    0x0000000000046573     0x15b9 ../FPGAEncrypt_bsp/\libucosii_bsp.a(tcp_in.o)
 .debug_info    0x0000000000047b2c     0x1331 ../FPGAEncrypt_bsp/\libucosii_bsp.a(tcp_out.o)
 .debug_info    0x0000000000048e5d     0x138c ../FPGAEncrypt_bsp/\libucosii_bsp.a(tcp_subr.o)
 .debug_info    0x000000000004a1e9     0x11e8 ../FPGAEncrypt_bsp/\libucosii_bsp.a(tcp_timr.o)
 .debug_info    0x000000000004b3d1     0x11bc ../FPGAEncrypt_bsp/\libucosii_bsp.a(tcp_usr.o)
 .debug_info    0x000000000004c58d       0xdb ../FPGAEncrypt_bsp/\libucosii_bsp.a(tcpport.o)
 .debug_info    0x000000000004c668      0xd9d ../FPGAEncrypt_bsp/\libucosii_bsp.a(udpsock.o)
 .debug_info    0x000000000004d405      0x2cc ../FPGAEncrypt_bsp/\libucosii_bsp.a(alt_alarm_start.o)
 .debug_info    0x000000000004d6d1       0xd7 ../FPGAEncrypt_bsp/\libucosii_bsp.a(alt_busy_sleep.o)
 .debug_info    0x000000000004d7a8      0x355 ../FPGAEncrypt_bsp/\libucosii_bsp.a(alt_close.o)
 .debug_info    0x000000000004dafd       0xdc ../FPGAEncrypt_bsp/\libucosii_bsp.a(alt_dcache_flush.o)
 .debug_info    0x000000000004dbd9      0x585 ../FPGAEncrypt_bsp/\libucosii_bsp.a(alt_dev.o)
 .debug_info    0x000000000004e15e      0x1a9 ../FPGAEncrypt_bsp/\libucosii_bsp.a(alt_dev_llist_insert.o)
 .debug_info    0x000000000004e307       0x83 ../FPGAEncrypt_bsp/\libucosii_bsp.a(alt_do_ctors.o)
 .debug_info    0x000000000004e38a       0x83 ../FPGAEncrypt_bsp/\libucosii_bsp.a(alt_do_dtors.o)
 .debug_info    0x000000000004e40d       0xa6 ../FPGAEncrypt_bsp/\libucosii_bsp.a(alt_errno.o)
 .debug_info    0x000000000004e4b3      0x31d ../FPGAEncrypt_bsp/\libucosii_bsp.a(alt_find_dev.o)
 .debug_info    0x000000000004e7d0      0x400 ../FPGAEncrypt_bsp/\libucosii_bsp.a(alt_flash_dev.o)
 .debug_info    0x000000000004ebd0      0x350 ../FPGAEncrypt_bsp/\libucosii_bsp.a(alt_iic.o)
 .debug_info    0x000000000004ef20      0x1ef ../FPGAEncrypt_bsp/\libucosii_bsp.a(alt_iic_isr_register.o)
 .debug_info    0x000000000004f10f      0x4d9 ../FPGAEncrypt_bsp/\libucosii_bsp.a(alt_io_redirect.o)
 .debug_info    0x000000000004f5e8       0x78 ../FPGAEncrypt_bsp/\libucosii_bsp.a(alt_irq_entry.o)
 .debug_info    0x000000000004f660      0x1b0 ../FPGAEncrypt_bsp/\libucosii_bsp.a(alt_irq_handler.o)
 .debug_info    0x000000000004f810       0x88 ../FPGAEncrypt_bsp/\libucosii_bsp.a(alt_irq_vars.o)
 .debug_info    0x000000000004f898      0x3e4 ../FPGAEncrypt_bsp/\libucosii_bsp.a(alt_open.o)
 .debug_info    0x000000000004fc7c      0x119 ../FPGAEncrypt_bsp/\libucosii_bsp.a(alt_printf.o)
 .debug_info    0x000000000004fd95      0x8a6 ../FPGAEncrypt_bsp/\libucosii_bsp.a(alt_putchar.o)
 .debug_info    0x000000000005063b      0x4e4 ../FPGAEncrypt_bsp/\libucosii_bsp.a(alt_read.o)
 .debug_info    0x0000000000050b1f      0x2f9 ../FPGAEncrypt_bsp/\libucosii_bsp.a(alt_release_fd.o)
 .debug_info    0x0000000000050e18       0xcb ../FPGAEncrypt_bsp/\libucosii_bsp.a(alt_remap_cached.o)
 .debug_info    0x0000000000050ee3      0x2a7 ../FPGAEncrypt_bsp/\libucosii_bsp.a(alt_tick.o)
 .debug_info    0x000000000005118a       0xb7 ../FPGAEncrypt_bsp/\libucosii_bsp.a(alt_uncached_free.o)
 .debug_info    0x0000000000051241       0xf7 ../FPGAEncrypt_bsp/\libucosii_bsp.a(alt_uncached_malloc.o)
 .debug_info    0x0000000000051338      0x4eb ../FPGAEncrypt_bsp/\libucosii_bsp.a(alt_write.o)
 .debug_info    0x0000000000051823       0x92 ../FPGAEncrypt_bsp/\libucosii_bsp.a(altera_nios2_gen2_irq.o)
 .debug_info    0x00000000000518b5       0x77 ../FPGAEncrypt_bsp/\libucosii_bsp.a(os_cpu_a.o)
 .debug_info    0x000000000005192c      0xcea ../FPGAEncrypt_bsp/\libucosii_bsp.a(os_cpu_c.o)
 .debug_info    0x0000000000052616     0x2681 ../FPGAEncrypt_bsp/\libucosii_bsp.a(altera_avalon_tse.o)
 .debug_info    0x0000000000054c97      0x908 ../FPGAEncrypt_bsp/\libucosii_bsp.a(allports.o)
 .debug_info    0x000000000005559f      0x25e ../FPGAEncrypt_bsp/\libucosii_bsp.a(timeouts.o)
 .debug_info    0x00000000000557fd      0x119 ../FPGAEncrypt_bsp/\libucosii_bsp.a(tk_misc.o)
 .debug_info    0x0000000000055916      0x124 ../FPGAEncrypt_bsp/\libucosii_bsp.a(alt_iniche_fcntl.o)
 .debug_info    0x0000000000055a3a      0xdb5 ../FPGAEncrypt_bsp/\libucosii_bsp.a(et_arp.o)
 .debug_info    0x00000000000567ef      0xa5d ../FPGAEncrypt_bsp/\libucosii_bsp.a(iface.o)
 .debug_info    0x000000000005724c      0xfd4 ../FPGAEncrypt_bsp/\libucosii_bsp.a(ip.o)
 .debug_info    0x0000000000058220     0x1063 ../FPGAEncrypt_bsp/\libucosii_bsp.a(ip_reasm.o)
 .debug_info    0x0000000000059283      0x8f0 ../FPGAEncrypt_bsp/\libucosii_bsp.a(ipdemux.o)
 .debug_info    0x0000000000059b73      0x6a7 ../FPGAEncrypt_bsp/\libucosii_bsp.a(ipmc.o)
 .debug_info    0x000000000005a21a      0x1a8 ../FPGAEncrypt_bsp/\libucosii_bsp.a(ipport.o)
 .debug_info    0x000000000005a3c2      0x9ed ../FPGAEncrypt_bsp/\libucosii_bsp.a(ipraw.o)
 .debug_info    0x000000000005adaf      0x969 ../FPGAEncrypt_bsp/\libucosii_bsp.a(iproute.o)
 .debug_info    0x000000000005b718      0xcb9 ../FPGAEncrypt_bsp/\libucosii_bsp.a(udp.o)
 .debug_info    0x000000000005c3d1      0x973 ../FPGAEncrypt_bsp/\libucosii_bsp.a(igmp.o)
 .debug_info    0x000000000005cd44      0xaf9 ../FPGAEncrypt_bsp/\libucosii_bsp.a(igmp2.o)
 .debug_info    0x000000000005d83d      0xb53 ../FPGAEncrypt_bsp/\libucosii_bsp.a(ipopt.o)
 .debug_info    0x000000000005e390      0x7e1 ../FPGAEncrypt_bsp/\libucosii_bsp.a(u_mctest.o)
 .debug_info    0x000000000005eb71      0x6bd ../FPGAEncrypt_bsp/\libucosii_bsp.a(dhcsetup.o)
 .debug_info    0x000000000005f22e      0x551 ../FPGAEncrypt_bsp/\libucosii_bsp.a(memdev.o)
 .debug_info    0x000000000005f77f      0x533 ../FPGAEncrypt_bsp/\libucosii_bsp.a(parseip.o)
 .debug_info    0x000000000005fcb2      0x26e ../FPGAEncrypt_bsp/\libucosii_bsp.a(tcpcksum.o)
 .debug_info    0x000000000005ff20      0xcc0 ../FPGAEncrypt_bsp/\libucosii_bsp.a(in_pcb.o)
 .debug_info    0x0000000000060be0      0xc7f ../FPGAEncrypt_bsp/\libucosii_bsp.a(vfsfiles.o)
 .debug_info    0x000000000006185f       0xdb ../FPGAEncrypt_bsp/\libucosii_bsp.a(vfsport.o)
 .debug_info    0x000000000006193a       0x7e ../FPGAEncrypt_bsp/\libucosii_bsp.a(alt_exception_entry.o)
 .debug_info    0x00000000000619b8      0x4f6 ../FPGAEncrypt_bsp/\libucosii_bsp.a(alt_fcntl.o)
 .debug_info    0x0000000000061eae      0x31a ../FPGAEncrypt_bsp/\libucosii_bsp.a(alt_find_file.o)
 .debug_info    0x00000000000621c8      0x44b ../FPGAEncrypt_bsp/\libucosii_bsp.a(alt_get_fd.o)
 .debug_info    0x0000000000062613      0x1e7 ../FPGAEncrypt_bsp/\libucosii_bsp.a(alt_instruction_exception_entry.o)
 .debug_info    0x00000000000627fa      0x141 ../FPGAEncrypt_bsp/\libucosii_bsp.a(alt_usleep.o)
 .debug_info    0x000000000006293b      0xb8f ../FPGAEncrypt_bsp/\libucosii_bsp.a(icmp.o)
 .debug_info    0x00000000000634ca       0xfe c:/intelfpga_lite/18.1/nios2eds/bin/gnu/h-x86_64-mingw32/bin/../lib/gcc/nios2-elf/5.3.0/../../../../../H-x86_64-mingw32/nios2-elf/lib\libc.a(lib_a-atexit.o)
 .debug_info    0x00000000000635c8      0x924 c:/intelfpga_lite/18.1/nios2eds/bin/gnu/h-x86_64-mingw32/bin/../lib/gcc/nios2-elf/5.3.0/../../../../../H-x86_64-mingw32/nios2-elf/lib\libc.a(lib_a-atoi.o)
 .debug_info    0x0000000000063eec      0x8e4 c:/intelfpga_lite/18.1/nios2eds/bin/gnu/h-x86_64-mingw32/bin/../lib/gcc/nios2-elf/5.3.0/../../../../../H-x86_64-mingw32/nios2-elf/lib\libc.a(lib_a-exit.o)
 .debug_info    0x00000000000647d0      0x8e6 c:/intelfpga_lite/18.1/nios2eds/bin/gnu/h-x86_64-mingw32/bin/../lib/gcc/nios2-elf/5.3.0/../../../../../H-x86_64-mingw32/nios2-elf/lib\libc.a(lib_a-malign.o)
 .debug_info    0x00000000000650b6      0xa5d c:/intelfpga_lite/18.1/nios2eds/bin/gnu/h-x86_64-mingw32/bin/../lib/gcc/nios2-elf/5.3.0/../../../../../H-x86_64-mingw32/nios2-elf/lib\libc.a(lib_a-malignr.o)
 .debug_info    0x0000000000065b13      0x911 c:/intelfpga_lite/18.1/nios2eds/bin/gnu/h-x86_64-mingw32/bin/../lib/gcc/nios2-elf/5.3.0/../../../../../H-x86_64-mingw32/nios2-elf/lib\libc.a(lib_a-malloc.o)
 .debug_info    0x0000000000066424      0x117 c:/intelfpga_lite/18.1/nios2eds/bin/gnu/h-x86_64-mingw32/bin/../lib/gcc/nios2-elf/5.3.0/../../../../../H-x86_64-mingw32/nios2-elf/lib\libc.a(lib_a-strcpy.o)
 .debug_info    0x000000000006653b       0xfc c:/intelfpga_lite/18.1/nios2eds/bin/gnu/h-x86_64-mingw32/bin/../lib/gcc/nios2-elf/5.3.0/../../../../../H-x86_64-mingw32/nios2-elf/lib\libc.a(lib_a-strncmp.o)
 .debug_info    0x0000000000066637      0x13b c:/intelfpga_lite/18.1/nios2eds/bin/gnu/h-x86_64-mingw32/bin/../lib/gcc/nios2-elf/5.3.0/../../../../../H-x86_64-mingw32/nios2-elf/lib\libc.a(lib_a-strncpy.o)
 .debug_info    0x0000000000066772      0x9c5 c:/intelfpga_lite/18.1/nios2eds/bin/gnu/h-x86_64-mingw32/bin/../lib/gcc/nios2-elf/5.3.0/../../../../../H-x86_64-mingw32/nios2-elf/lib\libc.a(lib_a-strtol.o)
 .debug_info    0x0000000000067137      0x971 c:/intelfpga_lite/18.1/nios2eds/bin/gnu/h-x86_64-mingw32/bin/../lib/gcc/nios2-elf/5.3.0/../../../../../H-x86_64-mingw32/nios2-elf/lib\libc.a(lib_a-vprintf.o)
 .debug_info    0x0000000000067aa8      0x9c7 c:/intelfpga_lite/18.1/nios2eds/bin/gnu/h-x86_64-mingw32/bin/../lib/gcc/nios2-elf/5.3.0/../../../../../H-x86_64-mingw32/nios2-elf/lib\libc.a(lib_a-vsprintf.o)
 .debug_info    0x000000000006846f      0x934 c:/intelfpga_lite/18.1/nios2eds/bin/gnu/h-x86_64-mingw32/bin/../lib/gcc/nios2-elf/5.3.0/../../../../../H-x86_64-mingw32/nios2-elf/lib\libc.a(lib_a-__atexit.o)
 .debug_info    0x0000000000068da3      0x965 c:/intelfpga_lite/18.1/nios2eds/bin/gnu/h-x86_64-mingw32/bin/../lib/gcc/nios2-elf/5.3.0/../../../../../H-x86_64-mingw32/nios2-elf/lib\libc.a(lib_a-__call_atexit.o)
 .debug_info    0x0000000000069708      0x934 c:/intelfpga_lite/18.1/nios2eds/bin/gnu/h-x86_64-mingw32/bin/../lib/gcc/nios2-elf/5.3.0/../../../../../H-x86_64-mingw32/nios2-elf/lib\libc.a(lib_a-vfprintfr_1.o)
 .debug_info    0x000000000006a03c      0x13b ../FPGAEncrypt_bsp/\libucosii_bsp.a(alt_exit.o)

.debug_abbrev   0x0000000000000000    0x15d0e
 *(.debug_abbrev)
 .debug_abbrev  0x0000000000000000       0x14 ../FPGAEncrypt_bsp//obj/HAL/src/crt0.o
 .debug_abbrev  0x0000000000000014      0x226 obj/default/alt_error_handler.o
 .debug_abbrev  0x000000000000023a      0x13e obj/default/iniche_init.o
 .debug_abbrev  0x0000000000000378       0xf9 obj/default/led.o
 .debug_abbrev  0x0000000000000471      0x2ad obj/default/network_utilities.o
 .debug_abbrev  0x000000000000071e      0x1dc obj/default/simple_socket_server.o
 .debug_abbrev  0x00000000000008fa      0x110 obj/default/tse_my_system.o
 .debug_abbrev  0x0000000000000a0a       0x5d c:/intelfpga_lite/18.1/nios2eds/bin/gnu/h-x86_64-mingw32/bin/../lib/gcc/nios2-elf/5.3.0/../../../../../H-x86_64-mingw32/nios2-elf/lib\libc.a(lib_a-ctype_.o)
 .debug_abbrev  0x0000000000000a67      0x215 c:/intelfpga_lite/18.1/nios2eds/bin/gnu/h-x86_64-mingw32/bin/../lib/gcc/nios2-elf/5.3.0/../../../../../H-x86_64-mingw32/nios2-elf/lib\libc.a(lib_a-fprintf.o)
 .debug_abbrev  0x0000000000000c7c      0x24f c:/intelfpga_lite/18.1/nios2eds/bin/gnu/h-x86_64-mingw32/bin/../lib/gcc/nios2-elf/5.3.0/../../../../../H-x86_64-mingw32/nios2-elf/lib\libc.a(lib_a-fwrite.o)
 .debug_abbrev  0x0000000000000ecb      0x235 c:/intelfpga_lite/18.1/nios2eds/bin/gnu/h-x86_64-mingw32/bin/../lib/gcc/nios2-elf/5.3.0/../../../../../H-x86_64-mingw32/nios2-elf/lib\libc.a(lib_a-getc.o)
 .debug_abbrev  0x0000000000001100      0x18f c:/intelfpga_lite/18.1/nios2eds/bin/gnu/h-x86_64-mingw32/bin/../lib/gcc/nios2-elf/5.3.0/../../../../../H-x86_64-mingw32/nios2-elf/lib\libc.a(lib_a-impure.o)
 .debug_abbrev  0x000000000000128f       0xa3 c:/intelfpga_lite/18.1/nios2eds/bin/gnu/h-x86_64-mingw32/bin/../lib/gcc/nios2-elf/5.3.0/../../../../../H-x86_64-mingw32/nios2-elf/lib\libc.a(lib_a-memcpy.o)
 .debug_abbrev  0x0000000000001332       0x9c c:/intelfpga_lite/18.1/nios2eds/bin/gnu/h-x86_64-mingw32/bin/../lib/gcc/nios2-elf/5.3.0/../../../../../H-x86_64-mingw32/nios2-elf/lib\libc.a(lib_a-memmove.o)
 .debug_abbrev  0x00000000000013ce       0xae c:/intelfpga_lite/18.1/nios2eds/bin/gnu/h-x86_64-mingw32/bin/../lib/gcc/nios2-elf/5.3.0/../../../../../H-x86_64-mingw32/nios2-elf/lib\libc.a(lib_a-memset.o)
 .debug_abbrev  0x000000000000147c      0x233 c:/intelfpga_lite/18.1/nios2eds/bin/gnu/h-x86_64-mingw32/bin/../lib/gcc/nios2-elf/5.3.0/../../../../../H-x86_64-mingw32/nios2-elf/lib\libc.a(lib_a-perror.o)
 .debug_abbrev  0x00000000000016af      0x233 c:/intelfpga_lite/18.1/nios2eds/bin/gnu/h-x86_64-mingw32/bin/../lib/gcc/nios2-elf/5.3.0/../../../../../H-x86_64-mingw32/nios2-elf/lib\libc.a(lib_a-printf.o)
 .debug_abbrev  0x00000000000018e2      0x243 c:/intelfpga_lite/18.1/nios2eds/bin/gnu/h-x86_64-mingw32/bin/../lib/gcc/nios2-elf/5.3.0/../../../../../H-x86_64-mingw32/nios2-elf/lib\libc.a(lib_a-putc.o)
 .debug_abbrev  0x0000000000001b25      0x205 c:/intelfpga_lite/18.1/nios2eds/bin/gnu/h-x86_64-mingw32/bin/../lib/gcc/nios2-elf/5.3.0/../../../../../H-x86_64-mingw32/nios2-elf/lib\libc.a(lib_a-putchar.o)
 .debug_abbrev  0x0000000000001d2a      0x249 c:/intelfpga_lite/18.1/nios2eds/bin/gnu/h-x86_64-mingw32/bin/../lib/gcc/nios2-elf/5.3.0/../../../../../H-x86_64-mingw32/nios2-elf/lib\libc.a(lib_a-puts.o)
 .debug_abbrev  0x0000000000001f73      0x224 c:/intelfpga_lite/18.1/nios2eds/bin/gnu/h-x86_64-mingw32/bin/../lib/gcc/nios2-elf/5.3.0/../../../../../H-x86_64-mingw32/nios2-elf/lib\libc.a(lib_a-rget.o)
 .debug_abbrev  0x0000000000002197      0x21d c:/intelfpga_lite/18.1/nios2eds/bin/gnu/h-x86_64-mingw32/bin/../lib/gcc/nios2-elf/5.3.0/../../../../../H-x86_64-mingw32/nios2-elf/lib\libc.a(lib_a-sprintf.o)
 .debug_abbrev  0x00000000000023b4       0x83 c:/intelfpga_lite/18.1/nios2eds/bin/gnu/h-x86_64-mingw32/bin/../lib/gcc/nios2-elf/5.3.0/../../../../../H-x86_64-mingw32/nios2-elf/lib\libc.a(lib_a-strchr.o)
 .debug_abbrev  0x0000000000002437      0x218 c:/intelfpga_lite/18.1/nios2eds/bin/gnu/h-x86_64-mingw32/bin/../lib/gcc/nios2-elf/5.3.0/../../../../../H-x86_64-mingw32/nios2-elf/lib\libc.a(lib_a-strerror.o)
 .debug_abbrev  0x000000000000264f       0x90 c:/intelfpga_lite/18.1/nios2eds/bin/gnu/h-x86_64-mingw32/bin/../lib/gcc/nios2-elf/5.3.0/../../../../../H-x86_64-mingw32/nios2-elf/lib\libc.a(lib_a-strlen.o)
 .debug_abbrev  0x00000000000026df      0x1dc c:/intelfpga_lite/18.1/nios2eds/bin/gnu/h-x86_64-mingw32/bin/../lib/gcc/nios2-elf/5.3.0/../../../../../H-x86_64-mingw32/nios2-elf/lib\libc.a(lib_a-strstr.o)
 .debug_abbrev  0x00000000000028bb      0x361 c:/intelfpga_lite/18.1/nios2eds/bin/gnu/h-x86_64-mingw32/bin/../lib/gcc/nios2-elf/5.3.0/../../../../../H-x86_64-mingw32/nios2-elf/lib\libc.a(lib_a-svfprintf.o)
 .debug_abbrev  0x0000000000002c1c       0x5e c:/intelfpga_lite/18.1/nios2eds/bin/gnu/h-x86_64-mingw32/bin/../lib/gcc/nios2-elf/5.3.0/../../../../../H-x86_64-mingw32/nios2-elf/lib\libc.a(lib_a-u_strerr.o)
 .debug_abbrev  0x0000000000002c7a      0x3bf c:/intelfpga_lite/18.1/nios2eds/bin/gnu/h-x86_64-mingw32/bin/../lib/gcc/nios2-elf/5.3.0/../../../../../H-x86_64-mingw32/nios2-elf/lib\libc.a(lib_a-vfprintf.o)
 .debug_abbrev  0x0000000000003039      0x251 c:/intelfpga_lite/18.1/nios2eds/bin/gnu/h-x86_64-mingw32/bin/../lib/gcc/nios2-elf/5.3.0/../../../../../H-x86_64-mingw32/nios2-elf/lib\libc.a(lib_a-wbuf.o)
 .debug_abbrev  0x000000000000328a      0x218 c:/intelfpga_lite/18.1/nios2eds/bin/gnu/h-x86_64-mingw32/bin/../lib/gcc/nios2-elf/5.3.0/../../../../../H-x86_64-mingw32/nios2-elf/lib\libc.a(lib_a-wsetup.o)
 .debug_abbrev  0x00000000000034a2      0x2b8 c:/intelfpga_lite/18.1/nios2eds/bin/gnu/h-x86_64-mingw32/bin/../lib/gcc/nios2-elf/5.3.0/../../../../../H-x86_64-mingw32/nios2-elf/lib\libc.a(lib_a-dtoa.o)
 .debug_abbrev  0x000000000000375a      0x2a0 c:/intelfpga_lite/18.1/nios2eds/bin/gnu/h-x86_64-mingw32/bin/../lib/gcc/nios2-elf/5.3.0/../../../../../H-x86_64-mingw32/nios2-elf/lib\libc.a(lib_a-fflush.o)
 .debug_abbrev  0x00000000000039fa      0x391 c:/intelfpga_lite/18.1/nios2eds/bin/gnu/h-x86_64-mingw32/bin/../lib/gcc/nios2-elf/5.3.0/../../../../../H-x86_64-mingw32/nios2-elf/lib\libc.a(lib_a-findfp.o)
 .debug_abbrev  0x0000000000003d8b      0x248 c:/intelfpga_lite/18.1/nios2eds/bin/gnu/h-x86_64-mingw32/bin/../lib/gcc/nios2-elf/5.3.0/../../../../../H-x86_64-mingw32/nios2-elf/lib\libc.a(lib_a-fputc.o)
 .debug_abbrev  0x0000000000003fd3      0x241 c:/intelfpga_lite/18.1/nios2eds/bin/gnu/h-x86_64-mingw32/bin/../lib/gcc/nios2-elf/5.3.0/../../../../../H-x86_64-mingw32/nios2-elf/lib\libc.a(lib_a-fputs.o)
 .debug_abbrev  0x0000000000004214      0x264 c:/intelfpga_lite/18.1/nios2eds/bin/gnu/h-x86_64-mingw32/bin/../lib/gcc/nios2-elf/5.3.0/../../../../../H-x86_64-mingw32/nios2-elf/lib\libc.a(lib_a-freer.o)
 .debug_abbrev  0x0000000000004478      0x228 c:/intelfpga_lite/18.1/nios2eds/bin/gnu/h-x86_64-mingw32/bin/../lib/gcc/nios2-elf/5.3.0/../../../../../H-x86_64-mingw32/nios2-elf/lib\libc.a(lib_a-fvwrite.o)
 .debug_abbrev  0x00000000000046a0      0x1d1 c:/intelfpga_lite/18.1/nios2eds/bin/gnu/h-x86_64-mingw32/bin/../lib/gcc/nios2-elf/5.3.0/../../../../../H-x86_64-mingw32/nios2-elf/lib\libc.a(lib_a-fwalk.o)
 .debug_abbrev  0x0000000000004871      0x2c0 c:/intelfpga_lite/18.1/nios2eds/bin/gnu/h-x86_64-mingw32/bin/../lib/gcc/nios2-elf/5.3.0/../../../../../H-x86_64-mingw32/nios2-elf/lib\libc.a(lib_a-locale.o)
 .debug_abbrev  0x0000000000004b31      0x20f c:/intelfpga_lite/18.1/nios2eds/bin/gnu/h-x86_64-mingw32/bin/../lib/gcc/nios2-elf/5.3.0/../../../../../H-x86_64-mingw32/nios2-elf/lib\libc.a(lib_a-makebuf.o)
 .debug_abbrev  0x0000000000004d40      0x29d c:/intelfpga_lite/18.1/nios2eds/bin/gnu/h-x86_64-mingw32/bin/../lib/gcc/nios2-elf/5.3.0/../../../../../H-x86_64-mingw32/nios2-elf/lib\libc.a(lib_a-mallocr.o)
 .debug_abbrev  0x0000000000004fdd       0xab c:/intelfpga_lite/18.1/nios2eds/bin/gnu/h-x86_64-mingw32/bin/../lib/gcc/nios2-elf/5.3.0/../../../../../H-x86_64-mingw32/nios2-elf/lib\libc.a(lib_a-memchr.o)
 .debug_abbrev  0x0000000000005088       0x7f c:/intelfpga_lite/18.1/nios2eds/bin/gnu/h-x86_64-mingw32/bin/../lib/gcc/nios2-elf/5.3.0/../../../../../H-x86_64-mingw32/nios2-elf/lib\libc.a(lib_a-memcmp.o)
 .debug_abbrev  0x0000000000005107      0x3d7 c:/intelfpga_lite/18.1/nios2eds/bin/gnu/h-x86_64-mingw32/bin/../lib/gcc/nios2-elf/5.3.0/../../../../../H-x86_64-mingw32/nios2-elf/lib\libc.a(lib_a-mprec.o)
 .debug_abbrev  0x00000000000054de      0x231 c:/intelfpga_lite/18.1/nios2eds/bin/gnu/h-x86_64-mingw32/bin/../lib/gcc/nios2-elf/5.3.0/../../../../../H-x86_64-mingw32/nios2-elf/lib\libc.a(lib_a-reallocr.o)
 .debug_abbrev  0x000000000000570f      0x256 c:/intelfpga_lite/18.1/nios2eds/bin/gnu/h-x86_64-mingw32/bin/../lib/gcc/nios2-elf/5.3.0/../../../../../H-x86_64-mingw32/nios2-elf/lib\libc.a(lib_a-refill.o)
 .debug_abbrev  0x0000000000005965       0x7e c:/intelfpga_lite/18.1/nios2eds/bin/gnu/h-x86_64-mingw32/bin/../lib/gcc/nios2-elf/5.3.0/../../../../../H-x86_64-mingw32/nios2-elf/lib\libc.a(lib_a-s_fpclassify.o)
 .debug_abbrev  0x00000000000059e3      0x20a c:/intelfpga_lite/18.1/nios2eds/bin/gnu/h-x86_64-mingw32/bin/../lib/gcc/nios2-elf/5.3.0/../../../../../H-x86_64-mingw32/nios2-elf/lib\libc.a(lib_a-sbrkr.o)
 .debug_abbrev  0x0000000000005bed      0x239 c:/intelfpga_lite/18.1/nios2eds/bin/gnu/h-x86_64-mingw32/bin/../lib/gcc/nios2-elf/5.3.0/../../../../../H-x86_64-mingw32/nios2-elf/lib\libc.a(lib_a-stdio.o)
 .debug_abbrev  0x0000000000005e26       0x74 c:/intelfpga_lite/18.1/nios2eds/bin/gnu/h-x86_64-mingw32/bin/../lib/gcc/nios2-elf/5.3.0/../../../../../H-x86_64-mingw32/nios2-elf/lib\libc.a(lib_a-strcmp.o)
 .debug_abbrev  0x0000000000005e9a      0x2ae c:/intelfpga_lite/18.1/nios2eds/bin/gnu/h-x86_64-mingw32/bin/../lib/gcc/nios2-elf/5.3.0/../../../../../H-x86_64-mingw32/nios2-elf/lib\libc.a(lib_a-svfiprintf.o)
 .debug_abbrev  0x0000000000006148      0x3ce c:/intelfpga_lite/18.1/nios2eds/bin/gnu/h-x86_64-mingw32/bin/../lib/gcc/nios2-elf/5.3.0/../../../../../H-x86_64-mingw32/nios2-elf/lib\libc.a(lib_a-vfiprintf.o)
 .debug_abbrev  0x0000000000006516      0x1eb c:/intelfpga_lite/18.1/nios2eds/bin/gnu/h-x86_64-mingw32/bin/../lib/gcc/nios2-elf/5.3.0/../../../../../H-x86_64-mingw32/nios2-elf/lib\libc.a(lib_a-writer.o)
 .debug_abbrev  0x0000000000006701      0x1e6 c:/intelfpga_lite/18.1/nios2eds/bin/gnu/h-x86_64-mingw32/bin/../lib/gcc/nios2-elf/5.3.0/../../../../../H-x86_64-mingw32/nios2-elf/lib\libc.a(closer.o)
 .debug_abbrev  0x00000000000068e7      0x209 c:/intelfpga_lite/18.1/nios2eds/bin/gnu/h-x86_64-mingw32/bin/../lib/gcc/nios2-elf/5.3.0/../../../../../H-x86_64-mingw32/nios2-elf/lib\libc.a(lib_a-callocr.o)
 .debug_abbrev  0x0000000000006af0      0x2a2 c:/intelfpga_lite/18.1/nios2eds/bin/gnu/h-x86_64-mingw32/bin/../lib/gcc/nios2-elf/5.3.0/../../../../../H-x86_64-mingw32/nios2-elf/lib\libc.a(lib_a-fclose.o)
 .debug_abbrev  0x0000000000006d92      0x2b9 c:/intelfpga_lite/18.1/nios2eds/bin/gnu/h-x86_64-mingw32/bin/../lib/gcc/nios2-elf/5.3.0/../../../../../H-x86_64-mingw32/nios2-elf/lib\libc.a(lib_a-fputwc.o)
 .debug_abbrev  0x000000000000704b      0x1f5 c:/intelfpga_lite/18.1/nios2eds/bin/gnu/h-x86_64-mingw32/bin/../lib/gcc/nios2-elf/5.3.0/../../../../../H-x86_64-mingw32/nios2-elf/lib\libc.a(lib_a-fstatr.o)
 .debug_abbrev  0x0000000000007240       0x37 c:/intelfpga_lite/18.1/nios2eds/bin/gnu/h-x86_64-mingw32/bin/../lib/gcc/nios2-elf/5.3.0/../../../../../H-x86_64-mingw32/nios2-elf/lib\libc.a(lib_a-int_errno.o)
 .debug_abbrev  0x0000000000007277      0x1e6 c:/intelfpga_lite/18.1/nios2eds/bin/gnu/h-x86_64-mingw32/bin/../lib/gcc/nios2-elf/5.3.0/../../../../../H-x86_64-mingw32/nios2-elf/lib\libc.a(lib_a-isattyr.o)
 .debug_abbrev  0x000000000000745d      0x1f5 c:/intelfpga_lite/18.1/nios2eds/bin/gnu/h-x86_64-mingw32/bin/../lib/gcc/nios2-elf/5.3.0/../../../../../H-x86_64-mingw32/nios2-elf/lib\libc.a(lib_a-lseekr.o)
 .debug_abbrev  0x0000000000007652      0x1e6 c:/intelfpga_lite/18.1/nios2eds/bin/gnu/h-x86_64-mingw32/bin/../lib/gcc/nios2-elf/5.3.0/../../../../../H-x86_64-mingw32/nios2-elf/lib\libc.a(lib_a-readr.o)
 .debug_abbrev  0x0000000000007838      0x230 c:/intelfpga_lite/18.1/nios2eds/bin/gnu/h-x86_64-mingw32/bin/../lib/gcc/nios2-elf/5.3.0/../../../../../H-x86_64-mingw32/nios2-elf/lib\libc.a(lib_a-wcrtomb.o)
 .debug_abbrev  0x0000000000007a68      0x21f c:/intelfpga_lite/18.1/nios2eds/bin/gnu/h-x86_64-mingw32/bin/../lib/gcc/nios2-elf/5.3.0/../../../../../H-x86_64-mingw32/nios2-elf/lib\libc.a(lib_a-wctomb_r.o)
 .debug_abbrev  0x0000000000007c87      0x167 c:/intelfpga_lite/18.1/nios2eds/bin/gnu/h-x86_64-mingw32/bin/../lib/gcc/nios2-elf/5.3.0\libgcc.a(_udivdi3.o)
 .debug_abbrev  0x0000000000007dee      0x18a c:/intelfpga_lite/18.1/nios2eds/bin/gnu/h-x86_64-mingw32/bin/../lib/gcc/nios2-elf/5.3.0\libgcc.a(_umoddi3.o)
 .debug_abbrev  0x0000000000007f78      0x10e c:/intelfpga_lite/18.1/nios2eds/bin/gnu/h-x86_64-mingw32/bin/../lib/gcc/nios2-elf/5.3.0\libgcc.a(lib2-divmod.o)
 .debug_abbrev  0x0000000000008086      0x13a c:/intelfpga_lite/18.1/nios2eds/bin/gnu/h-x86_64-mingw32/bin/../lib/gcc/nios2-elf/5.3.0\libgcc.a(adddf3.o)
 .debug_abbrev  0x00000000000081c0      0x12d c:/intelfpga_lite/18.1/nios2eds/bin/gnu/h-x86_64-mingw32/bin/../lib/gcc/nios2-elf/5.3.0\libgcc.a(divdf3.o)
 .debug_abbrev  0x00000000000082ed      0x128 c:/intelfpga_lite/18.1/nios2eds/bin/gnu/h-x86_64-mingw32/bin/../lib/gcc/nios2-elf/5.3.0\libgcc.a(eqdf2.o)
 .debug_abbrev  0x0000000000008415      0x137 c:/intelfpga_lite/18.1/nios2eds/bin/gnu/h-x86_64-mingw32/bin/../lib/gcc/nios2-elf/5.3.0\libgcc.a(gedf2.o)
 .debug_abbrev  0x000000000000854c      0x137 c:/intelfpga_lite/18.1/nios2eds/bin/gnu/h-x86_64-mingw32/bin/../lib/gcc/nios2-elf/5.3.0\libgcc.a(ledf2.o)
 .debug_abbrev  0x0000000000008683      0x13f c:/intelfpga_lite/18.1/nios2eds/bin/gnu/h-x86_64-mingw32/bin/../lib/gcc/nios2-elf/5.3.0\libgcc.a(muldf3.o)
 .debug_abbrev  0x00000000000087c2      0x133 c:/intelfpga_lite/18.1/nios2eds/bin/gnu/h-x86_64-mingw32/bin/../lib/gcc/nios2-elf/5.3.0\libgcc.a(subdf3.o)
 .debug_abbrev  0x00000000000088f5      0x135 c:/intelfpga_lite/18.1/nios2eds/bin/gnu/h-x86_64-mingw32/bin/../lib/gcc/nios2-elf/5.3.0\libgcc.a(fixdfsi.o)
 .debug_abbrev  0x0000000000008a2a      0x124 c:/intelfpga_lite/18.1/nios2eds/bin/gnu/h-x86_64-mingw32/bin/../lib/gcc/nios2-elf/5.3.0\libgcc.a(floatsidf.o)
 .debug_abbrev  0x0000000000008b4e      0x124 c:/intelfpga_lite/18.1/nios2eds/bin/gnu/h-x86_64-mingw32/bin/../lib/gcc/nios2-elf/5.3.0\libgcc.a(floatunsidf.o)
 .debug_abbrev  0x0000000000008c72       0x5d c:/intelfpga_lite/18.1/nios2eds/bin/gnu/h-x86_64-mingw32/bin/../lib/gcc/nios2-elf/5.3.0\libgcc.a(_clz.o)
 .debug_abbrev  0x0000000000008ccf       0xbe c:/intelfpga_lite/18.1/nios2eds/bin/gnu/h-x86_64-mingw32/bin/../lib/gcc/nios2-elf/5.3.0\libgcc.a(_clzsi2.o)
 .debug_abbrev  0x0000000000008d8d      0x126 ../FPGAEncrypt_bsp/\libucosii_bsp.a(alt_fstat.o)
 .debug_abbrev  0x0000000000008eb3      0x126 ../FPGAEncrypt_bsp/\libucosii_bsp.a(alt_isatty.o)
 .debug_abbrev  0x0000000000008fd9      0x126 ../FPGAEncrypt_bsp/\libucosii_bsp.a(alt_lseek.o)
 .debug_abbrev  0x00000000000090ff      0x139 ../FPGAEncrypt_bsp/\libucosii_bsp.a(alt_main.o)
 .debug_abbrev  0x0000000000009238      0x112 ../FPGAEncrypt_bsp/\libucosii_bsp.a(alt_sbrk.o)
 .debug_abbrev  0x000000000000934a      0x1e3 ../FPGAEncrypt_bsp/\libucosii_bsp.a(alt_env_lock.o)
 .debug_abbrev  0x000000000000952d      0x26d ../FPGAEncrypt_bsp/\libucosii_bsp.a(alt_malloc_lock.o)
 .debug_abbrev  0x000000000000979a      0x302 ../FPGAEncrypt_bsp/\libucosii_bsp.a(os_core.o)
 .debug_abbrev  0x0000000000009a9c       0xf7 ../FPGAEncrypt_bsp/\libucosii_bsp.a(os_dbg.o)
 .debug_abbrev  0x0000000000009b93      0x25a ../FPGAEncrypt_bsp/\libucosii_bsp.a(os_flag.o)
 .debug_abbrev  0x0000000000009ded      0x228 ../FPGAEncrypt_bsp/\libucosii_bsp.a(os_mem.o)
 .debug_abbrev  0x000000000000a015      0x248 ../FPGAEncrypt_bsp/\libucosii_bsp.a(os_q.o)
 .debug_abbrev  0x000000000000a25d      0x262 ../FPGAEncrypt_bsp/\libucosii_bsp.a(os_sem.o)
 .debug_abbrev  0x000000000000a4bf      0x247 ../FPGAEncrypt_bsp/\libucosii_bsp.a(os_task.o)
 .debug_abbrev  0x000000000000a706      0x20c ../FPGAEncrypt_bsp/\libucosii_bsp.a(os_time.o)
 .debug_abbrev  0x000000000000a912      0x229 ../FPGAEncrypt_bsp/\libucosii_bsp.a(alt_sys_init.o)
 .debug_abbrev  0x000000000000ab3b      0x16c ../FPGAEncrypt_bsp/\libucosii_bsp.a(altera_avalon_jtag_uart_fd.o)
 .debug_abbrev  0x000000000000aca7      0x24f ../FPGAEncrypt_bsp/\libucosii_bsp.a(altera_avalon_jtag_uart_init.o)
 .debug_abbrev  0x000000000000aef6      0x156 ../FPGAEncrypt_bsp/\libucosii_bsp.a(altera_avalon_jtag_uart_ioctl.o)
 .debug_abbrev  0x000000000000b04c      0x1f8 ../FPGAEncrypt_bsp/\libucosii_bsp.a(altera_avalon_jtag_uart_read.o)
 .debug_abbrev  0x000000000000b244      0x1f6 ../FPGAEncrypt_bsp/\libucosii_bsp.a(altera_avalon_jtag_uart_write.o)
 .debug_abbrev  0x000000000000b43a      0x155 ../FPGAEncrypt_bsp/\libucosii_bsp.a(altera_avalon_timer_sc.o)
 .debug_abbrev  0x000000000000b58f      0x1ce ../FPGAEncrypt_bsp/\libucosii_bsp.a(altera_epcq_controller2.o)
 .debug_abbrev  0x000000000000b75d      0x338 ../FPGAEncrypt_bsp/\libucosii_bsp.a(altera_msgdma.o)
 .debug_abbrev  0x000000000000ba95      0x12a ../FPGAEncrypt_bsp/\libucosii_bsp.a(altera_remote_update.o)
 .debug_abbrev  0x000000000000bbbf      0x311 ../FPGAEncrypt_bsp/\libucosii_bsp.a(ins_tse_mac.o)
 .debug_abbrev  0x000000000000bed0       0x7a ../FPGAEncrypt_bsp/\libucosii_bsp.a(alt_iniche_close.o)
 .debug_abbrev  0x000000000000bf4a      0x15e ../FPGAEncrypt_bsp/\libucosii_bsp.a(alt_iniche_dev.o)
 .debug_abbrev  0x000000000000c0a8       0x81 ../FPGAEncrypt_bsp/\libucosii_bsp.a(alt_iniche_read.o)
 .debug_abbrev  0x000000000000c129       0x88 ../FPGAEncrypt_bsp/\libucosii_bsp.a(alt_iniche_write.o)
 .debug_abbrev  0x000000000000c1b1      0x213 ../FPGAEncrypt_bsp/\libucosii_bsp.a(ipnet.o)
 .debug_abbrev  0x000000000000c3c4      0x1e0 ../FPGAEncrypt_bsp/\libucosii_bsp.a(ipstart.o)
 .debug_abbrev  0x000000000000c5a4      0x220 ../FPGAEncrypt_bsp/\libucosii_bsp.a(igmp_cmn.o)
 .debug_abbrev  0x000000000000c7c4      0x217 ../FPGAEncrypt_bsp/\libucosii_bsp.a(bsdsock.o)
 .debug_abbrev  0x000000000000c9db       0xd3 ../FPGAEncrypt_bsp/\libucosii_bsp.a(cksum.o)
 .debug_abbrev  0x000000000000caae      0x223 ../FPGAEncrypt_bsp/\libucosii_bsp.a(in_utils.o)
 .debug_abbrev  0x000000000000ccd1      0x165 ../FPGAEncrypt_bsp/\libucosii_bsp.a(netmain.o)
 .debug_abbrev  0x000000000000ce36      0x16b ../FPGAEncrypt_bsp/\libucosii_bsp.a(tk_crnos.o)
 .debug_abbrev  0x000000000000cfa1      0x260 ../FPGAEncrypt_bsp/\libucosii_bsp.a(dhcpclnt.o)
 .debug_abbrev  0x000000000000d201       0x92 ../FPGAEncrypt_bsp/\libucosii_bsp.a(dhcputil.o)
 .debug_abbrev  0x000000000000d293      0x1f6 ../FPGAEncrypt_bsp/\libucosii_bsp.a(pktalloc.o)
 .debug_abbrev  0x000000000000d489       0xde ../FPGAEncrypt_bsp/\libucosii_bsp.a(q.o)
 .debug_abbrev  0x000000000000d567      0x195 ../FPGAEncrypt_bsp/\libucosii_bsp.a(udp_open.o)
 .debug_abbrev  0x000000000000d6fc       0x14 ../FPGAEncrypt_bsp/\libucosii_bsp.a(asm_cksum.o)
 .debug_abbrev  0x000000000000d710      0x299 ../FPGAEncrypt_bsp/\libucosii_bsp.a(brdutils.o)
 .debug_abbrev  0x000000000000d9a9      0x17f ../FPGAEncrypt_bsp/\libucosii_bsp.a(osportco.o)
 .debug_abbrev  0x000000000000db28      0x1cf ../FPGAEncrypt_bsp/\libucosii_bsp.a(targnios.o)
 .debug_abbrev  0x000000000000dcf7      0x269 ../FPGAEncrypt_bsp/\libucosii_bsp.a(nptcp.o)
 .debug_abbrev  0x000000000000df60      0x19e ../FPGAEncrypt_bsp/\libucosii_bsp.a(rawsock.o)
 .debug_abbrev  0x000000000000e0fe      0x217 ../FPGAEncrypt_bsp/\libucosii_bsp.a(sockcall.o)
 .debug_abbrev  0x000000000000e315      0x262 ../FPGAEncrypt_bsp/\libucosii_bsp.a(socket.o)
 .debug_abbrev  0x000000000000e577      0x280 ../FPGAEncrypt_bsp/\libucosii_bsp.a(socket2.o)
 .debug_abbrev  0x000000000000e7f7      0x1fe ../FPGAEncrypt_bsp/\libucosii_bsp.a(soselect.o)
 .debug_abbrev  0x000000000000e9f5      0x25e ../FPGAEncrypt_bsp/\libucosii_bsp.a(tcp_in.o)
 .debug_abbrev  0x000000000000ec53      0x222 ../FPGAEncrypt_bsp/\libucosii_bsp.a(tcp_out.o)
 .debug_abbrev  0x000000000000ee75      0x24a ../FPGAEncrypt_bsp/\libucosii_bsp.a(tcp_subr.o)
 .debug_abbrev  0x000000000000f0bf      0x227 ../FPGAEncrypt_bsp/\libucosii_bsp.a(tcp_timr.o)
 .debug_abbrev  0x000000000000f2e6      0x1c8 ../FPGAEncrypt_bsp/\libucosii_bsp.a(tcp_usr.o)
 .debug_abbrev  0x000000000000f4ae       0x7a ../FPGAEncrypt_bsp/\libucosii_bsp.a(tcpport.o)
 .debug_abbrev  0x000000000000f528      0x1ec ../FPGAEncrypt_bsp/\libucosii_bsp.a(udpsock.o)
 .debug_abbrev  0x000000000000f714      0x162 ../FPGAEncrypt_bsp/\libucosii_bsp.a(alt_alarm_start.o)
 .debug_abbrev  0x000000000000f876       0x7e ../FPGAEncrypt_bsp/\libucosii_bsp.a(alt_busy_sleep.o)
 .debug_abbrev  0x000000000000f8f4      0x126 ../FPGAEncrypt_bsp/\libucosii_bsp.a(alt_close.o)
 .debug_abbrev  0x000000000000fa1a       0x8c ../FPGAEncrypt_bsp/\libucosii_bsp.a(alt_dcache_flush.o)
 .debug_abbrev  0x000000000000faa6      0x11c ../FPGAEncrypt_bsp/\libucosii_bsp.a(alt_dev.o)
 .debug_abbrev  0x000000000000fbc2      0x114 ../FPGAEncrypt_bsp/\libucosii_bsp.a(alt_dev_llist_insert.o)
 .debug_abbrev  0x000000000000fcd6       0x79 ../FPGAEncrypt_bsp/\libucosii_bsp.a(alt_do_ctors.o)
 .debug_abbrev  0x000000000000fd4f       0x79 ../FPGAEncrypt_bsp/\libucosii_bsp.a(alt_do_dtors.o)
 .debug_abbrev  0x000000000000fdc8       0x5a ../FPGAEncrypt_bsp/\libucosii_bsp.a(alt_errno.o)
 .debug_abbrev  0x000000000000fe22       0xf7 ../FPGAEncrypt_bsp/\libucosii_bsp.a(alt_find_dev.o)
 .debug_abbrev  0x000000000000ff19      0x121 ../FPGAEncrypt_bsp/\libucosii_bsp.a(alt_flash_dev.o)
 .debug_abbrev  0x000000000001003a      0x163 ../FPGAEncrypt_bsp/\libucosii_bsp.a(alt_iic.o)
 .debug_abbrev  0x000000000001019d      0x169 ../FPGAEncrypt_bsp/\libucosii_bsp.a(alt_iic_isr_register.o)
 .debug_abbrev  0x0000000000010306      0x11b ../FPGAEncrypt_bsp/\libucosii_bsp.a(alt_io_redirect.o)
 .debug_abbrev  0x0000000000010421       0x12 ../FPGAEncrypt_bsp/\libucosii_bsp.a(alt_irq_entry.o)
 .debug_abbrev  0x0000000000010433      0x13a ../FPGAEncrypt_bsp/\libucosii_bsp.a(alt_irq_handler.o)
 .debug_abbrev  0x000000000001056d       0x40 ../FPGAEncrypt_bsp/\libucosii_bsp.a(alt_irq_vars.o)
 .debug_abbrev  0x00000000000105ad      0x14f ../FPGAEncrypt_bsp/\libucosii_bsp.a(alt_open.o)
 .debug_abbrev  0x00000000000106fc       0xb0 ../FPGAEncrypt_bsp/\libucosii_bsp.a(alt_printf.o)
 .debug_abbrev  0x00000000000107ac      0x1af ../FPGAEncrypt_bsp/\libucosii_bsp.a(alt_putchar.o)
 .debug_abbrev  0x000000000001095b      0x135 ../FPGAEncrypt_bsp/\libucosii_bsp.a(alt_read.o)
 .debug_abbrev  0x0000000000010a90       0xe5 ../FPGAEncrypt_bsp/\libucosii_bsp.a(alt_release_fd.o)
 .debug_abbrev  0x0000000000010b75       0x77 ../FPGAEncrypt_bsp/\libucosii_bsp.a(alt_remap_cached.o)
 .debug_abbrev  0x0000000000010bec      0x15a ../FPGAEncrypt_bsp/\libucosii_bsp.a(alt_tick.o)
 .debug_abbrev  0x0000000000010d46       0x6e ../FPGAEncrypt_bsp/\libucosii_bsp.a(alt_uncached_free.o)
 .debug_abbrev  0x0000000000010db4       0x9c ../FPGAEncrypt_bsp/\libucosii_bsp.a(alt_uncached_malloc.o)
 .debug_abbrev  0x0000000000010e50      0x13a ../FPGAEncrypt_bsp/\libucosii_bsp.a(alt_write.o)
 .debug_abbrev  0x0000000000010f8a       0x42 ../FPGAEncrypt_bsp/\libucosii_bsp.a(altera_nios2_gen2_irq.o)
 .debug_abbrev  0x0000000000010fcc       0x14 ../FPGAEncrypt_bsp/\libucosii_bsp.a(os_cpu_a.o)
 .debug_abbrev  0x0000000000010fe0      0x22d ../FPGAEncrypt_bsp/\libucosii_bsp.a(os_cpu_c.o)
 .debug_abbrev  0x000000000001120d      0x28c ../FPGAEncrypt_bsp/\libucosii_bsp.a(altera_avalon_tse.o)
 .debug_abbrev  0x0000000000011499      0x1f3 ../FPGAEncrypt_bsp/\libucosii_bsp.a(allports.o)
 .debug_abbrev  0x000000000001168c      0x15a ../FPGAEncrypt_bsp/\libucosii_bsp.a(timeouts.o)
 .debug_abbrev  0x00000000000117e6       0xaa ../FPGAEncrypt_bsp/\libucosii_bsp.a(tk_misc.o)
 .debug_abbrev  0x0000000000011890       0xa6 ../FPGAEncrypt_bsp/\libucosii_bsp.a(alt_iniche_fcntl.o)
 .debug_abbrev  0x0000000000011936      0x243 ../FPGAEncrypt_bsp/\libucosii_bsp.a(et_arp.o)
 .debug_abbrev  0x0000000000011b79      0x1b9 ../FPGAEncrypt_bsp/\libucosii_bsp.a(iface.o)
 .debug_abbrev  0x0000000000011d32      0x243 ../FPGAEncrypt_bsp/\libucosii_bsp.a(ip.o)
 .debug_abbrev  0x0000000000011f75      0x208 ../FPGAEncrypt_bsp/\libucosii_bsp.a(ip_reasm.o)
 .debug_abbrev  0x000000000001217d      0x1b3 ../FPGAEncrypt_bsp/\libucosii_bsp.a(ipdemux.o)
 .debug_abbrev  0x0000000000012330      0x181 ../FPGAEncrypt_bsp/\libucosii_bsp.a(ipmc.o)
 .debug_abbrev  0x00000000000124b1      0x101 ../FPGAEncrypt_bsp/\libucosii_bsp.a(ipport.o)
 .debug_abbrev  0x00000000000125b2      0x20f ../FPGAEncrypt_bsp/\libucosii_bsp.a(ipraw.o)
 .debug_abbrev  0x00000000000127c1      0x1c3 ../FPGAEncrypt_bsp/\libucosii_bsp.a(iproute.o)
 .debug_abbrev  0x0000000000012984      0x24d ../FPGAEncrypt_bsp/\libucosii_bsp.a(udp.o)
 .debug_abbrev  0x0000000000012bd1      0x14d ../FPGAEncrypt_bsp/\libucosii_bsp.a(igmp.o)
 .debug_abbrev  0x0000000000012d1e      0x1b0 ../FPGAEncrypt_bsp/\libucosii_bsp.a(igmp2.o)
 .debug_abbrev  0x0000000000012ece      0x1ef ../FPGAEncrypt_bsp/\libucosii_bsp.a(ipopt.o)
 .debug_abbrev  0x00000000000130bd      0x182 ../FPGAEncrypt_bsp/\libucosii_bsp.a(u_mctest.o)
 .debug_abbrev  0x000000000001323f      0x161 ../FPGAEncrypt_bsp/\libucosii_bsp.a(dhcsetup.o)
 .debug_abbrev  0x00000000000133a0      0x1ac ../FPGAEncrypt_bsp/\libucosii_bsp.a(memdev.o)
 .debug_abbrev  0x000000000001354c      0x1d1 ../FPGAEncrypt_bsp/\libucosii_bsp.a(parseip.o)
 .debug_abbrev  0x000000000001371d       0xce ../FPGAEncrypt_bsp/\libucosii_bsp.a(tcpcksum.o)
 .debug_abbrev  0x00000000000137eb      0x205 ../FPGAEncrypt_bsp/\libucosii_bsp.a(in_pcb.o)
 .debug_abbrev  0x00000000000139f0      0x20a ../FPGAEncrypt_bsp/\libucosii_bsp.a(vfsfiles.o)
 .debug_abbrev  0x0000000000013bfa       0x7a ../FPGAEncrypt_bsp/\libucosii_bsp.a(vfsport.o)
 .debug_abbrev  0x0000000000013c74       0x12 ../FPGAEncrypt_bsp/\libucosii_bsp.a(alt_exception_entry.o)
 .debug_abbrev  0x0000000000013c86      0x143 ../FPGAEncrypt_bsp/\libucosii_bsp.a(alt_fcntl.o)
 .debug_abbrev  0x0000000000013dc9       0xf7 ../FPGAEncrypt_bsp/\libucosii_bsp.a(alt_find_file.o)
 .debug_abbrev  0x0000000000013ec0      0x19b ../FPGAEncrypt_bsp/\libucosii_bsp.a(alt_get_fd.o)
 .debug_abbrev  0x000000000001405b       0xdc ../FPGAEncrypt_bsp/\libucosii_bsp.a(alt_instruction_exception_entry.o)
 .debug_abbrev  0x0000000000014137       0xc7 ../FPGAEncrypt_bsp/\libucosii_bsp.a(alt_usleep.o)
 .debug_abbrev  0x00000000000141fe      0x1bd ../FPGAEncrypt_bsp/\libucosii_bsp.a(icmp.o)
 .debug_abbrev  0x00000000000143bb       0xaa c:/intelfpga_lite/18.1/nios2eds/bin/gnu/h-x86_64-mingw32/bin/../lib/gcc/nios2-elf/5.3.0/../../../../../H-x86_64-mingw32/nios2-elf/lib\libc.a(lib_a-atexit.o)
 .debug_abbrev  0x0000000000014465      0x1c9 c:/intelfpga_lite/18.1/nios2eds/bin/gnu/h-x86_64-mingw32/bin/../lib/gcc/nios2-elf/5.3.0/../../../../../H-x86_64-mingw32/nios2-elf/lib\libc.a(lib_a-atoi.o)
 .debug_abbrev  0x000000000001462e      0x1e5 c:/intelfpga_lite/18.1/nios2eds/bin/gnu/h-x86_64-mingw32/bin/../lib/gcc/nios2-elf/5.3.0/../../../../../H-x86_64-mingw32/nios2-elf/lib\libc.a(lib_a-exit.o)
 .debug_abbrev  0x0000000000014813      0x1da c:/intelfpga_lite/18.1/nios2eds/bin/gnu/h-x86_64-mingw32/bin/../lib/gcc/nios2-elf/5.3.0/../../../../../H-x86_64-mingw32/nios2-elf/lib\libc.a(lib_a-malign.o)
 .debug_abbrev  0x00000000000149ed      0x201 c:/intelfpga_lite/18.1/nios2eds/bin/gnu/h-x86_64-mingw32/bin/../lib/gcc/nios2-elf/5.3.0/../../../../../H-x86_64-mingw32/nios2-elf/lib\libc.a(lib_a-malignr.o)
 .debug_abbrev  0x0000000000014bee      0x1f4 c:/intelfpga_lite/18.1/nios2eds/bin/gnu/h-x86_64-mingw32/bin/../lib/gcc/nios2-elf/5.3.0/../../../../../H-x86_64-mingw32/nios2-elf/lib\libc.a(lib_a-malloc.o)
 .debug_abbrev  0x0000000000014de2       0x83 c:/intelfpga_lite/18.1/nios2eds/bin/gnu/h-x86_64-mingw32/bin/../lib/gcc/nios2-elf/5.3.0/../../../../../H-x86_64-mingw32/nios2-elf/lib\libc.a(lib_a-strcpy.o)
 .debug_abbrev  0x0000000000014e65       0x81 c:/intelfpga_lite/18.1/nios2eds/bin/gnu/h-x86_64-mingw32/bin/../lib/gcc/nios2-elf/5.3.0/../../../../../H-x86_64-mingw32/nios2-elf/lib\libc.a(lib_a-strncmp.o)
 .debug_abbrev  0x0000000000014ee6       0x97 c:/intelfpga_lite/18.1/nios2eds/bin/gnu/h-x86_64-mingw32/bin/../lib/gcc/nios2-elf/5.3.0/../../../../../H-x86_64-mingw32/nios2-elf/lib\libc.a(lib_a-strncpy.o)
 .debug_abbrev  0x0000000000014f7d      0x22a c:/intelfpga_lite/18.1/nios2eds/bin/gnu/h-x86_64-mingw32/bin/../lib/gcc/nios2-elf/5.3.0/../../../../../H-x86_64-mingw32/nios2-elf/lib\libc.a(lib_a-strtol.o)
 .debug_abbrev  0x00000000000151a7      0x215 c:/intelfpga_lite/18.1/nios2eds/bin/gnu/h-x86_64-mingw32/bin/../lib/gcc/nios2-elf/5.3.0/../../../../../H-x86_64-mingw32/nios2-elf/lib\libc.a(lib_a-vprintf.o)
 .debug_abbrev  0x00000000000153bc      0x238 c:/intelfpga_lite/18.1/nios2eds/bin/gnu/h-x86_64-mingw32/bin/../lib/gcc/nios2-elf/5.3.0/../../../../../H-x86_64-mingw32/nios2-elf/lib\libc.a(lib_a-vsprintf.o)
 .debug_abbrev  0x00000000000155f4      0x21e c:/intelfpga_lite/18.1/nios2eds/bin/gnu/h-x86_64-mingw32/bin/../lib/gcc/nios2-elf/5.3.0/../../../../../H-x86_64-mingw32/nios2-elf/lib\libc.a(lib_a-__atexit.o)
 .debug_abbrev  0x0000000000015812      0x22e c:/intelfpga_lite/18.1/nios2eds/bin/gnu/h-x86_64-mingw32/bin/../lib/gcc/nios2-elf/5.3.0/../../../../../H-x86_64-mingw32/nios2-elf/lib\libc.a(lib_a-__call_atexit.o)
 .debug_abbrev  0x0000000000015a40      0x1ed c:/intelfpga_lite/18.1/nios2eds/bin/gnu/h-x86_64-mingw32/bin/../lib/gcc/nios2-elf/5.3.0/../../../../../H-x86_64-mingw32/nios2-elf/lib\libc.a(lib_a-vfprintfr_1.o)
 .debug_abbrev  0x0000000000015c2d       0xe1 ../FPGAEncrypt_bsp/\libucosii_bsp.a(alt_exit.o)

.debug_line     0x0000000000000000    0x1dfe8
 *(.debug_line)
 .debug_line    0x0000000000000000       0x57 ../FPGAEncrypt_bsp//obj/HAL/src/crt0.o
 .debug_line    0x0000000000000057      0x2a9 obj/default/alt_error_handler.o
 .debug_line    0x0000000000000300      0x1b7 obj/default/iniche_init.o
 .debug_line    0x00000000000004b7      0x14e obj/default/led.o
 .debug_line    0x0000000000000605      0x337 obj/default/network_utilities.o
 .debug_line    0x000000000000093c      0x2c9 obj/default/simple_socket_server.o
 .debug_line    0x0000000000000c05      0x14f obj/default/tse_my_system.o
 .debug_line    0x0000000000000d54       0xc4 c:/intelfpga_lite/18.1/nios2eds/bin/gnu/h-x86_64-mingw32/bin/../lib/gcc/nios2-elf/5.3.0/../../../../../H-x86_64-mingw32/nios2-elf/lib\libc.a(lib_a-ctype_.o)
 .debug_line    0x0000000000000e18      0x208 c:/intelfpga_lite/18.1/nios2eds/bin/gnu/h-x86_64-mingw32/bin/../lib/gcc/nios2-elf/5.3.0/../../../../../H-x86_64-mingw32/nios2-elf/lib\libc.a(lib_a-fprintf.o)
 .debug_line    0x0000000000001020      0x23a c:/intelfpga_lite/18.1/nios2eds/bin/gnu/h-x86_64-mingw32/bin/../lib/gcc/nios2-elf/5.3.0/../../../../../H-x86_64-mingw32/nios2-elf/lib\libc.a(lib_a-fwrite.o)
 .debug_line    0x000000000000125a      0x24d c:/intelfpga_lite/18.1/nios2eds/bin/gnu/h-x86_64-mingw32/bin/../lib/gcc/nios2-elf/5.3.0/../../../../../H-x86_64-mingw32/nios2-elf/lib\libc.a(lib_a-getc.o)
 .debug_line    0x00000000000014a7      0x15d c:/intelfpga_lite/18.1/nios2eds/bin/gnu/h-x86_64-mingw32/bin/../lib/gcc/nios2-elf/5.3.0/../../../../../H-x86_64-mingw32/nios2-elf/lib\libc.a(lib_a-impure.o)
 .debug_line    0x0000000000001604      0x189 c:/intelfpga_lite/18.1/nios2eds/bin/gnu/h-x86_64-mingw32/bin/../lib/gcc/nios2-elf/5.3.0/../../../../../H-x86_64-mingw32/nios2-elf/lib\libc.a(lib_a-memcpy.o)
 .debug_line    0x000000000000178d      0x18a c:/intelfpga_lite/18.1/nios2eds/bin/gnu/h-x86_64-mingw32/bin/../lib/gcc/nios2-elf/5.3.0/../../../../../H-x86_64-mingw32/nios2-elf/lib\libc.a(lib_a-memmove.o)
 .debug_line    0x0000000000001917      0x18c c:/intelfpga_lite/18.1/nios2eds/bin/gnu/h-x86_64-mingw32/bin/../lib/gcc/nios2-elf/5.3.0/../../../../../H-x86_64-mingw32/nios2-elf/lib\libc.a(lib_a-memset.o)
 .debug_line    0x0000000000001aa3      0x209 c:/intelfpga_lite/18.1/nios2eds/bin/gnu/h-x86_64-mingw32/bin/../lib/gcc/nios2-elf/5.3.0/../../../../../H-x86_64-mingw32/nios2-elf/lib\libc.a(lib_a-perror.o)
 .debug_line    0x0000000000001cac      0x208 c:/intelfpga_lite/18.1/nios2eds/bin/gnu/h-x86_64-mingw32/bin/../lib/gcc/nios2-elf/5.3.0/../../../../../H-x86_64-mingw32/nios2-elf/lib\libc.a(lib_a-printf.o)
 .debug_line    0x0000000000001eb4      0x272 c:/intelfpga_lite/18.1/nios2eds/bin/gnu/h-x86_64-mingw32/bin/../lib/gcc/nios2-elf/5.3.0/../../../../../H-x86_64-mingw32/nios2-elf/lib\libc.a(lib_a-putc.o)
 .debug_line    0x0000000000002126      0x1f2 c:/intelfpga_lite/18.1/nios2eds/bin/gnu/h-x86_64-mingw32/bin/../lib/gcc/nios2-elf/5.3.0/../../../../../H-x86_64-mingw32/nios2-elf/lib\libc.a(lib_a-putchar.o)
 .debug_line    0x0000000000002318      0x245 c:/intelfpga_lite/18.1/nios2eds/bin/gnu/h-x86_64-mingw32/bin/../lib/gcc/nios2-elf/5.3.0/../../../../../H-x86_64-mingw32/nios2-elf/lib\libc.a(lib_a-puts.o)
 .debug_line    0x000000000000255d      0x20b c:/intelfpga_lite/18.1/nios2eds/bin/gnu/h-x86_64-mingw32/bin/../lib/gcc/nios2-elf/5.3.0/../../../../../H-x86_64-mingw32/nios2-elf/lib\libc.a(lib_a-rget.o)
 .debug_line    0x0000000000002768      0x225 c:/intelfpga_lite/18.1/nios2eds/bin/gnu/h-x86_64-mingw32/bin/../lib/gcc/nios2-elf/5.3.0/../../../../../H-x86_64-mingw32/nios2-elf/lib\libc.a(lib_a-sprintf.o)
 .debug_line    0x000000000000298d      0x11e c:/intelfpga_lite/18.1/nios2eds/bin/gnu/h-x86_64-mingw32/bin/../lib/gcc/nios2-elf/5.3.0/../../../../../H-x86_64-mingw32/nios2-elf/lib\libc.a(lib_a-strchr.o)
 .debug_line    0x0000000000002aab      0x34c c:/intelfpga_lite/18.1/nios2eds/bin/gnu/h-x86_64-mingw32/bin/../lib/gcc/nios2-elf/5.3.0/../../../../../H-x86_64-mingw32/nios2-elf/lib\libc.a(lib_a-strerror.o)
 .debug_line    0x0000000000002df7      0x16c c:/intelfpga_lite/18.1/nios2eds/bin/gnu/h-x86_64-mingw32/bin/../lib/gcc/nios2-elf/5.3.0/../../../../../H-x86_64-mingw32/nios2-elf/lib\libc.a(lib_a-strlen.o)
 .debug_line    0x0000000000002f63      0x347 c:/intelfpga_lite/18.1/nios2eds/bin/gnu/h-x86_64-mingw32/bin/../lib/gcc/nios2-elf/5.3.0/../../../../../H-x86_64-mingw32/nios2-elf/lib\libc.a(lib_a-strstr.o)
 .debug_line    0x00000000000032aa      0xc11 c:/intelfpga_lite/18.1/nios2eds/bin/gnu/h-x86_64-mingw32/bin/../lib/gcc/nios2-elf/5.3.0/../../../../../H-x86_64-mingw32/nios2-elf/lib\libc.a(lib_a-svfprintf.o)
 .debug_line    0x0000000000003ebb       0x6a c:/intelfpga_lite/18.1/nios2eds/bin/gnu/h-x86_64-mingw32/bin/../lib/gcc/nios2-elf/5.3.0/../../../../../H-x86_64-mingw32/nios2-elf/lib\libc.a(lib_a-u_strerr.o)
 .debug_line    0x0000000000003f25      0xc98 c:/intelfpga_lite/18.1/nios2eds/bin/gnu/h-x86_64-mingw32/bin/../lib/gcc/nios2-elf/5.3.0/../../../../../H-x86_64-mingw32/nios2-elf/lib\libc.a(lib_a-vfprintf.o)
 .debug_line    0x0000000000004bbd      0x26e c:/intelfpga_lite/18.1/nios2eds/bin/gnu/h-x86_64-mingw32/bin/../lib/gcc/nios2-elf/5.3.0/../../../../../H-x86_64-mingw32/nios2-elf/lib\libc.a(lib_a-wbuf.o)
 .debug_line    0x0000000000004e2b      0x263 c:/intelfpga_lite/18.1/nios2eds/bin/gnu/h-x86_64-mingw32/bin/../lib/gcc/nios2-elf/5.3.0/../../../../../H-x86_64-mingw32/nios2-elf/lib\libc.a(lib_a-wsetup.o)
 .debug_line    0x000000000000508e      0x7ca c:/intelfpga_lite/18.1/nios2eds/bin/gnu/h-x86_64-mingw32/bin/../lib/gcc/nios2-elf/5.3.0/../../../../../H-x86_64-mingw32/nios2-elf/lib\libc.a(lib_a-dtoa.o)
 .debug_line    0x0000000000005858      0x2e7 c:/intelfpga_lite/18.1/nios2eds/bin/gnu/h-x86_64-mingw32/bin/../lib/gcc/nios2-elf/5.3.0/../../../../../H-x86_64-mingw32/nios2-elf/lib\libc.a(lib_a-fflush.o)
 .debug_line    0x0000000000005b3f      0x36f c:/intelfpga_lite/18.1/nios2eds/bin/gnu/h-x86_64-mingw32/bin/../lib/gcc/nios2-elf/5.3.0/../../../../../H-x86_64-mingw32/nios2-elf/lib\libc.a(lib_a-findfp.o)
 .debug_line    0x0000000000005eae      0x21d c:/intelfpga_lite/18.1/nios2eds/bin/gnu/h-x86_64-mingw32/bin/../lib/gcc/nios2-elf/5.3.0/../../../../../H-x86_64-mingw32/nios2-elf/lib\libc.a(lib_a-fputc.o)
 .debug_line    0x00000000000060cb      0x238 c:/intelfpga_lite/18.1/nios2eds/bin/gnu/h-x86_64-mingw32/bin/../lib/gcc/nios2-elf/5.3.0/../../../../../H-x86_64-mingw32/nios2-elf/lib\libc.a(lib_a-fputs.o)
 .debug_line    0x0000000000006303      0x2f4 c:/intelfpga_lite/18.1/nios2eds/bin/gnu/h-x86_64-mingw32/bin/../lib/gcc/nios2-elf/5.3.0/../../../../../H-x86_64-mingw32/nios2-elf/lib\libc.a(lib_a-freer.o)
 .debug_line    0x00000000000065f7      0x342 c:/intelfpga_lite/18.1/nios2eds/bin/gnu/h-x86_64-mingw32/bin/../lib/gcc/nios2-elf/5.3.0/../../../../../H-x86_64-mingw32/nios2-elf/lib\libc.a(lib_a-fvwrite.o)
 .debug_line    0x0000000000006939      0x237 c:/intelfpga_lite/18.1/nios2eds/bin/gnu/h-x86_64-mingw32/bin/../lib/gcc/nios2-elf/5.3.0/../../../../../H-x86_64-mingw32/nios2-elf/lib\libc.a(lib_a-fwalk.o)
 .debug_line    0x0000000000006b70      0x28b c:/intelfpga_lite/18.1/nios2eds/bin/gnu/h-x86_64-mingw32/bin/../lib/gcc/nios2-elf/5.3.0/../../../../../H-x86_64-mingw32/nios2-elf/lib\libc.a(lib_a-locale.o)
 .debug_line    0x0000000000006dfb      0x271 c:/intelfpga_lite/18.1/nios2eds/bin/gnu/h-x86_64-mingw32/bin/../lib/gcc/nios2-elf/5.3.0/../../../../../H-x86_64-mingw32/nios2-elf/lib\libc.a(lib_a-makebuf.o)
 .debug_line    0x000000000000706c      0x3f9 c:/intelfpga_lite/18.1/nios2eds/bin/gnu/h-x86_64-mingw32/bin/../lib/gcc/nios2-elf/5.3.0/../../../../../H-x86_64-mingw32/nios2-elf/lib\libc.a(lib_a-mallocr.o)
 .debug_line    0x0000000000007465      0x18a c:/intelfpga_lite/18.1/nios2eds/bin/gnu/h-x86_64-mingw32/bin/../lib/gcc/nios2-elf/5.3.0/../../../../../H-x86_64-mingw32/nios2-elf/lib\libc.a(lib_a-memchr.o)
 .debug_line    0x00000000000075ef      0x173 c:/intelfpga_lite/18.1/nios2eds/bin/gnu/h-x86_64-mingw32/bin/../lib/gcc/nios2-elf/5.3.0/../../../../../H-x86_64-mingw32/nios2-elf/lib\libc.a(lib_a-memcmp.o)
 .debug_line    0x0000000000007762      0x787 c:/intelfpga_lite/18.1/nios2eds/bin/gnu/h-x86_64-mingw32/bin/../lib/gcc/nios2-elf/5.3.0/../../../../../H-x86_64-mingw32/nios2-elf/lib\libc.a(lib_a-mprec.o)
 .debug_line    0x0000000000007ee9      0x2f2 c:/intelfpga_lite/18.1/nios2eds/bin/gnu/h-x86_64-mingw32/bin/../lib/gcc/nios2-elf/5.3.0/../../../../../H-x86_64-mingw32/nios2-elf/lib\libc.a(lib_a-reallocr.o)
 .debug_line    0x00000000000081db      0x27c c:/intelfpga_lite/18.1/nios2eds/bin/gnu/h-x86_64-mingw32/bin/../lib/gcc/nios2-elf/5.3.0/../../../../../H-x86_64-mingw32/nios2-elf/lib\libc.a(lib_a-refill.o)
 .debug_line    0x0000000000008457      0x16c c:/intelfpga_lite/18.1/nios2eds/bin/gnu/h-x86_64-mingw32/bin/../lib/gcc/nios2-elf/5.3.0/../../../../../H-x86_64-mingw32/nios2-elf/lib\libc.a(lib_a-s_fpclassify.o)
 .debug_line    0x00000000000085c3      0x1e6 c:/intelfpga_lite/18.1/nios2eds/bin/gnu/h-x86_64-mingw32/bin/../lib/gcc/nios2-elf/5.3.0/../../../../../H-x86_64-mingw32/nios2-elf/lib\libc.a(lib_a-sbrkr.o)
 .debug_line    0x00000000000087a9      0x267 c:/intelfpga_lite/18.1/nios2eds/bin/gnu/h-x86_64-mingw32/bin/../lib/gcc/nios2-elf/5.3.0/../../../../../H-x86_64-mingw32/nios2-elf/lib\libc.a(lib_a-stdio.o)
 .debug_line    0x0000000000008a10       0xfe c:/intelfpga_lite/18.1/nios2eds/bin/gnu/h-x86_64-mingw32/bin/../lib/gcc/nios2-elf/5.3.0/../../../../../H-x86_64-mingw32/nios2-elf/lib\libc.a(lib_a-strcmp.o)
 .debug_line    0x0000000000008b0e      0x891 c:/intelfpga_lite/18.1/nios2eds/bin/gnu/h-x86_64-mingw32/bin/../lib/gcc/nios2-elf/5.3.0/../../../../../H-x86_64-mingw32/nios2-elf/lib\libc.a(lib_a-svfiprintf.o)
 .debug_line    0x000000000000939f      0x956 c:/intelfpga_lite/18.1/nios2eds/bin/gnu/h-x86_64-mingw32/bin/../lib/gcc/nios2-elf/5.3.0/../../../../../H-x86_64-mingw32/nios2-elf/lib\libc.a(lib_a-vfiprintf.o)
 .debug_line    0x0000000000009cf5      0x1f3 c:/intelfpga_lite/18.1/nios2eds/bin/gnu/h-x86_64-mingw32/bin/../lib/gcc/nios2-elf/5.3.0/../../../../../H-x86_64-mingw32/nios2-elf/lib\libc.a(lib_a-writer.o)
 .debug_line    0x0000000000009ee8      0x1f3 c:/intelfpga_lite/18.1/nios2eds/bin/gnu/h-x86_64-mingw32/bin/../lib/gcc/nios2-elf/5.3.0/../../../../../H-x86_64-mingw32/nios2-elf/lib\libc.a(closer.o)
 .debug_line    0x000000000000a0db      0x1a8 c:/intelfpga_lite/18.1/nios2eds/bin/gnu/h-x86_64-mingw32/bin/../lib/gcc/nios2-elf/5.3.0/../../../../../H-x86_64-mingw32/nios2-elf/lib\libc.a(lib_a-callocr.o)
 .debug_line    0x000000000000a283      0x236 c:/intelfpga_lite/18.1/nios2eds/bin/gnu/h-x86_64-mingw32/bin/../lib/gcc/nios2-elf/5.3.0/../../../../../H-x86_64-mingw32/nios2-elf/lib\libc.a(lib_a-fclose.o)
 .debug_line    0x000000000000a4b9      0x2a2 c:/intelfpga_lite/18.1/nios2eds/bin/gnu/h-x86_64-mingw32/bin/../lib/gcc/nios2-elf/5.3.0/../../../../../H-x86_64-mingw32/nios2-elf/lib\libc.a(lib_a-fputwc.o)
 .debug_line    0x000000000000a75b      0x1fc c:/intelfpga_lite/18.1/nios2eds/bin/gnu/h-x86_64-mingw32/bin/../lib/gcc/nios2-elf/5.3.0/../../../../../H-x86_64-mingw32/nios2-elf/lib\libc.a(lib_a-fstatr.o)
 .debug_line    0x000000000000a957       0x5c c:/intelfpga_lite/18.1/nios2eds/bin/gnu/h-x86_64-mingw32/bin/../lib/gcc/nios2-elf/5.3.0/../../../../../H-x86_64-mingw32/nios2-elf/lib\libc.a(lib_a-int_errno.o)
 .debug_line    0x000000000000a9b3      0x1f4 c:/intelfpga_lite/18.1/nios2eds/bin/gnu/h-x86_64-mingw32/bin/../lib/gcc/nios2-elf/5.3.0/../../../../../H-x86_64-mingw32/nios2-elf/lib\libc.a(lib_a-isattyr.o)
 .debug_line    0x000000000000aba7      0x1f3 c:/intelfpga_lite/18.1/nios2eds/bin/gnu/h-x86_64-mingw32/bin/../lib/gcc/nios2-elf/5.3.0/../../../../../H-x86_64-mingw32/nios2-elf/lib\libc.a(lib_a-lseekr.o)
 .debug_line    0x000000000000ad9a      0x1f2 c:/intelfpga_lite/18.1/nios2eds/bin/gnu/h-x86_64-mingw32/bin/../lib/gcc/nios2-elf/5.3.0/../../../../../H-x86_64-mingw32/nios2-elf/lib\libc.a(lib_a-readr.o)
 .debug_line    0x000000000000af8c      0x223 c:/intelfpga_lite/18.1/nios2eds/bin/gnu/h-x86_64-mingw32/bin/../lib/gcc/nios2-elf/5.3.0/../../../../../H-x86_64-mingw32/nios2-elf/lib\libc.a(lib_a-wcrtomb.o)
 .debug_line    0x000000000000b1af      0x217 c:/intelfpga_lite/18.1/nios2eds/bin/gnu/h-x86_64-mingw32/bin/../lib/gcc/nios2-elf/5.3.0/../../../../../H-x86_64-mingw32/nios2-elf/lib\libc.a(lib_a-wctomb_r.o)
 .debug_line    0x000000000000b3c6      0x12a c:/intelfpga_lite/18.1/nios2eds/bin/gnu/h-x86_64-mingw32/bin/../lib/gcc/nios2-elf/5.3.0\libgcc.a(_udivdi3.o)
 .debug_line    0x000000000000b4f0      0x13a c:/intelfpga_lite/18.1/nios2eds/bin/gnu/h-x86_64-mingw32/bin/../lib/gcc/nios2-elf/5.3.0\libgcc.a(_umoddi3.o)
 .debug_line    0x000000000000b62a      0x102 c:/intelfpga_lite/18.1/nios2eds/bin/gnu/h-x86_64-mingw32/bin/../lib/gcc/nios2-elf/5.3.0\libgcc.a(lib2-divmod.o)
 .debug_line    0x000000000000b72c      0x37b c:/intelfpga_lite/18.1/nios2eds/bin/gnu/h-x86_64-mingw32/bin/../lib/gcc/nios2-elf/5.3.0\libgcc.a(adddf3.o)
 .debug_line    0x000000000000baa7      0x2ad c:/intelfpga_lite/18.1/nios2eds/bin/gnu/h-x86_64-mingw32/bin/../lib/gcc/nios2-elf/5.3.0\libgcc.a(divdf3.o)
 .debug_line    0x000000000000bd54       0xaa c:/intelfpga_lite/18.1/nios2eds/bin/gnu/h-x86_64-mingw32/bin/../lib/gcc/nios2-elf/5.3.0\libgcc.a(eqdf2.o)
 .debug_line    0x000000000000bdfe       0xcb c:/intelfpga_lite/18.1/nios2eds/bin/gnu/h-x86_64-mingw32/bin/../lib/gcc/nios2-elf/5.3.0\libgcc.a(gedf2.o)
 .debug_line    0x000000000000bec9       0xe3 c:/intelfpga_lite/18.1/nios2eds/bin/gnu/h-x86_64-mingw32/bin/../lib/gcc/nios2-elf/5.3.0\libgcc.a(ledf2.o)
 .debug_line    0x000000000000bfac      0x1e3 c:/intelfpga_lite/18.1/nios2eds/bin/gnu/h-x86_64-mingw32/bin/../lib/gcc/nios2-elf/5.3.0\libgcc.a(muldf3.o)
 .debug_line    0x000000000000c18f      0x3a8 c:/intelfpga_lite/18.1/nios2eds/bin/gnu/h-x86_64-mingw32/bin/../lib/gcc/nios2-elf/5.3.0\libgcc.a(subdf3.o)
 .debug_line    0x000000000000c537       0x98 c:/intelfpga_lite/18.1/nios2eds/bin/gnu/h-x86_64-mingw32/bin/../lib/gcc/nios2-elf/5.3.0\libgcc.a(fixdfsi.o)
 .debug_line    0x000000000000c5cf       0x9f c:/intelfpga_lite/18.1/nios2eds/bin/gnu/h-x86_64-mingw32/bin/../lib/gcc/nios2-elf/5.3.0\libgcc.a(floatsidf.o)
 .debug_line    0x000000000000c66e       0x92 c:/intelfpga_lite/18.1/nios2eds/bin/gnu/h-x86_64-mingw32/bin/../lib/gcc/nios2-elf/5.3.0\libgcc.a(floatunsidf.o)
 .debug_line    0x000000000000c700       0x53 c:/intelfpga_lite/18.1/nios2eds/bin/gnu/h-x86_64-mingw32/bin/../lib/gcc/nios2-elf/5.3.0\libgcc.a(_clz.o)
 .debug_line    0x000000000000c753       0xb7 c:/intelfpga_lite/18.1/nios2eds/bin/gnu/h-x86_64-mingw32/bin/../lib/gcc/nios2-elf/5.3.0\libgcc.a(_clzsi2.o)
 .debug_line    0x000000000000c80a      0x16d ../FPGAEncrypt_bsp/\libucosii_bsp.a(alt_fstat.o)
 .debug_line    0x000000000000c977      0x171 ../FPGAEncrypt_bsp/\libucosii_bsp.a(alt_isatty.o)
 .debug_line    0x000000000000cae8      0x172 ../FPGAEncrypt_bsp/\libucosii_bsp.a(alt_lseek.o)
 .debug_line    0x000000000000cc5a      0x12f ../FPGAEncrypt_bsp/\libucosii_bsp.a(alt_main.o)
 .debug_line    0x000000000000cd89       0xf3 ../FPGAEncrypt_bsp/\libucosii_bsp.a(alt_sbrk.o)
 .debug_line    0x000000000000ce7c      0x1aa ../FPGAEncrypt_bsp/\libucosii_bsp.a(alt_env_lock.o)
 .debug_line    0x000000000000d026      0x20e ../FPGAEncrypt_bsp/\libucosii_bsp.a(alt_malloc_lock.o)
 .debug_line    0x000000000000d234      0x68b ../FPGAEncrypt_bsp/\libucosii_bsp.a(os_core.o)
 .debug_line    0x000000000000d8bf       0xd2 ../FPGAEncrypt_bsp/\libucosii_bsp.a(os_dbg.o)
 .debug_line    0x000000000000d991      0x4ff ../FPGAEncrypt_bsp/\libucosii_bsp.a(os_flag.o)
 .debug_line    0x000000000000de90      0x23e ../FPGAEncrypt_bsp/\libucosii_bsp.a(os_mem.o)
 .debug_line    0x000000000000e0ce      0x3fb ../FPGAEncrypt_bsp/\libucosii_bsp.a(os_q.o)
 .debug_line    0x000000000000e4c9      0x2e0 ../FPGAEncrypt_bsp/\libucosii_bsp.a(os_sem.o)
 .debug_line    0x000000000000e7a9      0x52d ../FPGAEncrypt_bsp/\libucosii_bsp.a(os_task.o)
 .debug_line    0x000000000000ecd6      0x1a7 ../FPGAEncrypt_bsp/\libucosii_bsp.a(os_time.o)
 .debug_line    0x000000000000ee7d      0x313 ../FPGAEncrypt_bsp/\libucosii_bsp.a(alt_sys_init.o)
 .debug_line    0x000000000000f190      0x155 ../FPGAEncrypt_bsp/\libucosii_bsp.a(altera_avalon_jtag_uart_fd.o)
 .debug_line    0x000000000000f2e5      0x225 ../FPGAEncrypt_bsp/\libucosii_bsp.a(altera_avalon_jtag_uart_init.o)
 .debug_line    0x000000000000f50a      0x157 ../FPGAEncrypt_bsp/\libucosii_bsp.a(altera_avalon_jtag_uart_ioctl.o)
 .debug_line    0x000000000000f661      0x1db ../FPGAEncrypt_bsp/\libucosii_bsp.a(altera_avalon_jtag_uart_read.o)
 .debug_line    0x000000000000f83c      0x1dc ../FPGAEncrypt_bsp/\libucosii_bsp.a(altera_avalon_jtag_uart_write.o)
 .debug_line    0x000000000000fa18       0xfd ../FPGAEncrypt_bsp/\libucosii_bsp.a(altera_avalon_timer_sc.o)
 .debug_line    0x000000000000fb15      0x27c ../FPGAEncrypt_bsp/\libucosii_bsp.a(altera_epcq_controller2.o)
 .debug_line    0x000000000000fd91      0x6ac ../FPGAEncrypt_bsp/\libucosii_bsp.a(altera_msgdma.o)
 .debug_line    0x000000000001043d      0x101 ../FPGAEncrypt_bsp/\libucosii_bsp.a(altera_remote_update.o)
 .debug_line    0x000000000001053e      0x5c9 ../FPGAEncrypt_bsp/\libucosii_bsp.a(ins_tse_mac.o)
 .debug_line    0x0000000000010b07       0xf2 ../FPGAEncrypt_bsp/\libucosii_bsp.a(alt_iniche_close.o)
 .debug_line    0x0000000000010bf9      0x171 ../FPGAEncrypt_bsp/\libucosii_bsp.a(alt_iniche_dev.o)
 .debug_line    0x0000000000010d6a      0x15c ../FPGAEncrypt_bsp/\libucosii_bsp.a(alt_iniche_read.o)
 .debug_line    0x0000000000010ec6      0x14b ../FPGAEncrypt_bsp/\libucosii_bsp.a(alt_iniche_write.o)
 .debug_line    0x0000000000011011      0x278 ../FPGAEncrypt_bsp/\libucosii_bsp.a(ipnet.o)
 .debug_line    0x0000000000011289      0x17c ../FPGAEncrypt_bsp/\libucosii_bsp.a(ipstart.o)
 .debug_line    0x0000000000011405      0x2d5 ../FPGAEncrypt_bsp/\libucosii_bsp.a(igmp_cmn.o)
 .debug_line    0x00000000000116da      0x382 ../FPGAEncrypt_bsp/\libucosii_bsp.a(bsdsock.o)
 .debug_line    0x0000000000011a5c       0x9a ../FPGAEncrypt_bsp/\libucosii_bsp.a(cksum.o)
 .debug_line    0x0000000000011af6      0x2b5 ../FPGAEncrypt_bsp/\libucosii_bsp.a(in_utils.o)
 .debug_line    0x0000000000011dab      0x15d ../FPGAEncrypt_bsp/\libucosii_bsp.a(netmain.o)
 .debug_line    0x0000000000011f08      0x1c3 ../FPGAEncrypt_bsp/\libucosii_bsp.a(tk_crnos.o)
 .debug_line    0x00000000000120cb      0x504 ../FPGAEncrypt_bsp/\libucosii_bsp.a(dhcpclnt.o)
 .debug_line    0x00000000000125cf       0x94 ../FPGAEncrypt_bsp/\libucosii_bsp.a(dhcputil.o)
 .debug_line    0x0000000000012663      0x1f9 ../FPGAEncrypt_bsp/\libucosii_bsp.a(pktalloc.o)
 .debug_line    0x000000000001285c       0xe5 ../FPGAEncrypt_bsp/\libucosii_bsp.a(q.o)
 .debug_line    0x0000000000012941      0x141 ../FPGAEncrypt_bsp/\libucosii_bsp.a(udp_open.o)
 .debug_line    0x0000000000012a82       0xaf ../FPGAEncrypt_bsp/\libucosii_bsp.a(asm_cksum.o)
 .debug_line    0x0000000000012b31      0x1ea ../FPGAEncrypt_bsp/\libucosii_bsp.a(brdutils.o)
 .debug_line    0x0000000000012d1b      0x14b ../FPGAEncrypt_bsp/\libucosii_bsp.a(osportco.o)
 .debug_line    0x0000000000012e66      0x21f ../FPGAEncrypt_bsp/\libucosii_bsp.a(targnios.o)
 .debug_line    0x0000000000013085      0x4cf ../FPGAEncrypt_bsp/\libucosii_bsp.a(nptcp.o)
 .debug_line    0x0000000000013554      0x282 ../FPGAEncrypt_bsp/\libucosii_bsp.a(rawsock.o)
 .debug_line    0x00000000000137d6      0x517 ../FPGAEncrypt_bsp/\libucosii_bsp.a(sockcall.o)
 .debug_line    0x0000000000013ced      0x627 ../FPGAEncrypt_bsp/\libucosii_bsp.a(socket.o)
 .debug_line    0x0000000000014314      0x3b0 ../FPGAEncrypt_bsp/\libucosii_bsp.a(socket2.o)
 .debug_line    0x00000000000146c4      0x2d0 ../FPGAEncrypt_bsp/\libucosii_bsp.a(soselect.o)
 .debug_line    0x0000000000014994      0x78e ../FPGAEncrypt_bsp/\libucosii_bsp.a(tcp_in.o)
 .debug_line    0x0000000000015122      0x429 ../FPGAEncrypt_bsp/\libucosii_bsp.a(tcp_out.o)
 .debug_line    0x000000000001554b      0x2c2 ../FPGAEncrypt_bsp/\libucosii_bsp.a(tcp_subr.o)
 .debug_line    0x000000000001580d      0x28d ../FPGAEncrypt_bsp/\libucosii_bsp.a(tcp_timr.o)
 .debug_line    0x0000000000015a9a      0x2da ../FPGAEncrypt_bsp/\libucosii_bsp.a(tcp_usr.o)
 .debug_line    0x0000000000015d74       0x86 ../FPGAEncrypt_bsp/\libucosii_bsp.a(tcpport.o)
 .debug_line    0x0000000000015dfa      0x2cb ../FPGAEncrypt_bsp/\libucosii_bsp.a(udpsock.o)
 .debug_line    0x00000000000160c5       0xf9 ../FPGAEncrypt_bsp/\libucosii_bsp.a(alt_alarm_start.o)
 .debug_line    0x00000000000161be       0xa0 ../FPGAEncrypt_bsp/\libucosii_bsp.a(alt_busy_sleep.o)
 .debug_line    0x000000000001625e      0x119 ../FPGAEncrypt_bsp/\libucosii_bsp.a(alt_close.o)
 .debug_line    0x0000000000016377       0x7c ../FPGAEncrypt_bsp/\libucosii_bsp.a(alt_dcache_flush.o)
 .debug_line    0x00000000000163f3      0x13c ../FPGAEncrypt_bsp/\libucosii_bsp.a(alt_dev.o)
 .debug_line    0x000000000001652f       0xcf ../FPGAEncrypt_bsp/\libucosii_bsp.a(alt_dev_llist_insert.o)
 .debug_line    0x00000000000165fe       0x59 ../FPGAEncrypt_bsp/\libucosii_bsp.a(alt_do_ctors.o)
 .debug_line    0x0000000000016657       0x59 ../FPGAEncrypt_bsp/\libucosii_bsp.a(alt_do_dtors.o)
 .debug_line    0x00000000000166b0       0x51 ../FPGAEncrypt_bsp/\libucosii_bsp.a(alt_errno.o)
 .debug_line    0x0000000000016701       0xc4 ../FPGAEncrypt_bsp/\libucosii_bsp.a(alt_find_dev.o)
 .debug_line    0x00000000000167c5       0xed ../FPGAEncrypt_bsp/\libucosii_bsp.a(alt_flash_dev.o)
 .debug_line    0x00000000000168b2       0xeb ../FPGAEncrypt_bsp/\libucosii_bsp.a(alt_iic.o)
 .debug_line    0x000000000001699d       0xdb ../FPGAEncrypt_bsp/\libucosii_bsp.a(alt_iic_isr_register.o)
 .debug_line    0x0000000000016a78      0x142 ../FPGAEncrypt_bsp/\libucosii_bsp.a(alt_io_redirect.o)
 .debug_line    0x0000000000016bba       0x6b ../FPGAEncrypt_bsp/\libucosii_bsp.a(alt_irq_entry.o)
 .debug_line    0x0000000000016c25       0xc8 ../FPGAEncrypt_bsp/\libucosii_bsp.a(alt_irq_handler.o)
 .debug_line    0x0000000000016ced       0x50 ../FPGAEncrypt_bsp/\libucosii_bsp.a(alt_irq_vars.o)
 .debug_line    0x0000000000016d3d      0x137 ../FPGAEncrypt_bsp/\libucosii_bsp.a(alt_open.o)
 .debug_line    0x0000000000016e74       0xef ../FPGAEncrypt_bsp/\libucosii_bsp.a(alt_printf.o)
 .debug_line    0x0000000000016f63      0x120 ../FPGAEncrypt_bsp/\libucosii_bsp.a(alt_putchar.o)
 .debug_line    0x0000000000017083      0x1df ../FPGAEncrypt_bsp/\libucosii_bsp.a(alt_read.o)
 .debug_line    0x0000000000017262       0xbd ../FPGAEncrypt_bsp/\libucosii_bsp.a(alt_release_fd.o)
 .debug_line    0x000000000001731f       0x68 ../FPGAEncrypt_bsp/\libucosii_bsp.a(alt_remap_cached.o)
 .debug_line    0x0000000000017387       0xff ../FPGAEncrypt_bsp/\libucosii_bsp.a(alt_tick.o)
 .debug_line    0x0000000000017486       0x6a ../FPGAEncrypt_bsp/\libucosii_bsp.a(alt_uncached_free.o)
 .debug_line    0x00000000000174f0       0xd6 ../FPGAEncrypt_bsp/\libucosii_bsp.a(alt_uncached_malloc.o)
 .debug_line    0x00000000000175c6      0x1de ../FPGAEncrypt_bsp/\libucosii_bsp.a(alt_write.o)
 .debug_line    0x00000000000177a4       0x51 ../FPGAEncrypt_bsp/\libucosii_bsp.a(altera_nios2_gen2_irq.o)
 .debug_line    0x00000000000177f5       0x86 ../FPGAEncrypt_bsp/\libucosii_bsp.a(os_cpu_a.o)
 .debug_line    0x000000000001787b      0x1b3 ../FPGAEncrypt_bsp/\libucosii_bsp.a(os_cpu_c.o)
 .debug_line    0x0000000000017a2e      0xf18 ../FPGAEncrypt_bsp/\libucosii_bsp.a(altera_avalon_tse.o)
 .debug_line    0x0000000000018946      0x180 ../FPGAEncrypt_bsp/\libucosii_bsp.a(allports.o)
 .debug_line    0x0000000000018ac6      0x159 ../FPGAEncrypt_bsp/\libucosii_bsp.a(timeouts.o)
 .debug_line    0x0000000000018c1f       0x98 ../FPGAEncrypt_bsp/\libucosii_bsp.a(tk_misc.o)
 .debug_line    0x0000000000018cb7      0x15d ../FPGAEncrypt_bsp/\libucosii_bsp.a(alt_iniche_fcntl.o)
 .debug_line    0x0000000000018e14      0x365 ../FPGAEncrypt_bsp/\libucosii_bsp.a(et_arp.o)
 .debug_line    0x0000000000019179      0x1c4 ../FPGAEncrypt_bsp/\libucosii_bsp.a(iface.o)
 .debug_line    0x000000000001933d      0x4f2 ../FPGAEncrypt_bsp/\libucosii_bsp.a(ip.o)
 .debug_line    0x000000000001982f      0x450 ../FPGAEncrypt_bsp/\libucosii_bsp.a(ip_reasm.o)
 .debug_line    0x0000000000019c7f      0x285 ../FPGAEncrypt_bsp/\libucosii_bsp.a(ipdemux.o)
 .debug_line    0x0000000000019f04      0x124 ../FPGAEncrypt_bsp/\libucosii_bsp.a(ipmc.o)
 .debug_line    0x000000000001a028       0xc5 ../FPGAEncrypt_bsp/\libucosii_bsp.a(ipport.o)
 .debug_line    0x000000000001a0ed      0x172 ../FPGAEncrypt_bsp/\libucosii_bsp.a(ipraw.o)
 .debug_line    0x000000000001a25f      0x1b5 ../FPGAEncrypt_bsp/\libucosii_bsp.a(iproute.o)
 .debug_line    0x000000000001a414      0x311 ../FPGAEncrypt_bsp/\libucosii_bsp.a(udp.o)
 .debug_line    0x000000000001a725      0x10a ../FPGAEncrypt_bsp/\libucosii_bsp.a(igmp.o)
 .debug_line    0x000000000001a82f      0x1b0 ../FPGAEncrypt_bsp/\libucosii_bsp.a(igmp2.o)
 .debug_line    0x000000000001a9df      0x2b4 ../FPGAEncrypt_bsp/\libucosii_bsp.a(ipopt.o)
 .debug_line    0x000000000001ac93      0x198 ../FPGAEncrypt_bsp/\libucosii_bsp.a(u_mctest.o)
 .debug_line    0x000000000001ae2b      0x157 ../FPGAEncrypt_bsp/\libucosii_bsp.a(dhcsetup.o)
 .debug_line    0x000000000001af82      0x111 ../FPGAEncrypt_bsp/\libucosii_bsp.a(memdev.o)
 .debug_line    0x000000000001b093      0x269 ../FPGAEncrypt_bsp/\libucosii_bsp.a(parseip.o)
 .debug_line    0x000000000001b2fc       0xe0 ../FPGAEncrypt_bsp/\libucosii_bsp.a(tcpcksum.o)
 .debug_line    0x000000000001b3dc      0x260 ../FPGAEncrypt_bsp/\libucosii_bsp.a(in_pcb.o)
 .debug_line    0x000000000001b63c      0x3fc ../FPGAEncrypt_bsp/\libucosii_bsp.a(vfsfiles.o)
 .debug_line    0x000000000001ba38       0x85 ../FPGAEncrypt_bsp/\libucosii_bsp.a(vfsport.o)
 .debug_line    0x000000000001babd       0xb3 ../FPGAEncrypt_bsp/\libucosii_bsp.a(alt_exception_entry.o)
 .debug_line    0x000000000001bb70      0x1e0 ../FPGAEncrypt_bsp/\libucosii_bsp.a(alt_fcntl.o)
 .debug_line    0x000000000001bd50       0xe0 ../FPGAEncrypt_bsp/\libucosii_bsp.a(alt_find_file.o)
 .debug_line    0x000000000001be30      0x126 ../FPGAEncrypt_bsp/\libucosii_bsp.a(alt_get_fd.o)
 .debug_line    0x000000000001bf56       0xba ../FPGAEncrypt_bsp/\libucosii_bsp.a(alt_instruction_exception_entry.o)
 .debug_line    0x000000000001c010      0x141 ../FPGAEncrypt_bsp/\libucosii_bsp.a(alt_usleep.o)
 .debug_line    0x000000000001c151      0x276 ../FPGAEncrypt_bsp/\libucosii_bsp.a(icmp.o)
 .debug_line    0x000000000001c3c7       0xe4 c:/intelfpga_lite/18.1/nios2eds/bin/gnu/h-x86_64-mingw32/bin/../lib/gcc/nios2-elf/5.3.0/../../../../../H-x86_64-mingw32/nios2-elf/lib\libc.a(lib_a-atexit.o)
 .debug_line    0x000000000001c4ab      0x1ee c:/intelfpga_lite/18.1/nios2eds/bin/gnu/h-x86_64-mingw32/bin/../lib/gcc/nios2-elf/5.3.0/../../../../../H-x86_64-mingw32/nios2-elf/lib\libc.a(lib_a-atoi.o)
 .debug_line    0x000000000001c699      0x1f9 c:/intelfpga_lite/18.1/nios2eds/bin/gnu/h-x86_64-mingw32/bin/../lib/gcc/nios2-elf/5.3.0/../../../../../H-x86_64-mingw32/nios2-elf/lib\libc.a(lib_a-exit.o)
 .debug_line    0x000000000001c892      0x1dd c:/intelfpga_lite/18.1/nios2eds/bin/gnu/h-x86_64-mingw32/bin/../lib/gcc/nios2-elf/5.3.0/../../../../../H-x86_64-mingw32/nios2-elf/lib\libc.a(lib_a-malign.o)
 .debug_line    0x000000000001ca6f      0x1c7 c:/intelfpga_lite/18.1/nios2eds/bin/gnu/h-x86_64-mingw32/bin/../lib/gcc/nios2-elf/5.3.0/../../../../../H-x86_64-mingw32/nios2-elf/lib\libc.a(lib_a-malignr.o)
 .debug_line    0x000000000001cc36      0x1f0 c:/intelfpga_lite/18.1/nios2eds/bin/gnu/h-x86_64-mingw32/bin/../lib/gcc/nios2-elf/5.3.0/../../../../../H-x86_64-mingw32/nios2-elf/lib\libc.a(lib_a-malloc.o)
 .debug_line    0x000000000001ce26       0xf1 c:/intelfpga_lite/18.1/nios2eds/bin/gnu/h-x86_64-mingw32/bin/../lib/gcc/nios2-elf/5.3.0/../../../../../H-x86_64-mingw32/nios2-elf/lib\libc.a(lib_a-strcpy.o)
 .debug_line    0x000000000001cf17      0x19a c:/intelfpga_lite/18.1/nios2eds/bin/gnu/h-x86_64-mingw32/bin/../lib/gcc/nios2-elf/5.3.0/../../../../../H-x86_64-mingw32/nios2-elf/lib\libc.a(lib_a-strncmp.o)
 .debug_line    0x000000000001d0b1      0x189 c:/intelfpga_lite/18.1/nios2eds/bin/gnu/h-x86_64-mingw32/bin/../lib/gcc/nios2-elf/5.3.0/../../../../../H-x86_64-mingw32/nios2-elf/lib\libc.a(lib_a-strncpy.o)
 .debug_line    0x000000000001d23a      0x284 c:/intelfpga_lite/18.1/nios2eds/bin/gnu/h-x86_64-mingw32/bin/../lib/gcc/nios2-elf/5.3.0/../../../../../H-x86_64-mingw32/nios2-elf/lib\libc.a(lib_a-strtol.o)
 .debug_line    0x000000000001d4be      0x1fd c:/intelfpga_lite/18.1/nios2eds/bin/gnu/h-x86_64-mingw32/bin/../lib/gcc/nios2-elf/5.3.0/../../../../../H-x86_64-mingw32/nios2-elf/lib\libc.a(lib_a-vprintf.o)
 .debug_line    0x000000000001d6bb      0x217 c:/intelfpga_lite/18.1/nios2eds/bin/gnu/h-x86_64-mingw32/bin/../lib/gcc/nios2-elf/5.3.0/../../../../../H-x86_64-mingw32/nios2-elf/lib\libc.a(lib_a-vsprintf.o)
 .debug_line    0x000000000001d8d2      0x21c c:/intelfpga_lite/18.1/nios2eds/bin/gnu/h-x86_64-mingw32/bin/../lib/gcc/nios2-elf/5.3.0/../../../../../H-x86_64-mingw32/nios2-elf/lib\libc.a(lib_a-__atexit.o)
 .debug_line    0x000000000001daee      0x237 c:/intelfpga_lite/18.1/nios2eds/bin/gnu/h-x86_64-mingw32/bin/../lib/gcc/nios2-elf/5.3.0/../../../../../H-x86_64-mingw32/nios2-elf/lib\libc.a(lib_a-__call_atexit.o)
 .debug_line    0x000000000001dd25      0x1f5 c:/intelfpga_lite/18.1/nios2eds/bin/gnu/h-x86_64-mingw32/bin/../lib/gcc/nios2-elf/5.3.0/../../../../../H-x86_64-mingw32/nios2-elf/lib\libc.a(lib_a-vfprintfr_1.o)
 .debug_line    0x000000000001df1a       0xce ../FPGAEncrypt_bsp/\libucosii_bsp.a(alt_exit.o)

.debug_frame    0x0000000000000000     0x8e6c
 *(.debug_frame)
 .debug_frame   0x0000000000000000       0x88 obj/default/alt_error_handler.o
 .debug_frame   0x0000000000000088       0xa8 obj/default/iniche_init.o
 .debug_frame   0x0000000000000130       0x70 obj/default/led.o
 .debug_frame   0x00000000000001a0      0x11c obj/default/network_utilities.o
 .debug_frame   0x00000000000002bc      0x150 obj/default/simple_socket_server.o
 .debug_frame   0x000000000000040c       0x48 c:/intelfpga_lite/18.1/nios2eds/bin/gnu/h-x86_64-mingw32/bin/../lib/gcc/nios2-elf/5.3.0/../../../../../H-x86_64-mingw32/nios2-elf/lib\libc.a(lib_a-fprintf.o)
 .debug_frame   0x0000000000000454       0x5c c:/intelfpga_lite/18.1/nios2eds/bin/gnu/h-x86_64-mingw32/bin/../lib/gcc/nios2-elf/5.3.0/../../../../../H-x86_64-mingw32/nios2-elf/lib\libc.a(lib_a-fwrite.o)
 .debug_frame   0x00000000000004b0       0x6c c:/intelfpga_lite/18.1/nios2eds/bin/gnu/h-x86_64-mingw32/bin/../lib/gcc/nios2-elf/5.3.0/../../../../../H-x86_64-mingw32/nios2-elf/lib\libc.a(lib_a-getc.o)
 .debug_frame   0x000000000000051c       0x38 c:/intelfpga_lite/18.1/nios2eds/bin/gnu/h-x86_64-mingw32/bin/../lib/gcc/nios2-elf/5.3.0/../../../../../H-x86_64-mingw32/nios2-elf/lib\libc.a(lib_a-memcpy.o)
 .debug_frame   0x0000000000000554       0x20 c:/intelfpga_lite/18.1/nios2eds/bin/gnu/h-x86_64-mingw32/bin/../lib/gcc/nios2-elf/5.3.0/../../../../../H-x86_64-mingw32/nios2-elf/lib\libc.a(lib_a-memmove.o)
 .debug_frame   0x0000000000000574       0x20 c:/intelfpga_lite/18.1/nios2eds/bin/gnu/h-x86_64-mingw32/bin/../lib/gcc/nios2-elf/5.3.0/../../../../../H-x86_64-mingw32/nios2-elf/lib\libc.a(lib_a-memset.o)
 .debug_frame   0x0000000000000594       0x44 c:/intelfpga_lite/18.1/nios2eds/bin/gnu/h-x86_64-mingw32/bin/../lib/gcc/nios2-elf/5.3.0/../../../../../H-x86_64-mingw32/nios2-elf/lib\libc.a(lib_a-perror.o)
 .debug_frame   0x00000000000005d8       0x48 c:/intelfpga_lite/18.1/nios2eds/bin/gnu/h-x86_64-mingw32/bin/../lib/gcc/nios2-elf/5.3.0/../../../../../H-x86_64-mingw32/nios2-elf/lib\libc.a(lib_a-printf.o)
 .debug_frame   0x0000000000000620       0x70 c:/intelfpga_lite/18.1/nios2eds/bin/gnu/h-x86_64-mingw32/bin/../lib/gcc/nios2-elf/5.3.0/../../../../../H-x86_64-mingw32/nios2-elf/lib\libc.a(lib_a-putc.o)
 .debug_frame   0x0000000000000690       0x30 c:/intelfpga_lite/18.1/nios2eds/bin/gnu/h-x86_64-mingw32/bin/../lib/gcc/nios2-elf/5.3.0/../../../../../H-x86_64-mingw32/nios2-elf/lib\libc.a(lib_a-putchar.o)
 .debug_frame   0x00000000000006c0       0x48 c:/intelfpga_lite/18.1/nios2eds/bin/gnu/h-x86_64-mingw32/bin/../lib/gcc/nios2-elf/5.3.0/../../../../../H-x86_64-mingw32/nios2-elf/lib\libc.a(lib_a-puts.o)
 .debug_frame   0x0000000000000708       0x48 c:/intelfpga_lite/18.1/nios2eds/bin/gnu/h-x86_64-mingw32/bin/../lib/gcc/nios2-elf/5.3.0/../../../../../H-x86_64-mingw32/nios2-elf/lib\libc.a(lib_a-rget.o)
 .debug_frame   0x0000000000000750       0x48 c:/intelfpga_lite/18.1/nios2eds/bin/gnu/h-x86_64-mingw32/bin/../lib/gcc/nios2-elf/5.3.0/../../../../../H-x86_64-mingw32/nios2-elf/lib\libc.a(lib_a-sprintf.o)
 .debug_frame   0x0000000000000798       0x20 c:/intelfpga_lite/18.1/nios2eds/bin/gnu/h-x86_64-mingw32/bin/../lib/gcc/nios2-elf/5.3.0/../../../../../H-x86_64-mingw32/nios2-elf/lib\libc.a(lib_a-strchr.o)
 .debug_frame   0x00000000000007b8       0x40 c:/intelfpga_lite/18.1/nios2eds/bin/gnu/h-x86_64-mingw32/bin/../lib/gcc/nios2-elf/5.3.0/../../../../../H-x86_64-mingw32/nios2-elf/lib\libc.a(lib_a-strerror.o)
 .debug_frame   0x00000000000007f8       0x20 c:/intelfpga_lite/18.1/nios2eds/bin/gnu/h-x86_64-mingw32/bin/../lib/gcc/nios2-elf/5.3.0/../../../../../H-x86_64-mingw32/nios2-elf/lib\libc.a(lib_a-strlen.o)
 .debug_frame   0x0000000000000818       0xd4 c:/intelfpga_lite/18.1/nios2eds/bin/gnu/h-x86_64-mingw32/bin/../lib/gcc/nios2-elf/5.3.0/../../../../../H-x86_64-mingw32/nios2-elf/lib\libc.a(lib_a-strstr.o)
 .debug_frame   0x00000000000008ec       0x58 c:/intelfpga_lite/18.1/nios2eds/bin/gnu/h-x86_64-mingw32/bin/../lib/gcc/nios2-elf/5.3.0/../../../../../H-x86_64-mingw32/nios2-elf/lib\libc.a(lib_a-svfprintf.o)
 .debug_frame   0x0000000000000944       0x20 c:/intelfpga_lite/18.1/nios2eds/bin/gnu/h-x86_64-mingw32/bin/../lib/gcc/nios2-elf/5.3.0/../../../../../H-x86_64-mingw32/nios2-elf/lib\libc.a(lib_a-u_strerr.o)
 .debug_frame   0x0000000000000964       0x98 c:/intelfpga_lite/18.1/nios2eds/bin/gnu/h-x86_64-mingw32/bin/../lib/gcc/nios2-elf/5.3.0/../../../../../H-x86_64-mingw32/nios2-elf/lib\libc.a(lib_a-vfprintf.o)
 .debug_frame   0x00000000000009fc       0x50 c:/intelfpga_lite/18.1/nios2eds/bin/gnu/h-x86_64-mingw32/bin/../lib/gcc/nios2-elf/5.3.0/../../../../../H-x86_64-mingw32/nios2-elf/lib\libc.a(lib_a-wbuf.o)
 .debug_frame   0x0000000000000a4c       0x38 c:/intelfpga_lite/18.1/nios2eds/bin/gnu/h-x86_64-mingw32/bin/../lib/gcc/nios2-elf/5.3.0/../../../../../H-x86_64-mingw32/nios2-elf/lib\libc.a(lib_a-wsetup.o)
 .debug_frame   0x0000000000000a84       0x98 c:/intelfpga_lite/18.1/nios2eds/bin/gnu/h-x86_64-mingw32/bin/../lib/gcc/nios2-elf/5.3.0/../../../../../H-x86_64-mingw32/nios2-elf/lib\libc.a(lib_a-dtoa.o)
 .debug_frame   0x0000000000000b1c       0x7c c:/intelfpga_lite/18.1/nios2eds/bin/gnu/h-x86_64-mingw32/bin/../lib/gcc/nios2-elf/5.3.0/../../../../../H-x86_64-mingw32/nios2-elf/lib\libc.a(lib_a-fflush.o)
 .debug_frame   0x0000000000000b98      0x160 c:/intelfpga_lite/18.1/nios2eds/bin/gnu/h-x86_64-mingw32/bin/../lib/gcc/nios2-elf/5.3.0/../../../../../H-x86_64-mingw32/nios2-elf/lib\libc.a(lib_a-findfp.o)
 .debug_frame   0x0000000000000cf8       0x54 c:/intelfpga_lite/18.1/nios2eds/bin/gnu/h-x86_64-mingw32/bin/../lib/gcc/nios2-elf/5.3.0/../../../../../H-x86_64-mingw32/nios2-elf/lib\libc.a(lib_a-fputc.o)
 .debug_frame   0x0000000000000d4c       0x48 c:/intelfpga_lite/18.1/nios2eds/bin/gnu/h-x86_64-mingw32/bin/../lib/gcc/nios2-elf/5.3.0/../../../../../H-x86_64-mingw32/nios2-elf/lib\libc.a(lib_a-fputs.o)
 .debug_frame   0x0000000000000d94       0x70 c:/intelfpga_lite/18.1/nios2eds/bin/gnu/h-x86_64-mingw32/bin/../lib/gcc/nios2-elf/5.3.0/../../../../../H-x86_64-mingw32/nios2-elf/lib\libc.a(lib_a-freer.o)
 .debug_frame   0x0000000000000e04       0x78 c:/intelfpga_lite/18.1/nios2eds/bin/gnu/h-x86_64-mingw32/bin/../lib/gcc/nios2-elf/5.3.0/../../../../../H-x86_64-mingw32/nios2-elf/lib\libc.a(lib_a-fvwrite.o)
 .debug_frame   0x0000000000000e7c       0x90 c:/intelfpga_lite/18.1/nios2eds/bin/gnu/h-x86_64-mingw32/bin/../lib/gcc/nios2-elf/5.3.0/../../../../../H-x86_64-mingw32/nios2-elf/lib\libc.a(lib_a-fwalk.o)
 .debug_frame   0x0000000000000f0c       0xa8 c:/intelfpga_lite/18.1/nios2eds/bin/gnu/h-x86_64-mingw32/bin/../lib/gcc/nios2-elf/5.3.0/../../../../../H-x86_64-mingw32/nios2-elf/lib\libc.a(lib_a-locale.o)
 .debug_frame   0x0000000000000fb4       0x4c c:/intelfpga_lite/18.1/nios2eds/bin/gnu/h-x86_64-mingw32/bin/../lib/gcc/nios2-elf/5.3.0/../../../../../H-x86_64-mingw32/nios2-elf/lib\libc.a(lib_a-makebuf.o)
 .debug_frame   0x0000000000001000       0x54 c:/intelfpga_lite/18.1/nios2eds/bin/gnu/h-x86_64-mingw32/bin/../lib/gcc/nios2-elf/5.3.0/../../../../../H-x86_64-mingw32/nios2-elf/lib\libc.a(lib_a-mallocr.o)
 .debug_frame   0x0000000000001054       0x20 c:/intelfpga_lite/18.1/nios2eds/bin/gnu/h-x86_64-mingw32/bin/../lib/gcc/nios2-elf/5.3.0/../../../../../H-x86_64-mingw32/nios2-elf/lib\libc.a(lib_a-memchr.o)
 .debug_frame   0x0000000000001074       0x20 c:/intelfpga_lite/18.1/nios2eds/bin/gnu/h-x86_64-mingw32/bin/../lib/gcc/nios2-elf/5.3.0/../../../../../H-x86_64-mingw32/nios2-elf/lib\libc.a(lib_a-memcmp.o)
 .debug_frame   0x0000000000001094      0x2e0 c:/intelfpga_lite/18.1/nios2eds/bin/gnu/h-x86_64-mingw32/bin/../lib/gcc/nios2-elf/5.3.0/../../../../../H-x86_64-mingw32/nios2-elf/lib\libc.a(lib_a-mprec.o)
 .debug_frame   0x0000000000001374       0x70 c:/intelfpga_lite/18.1/nios2eds/bin/gnu/h-x86_64-mingw32/bin/../lib/gcc/nios2-elf/5.3.0/../../../../../H-x86_64-mingw32/nios2-elf/lib\libc.a(lib_a-reallocr.o)
 .debug_frame   0x00000000000013e4       0x4c c:/intelfpga_lite/18.1/nios2eds/bin/gnu/h-x86_64-mingw32/bin/../lib/gcc/nios2-elf/5.3.0/../../../../../H-x86_64-mingw32/nios2-elf/lib\libc.a(lib_a-refill.o)
 .debug_frame   0x0000000000001430       0x20 c:/intelfpga_lite/18.1/nios2eds/bin/gnu/h-x86_64-mingw32/bin/../lib/gcc/nios2-elf/5.3.0/../../../../../H-x86_64-mingw32/nios2-elf/lib\libc.a(lib_a-s_fpclassify.o)
 .debug_frame   0x0000000000001450       0x38 c:/intelfpga_lite/18.1/nios2eds/bin/gnu/h-x86_64-mingw32/bin/../lib/gcc/nios2-elf/5.3.0/../../../../../H-x86_64-mingw32/nios2-elf/lib\libc.a(lib_a-sbrkr.o)
 .debug_frame   0x0000000000001488       0xb4 c:/intelfpga_lite/18.1/nios2eds/bin/gnu/h-x86_64-mingw32/bin/../lib/gcc/nios2-elf/5.3.0/../../../../../H-x86_64-mingw32/nios2-elf/lib\libc.a(lib_a-stdio.o)
 .debug_frame   0x000000000000153c       0x20 c:/intelfpga_lite/18.1/nios2eds/bin/gnu/h-x86_64-mingw32/bin/../lib/gcc/nios2-elf/5.3.0/../../../../../H-x86_64-mingw32/nios2-elf/lib\libc.a(lib_a-strcmp.o)
 .debug_frame   0x000000000000155c       0x9c c:/intelfpga_lite/18.1/nios2eds/bin/gnu/h-x86_64-mingw32/bin/../lib/gcc/nios2-elf/5.3.0/../../../../../H-x86_64-mingw32/nios2-elf/lib\libc.a(lib_a-svfiprintf.o)
 .debug_frame   0x00000000000015f8       0xec c:/intelfpga_lite/18.1/nios2eds/bin/gnu/h-x86_64-mingw32/bin/../lib/gcc/nios2-elf/5.3.0/../../../../../H-x86_64-mingw32/nios2-elf/lib\libc.a(lib_a-vfiprintf.o)
 .debug_frame   0x00000000000016e4       0x38 c:/intelfpga_lite/18.1/nios2eds/bin/gnu/h-x86_64-mingw32/bin/../lib/gcc/nios2-elf/5.3.0/../../../../../H-x86_64-mingw32/nios2-elf/lib\libc.a(lib_a-writer.o)
 .debug_frame   0x000000000000171c       0x38 c:/intelfpga_lite/18.1/nios2eds/bin/gnu/h-x86_64-mingw32/bin/../lib/gcc/nios2-elf/5.3.0/../../../../../H-x86_64-mingw32/nios2-elf/lib\libc.a(closer.o)
 .debug_frame   0x0000000000001754       0x40 c:/intelfpga_lite/18.1/nios2eds/bin/gnu/h-x86_64-mingw32/bin/../lib/gcc/nios2-elf/5.3.0/../../../../../H-x86_64-mingw32/nios2-elf/lib\libc.a(lib_a-callocr.o)
 .debug_frame   0x0000000000001794       0x54 c:/intelfpga_lite/18.1/nios2eds/bin/gnu/h-x86_64-mingw32/bin/../lib/gcc/nios2-elf/5.3.0/../../../../../H-x86_64-mingw32/nios2-elf/lib\libc.a(lib_a-fclose.o)
 .debug_frame   0x00000000000017e8       0x80 c:/intelfpga_lite/18.1/nios2eds/bin/gnu/h-x86_64-mingw32/bin/../lib/gcc/nios2-elf/5.3.0/../../../../../H-x86_64-mingw32/nios2-elf/lib\libc.a(lib_a-fputwc.o)
 .debug_frame   0x0000000000001868       0x38 c:/intelfpga_lite/18.1/nios2eds/bin/gnu/h-x86_64-mingw32/bin/../lib/gcc/nios2-elf/5.3.0/../../../../../H-x86_64-mingw32/nios2-elf/lib\libc.a(lib_a-fstatr.o)
 .debug_frame   0x00000000000018a0       0x38 c:/intelfpga_lite/18.1/nios2eds/bin/gnu/h-x86_64-mingw32/bin/../lib/gcc/nios2-elf/5.3.0/../../../../../H-x86_64-mingw32/nios2-elf/lib\libc.a(lib_a-isattyr.o)
 .debug_frame   0x00000000000018d8       0x38 c:/intelfpga_lite/18.1/nios2eds/bin/gnu/h-x86_64-mingw32/bin/../lib/gcc/nios2-elf/5.3.0/../../../../../H-x86_64-mingw32/nios2-elf/lib\libc.a(lib_a-lseekr.o)
 .debug_frame   0x0000000000001910       0x38 c:/intelfpga_lite/18.1/nios2eds/bin/gnu/h-x86_64-mingw32/bin/../lib/gcc/nios2-elf/5.3.0/../../../../../H-x86_64-mingw32/nios2-elf/lib\libc.a(lib_a-readr.o)
 .debug_frame   0x0000000000001948       0x70 c:/intelfpga_lite/18.1/nios2eds/bin/gnu/h-x86_64-mingw32/bin/../lib/gcc/nios2-elf/5.3.0/../../../../../H-x86_64-mingw32/nios2-elf/lib\libc.a(lib_a-wcrtomb.o)
 .debug_frame   0x00000000000019b8       0x44 c:/intelfpga_lite/18.1/nios2eds/bin/gnu/h-x86_64-mingw32/bin/../lib/gcc/nios2-elf/5.3.0/../../../../../H-x86_64-mingw32/nios2-elf/lib\libc.a(lib_a-wctomb_r.o)
 .debug_frame   0x00000000000019fc       0x54 c:/intelfpga_lite/18.1/nios2eds/bin/gnu/h-x86_64-mingw32/bin/../lib/gcc/nios2-elf/5.3.0\libgcc.a(_udivdi3.o)
 .debug_frame   0x0000000000001a50       0x54 c:/intelfpga_lite/18.1/nios2eds/bin/gnu/h-x86_64-mingw32/bin/../lib/gcc/nios2-elf/5.3.0\libgcc.a(_umoddi3.o)
 .debug_frame   0x0000000000001aa4       0x50 c:/intelfpga_lite/18.1/nios2eds/bin/gnu/h-x86_64-mingw32/bin/../lib/gcc/nios2-elf/5.3.0\libgcc.a(lib2-divmod.o)
 .debug_frame   0x0000000000001af4       0x40 c:/intelfpga_lite/18.1/nios2eds/bin/gnu/h-x86_64-mingw32/bin/../lib/gcc/nios2-elf/5.3.0\libgcc.a(adddf3.o)
 .debug_frame   0x0000000000001b34       0x58 c:/intelfpga_lite/18.1/nios2eds/bin/gnu/h-x86_64-mingw32/bin/../lib/gcc/nios2-elf/5.3.0\libgcc.a(divdf3.o)
 .debug_frame   0x0000000000001b8c       0x20 c:/intelfpga_lite/18.1/nios2eds/bin/gnu/h-x86_64-mingw32/bin/../lib/gcc/nios2-elf/5.3.0\libgcc.a(eqdf2.o)
 .debug_frame   0x0000000000001bac       0x20 c:/intelfpga_lite/18.1/nios2eds/bin/gnu/h-x86_64-mingw32/bin/../lib/gcc/nios2-elf/5.3.0\libgcc.a(gedf2.o)
 .debug_frame   0x0000000000001bcc       0x20 c:/intelfpga_lite/18.1/nios2eds/bin/gnu/h-x86_64-mingw32/bin/../lib/gcc/nios2-elf/5.3.0\libgcc.a(ledf2.o)
 .debug_frame   0x0000000000001bec       0x58 c:/intelfpga_lite/18.1/nios2eds/bin/gnu/h-x86_64-mingw32/bin/../lib/gcc/nios2-elf/5.3.0\libgcc.a(muldf3.o)
 .debug_frame   0x0000000000001c44       0x44 c:/intelfpga_lite/18.1/nios2eds/bin/gnu/h-x86_64-mingw32/bin/../lib/gcc/nios2-elf/5.3.0\libgcc.a(subdf3.o)
 .debug_frame   0x0000000000001c88       0x20 c:/intelfpga_lite/18.1/nios2eds/bin/gnu/h-x86_64-mingw32/bin/../lib/gcc/nios2-elf/5.3.0\libgcc.a(fixdfsi.o)
 .debug_frame   0x0000000000001ca8       0x38 c:/intelfpga_lite/18.1/nios2eds/bin/gnu/h-x86_64-mingw32/bin/../lib/gcc/nios2-elf/5.3.0\libgcc.a(floatsidf.o)
 .debug_frame   0x0000000000001ce0       0x34 c:/intelfpga_lite/18.1/nios2eds/bin/gnu/h-x86_64-mingw32/bin/../lib/gcc/nios2-elf/5.3.0\libgcc.a(floatunsidf.o)
 .debug_frame   0x0000000000001d14       0x20 c:/intelfpga_lite/18.1/nios2eds/bin/gnu/h-x86_64-mingw32/bin/../lib/gcc/nios2-elf/5.3.0\libgcc.a(_clzsi2.o)
 .debug_frame   0x0000000000001d34       0x60 ../FPGAEncrypt_bsp/\libucosii_bsp.a(alt_fstat.o)
 .debug_frame   0x0000000000001d94       0x60 ../FPGAEncrypt_bsp/\libucosii_bsp.a(alt_isatty.o)
 .debug_frame   0x0000000000001df4       0x60 ../FPGAEncrypt_bsp/\libucosii_bsp.a(alt_lseek.o)
 .debug_frame   0x0000000000001e54       0x2c ../FPGAEncrypt_bsp/\libucosii_bsp.a(alt_main.o)
 .debug_frame   0x0000000000001e80       0x34 ../FPGAEncrypt_bsp/\libucosii_bsp.a(alt_sbrk.o)
 .debug_frame   0x0000000000001eb4       0x60 ../FPGAEncrypt_bsp/\libucosii_bsp.a(alt_env_lock.o)
 .debug_frame   0x0000000000001f14       0x64 ../FPGAEncrypt_bsp/\libucosii_bsp.a(alt_malloc_lock.o)
 .debug_frame   0x0000000000001f78      0x530 ../FPGAEncrypt_bsp/\libucosii_bsp.a(os_core.o)
 .debug_frame   0x00000000000024a8       0x34 ../FPGAEncrypt_bsp/\libucosii_bsp.a(os_dbg.o)
 .debug_frame   0x00000000000024dc      0x200 ../FPGAEncrypt_bsp/\libucosii_bsp.a(os_flag.o)
 .debug_frame   0x00000000000026dc      0x118 ../FPGAEncrypt_bsp/\libucosii_bsp.a(os_mem.o)
 .debug_frame   0x00000000000027f4      0x1bc ../FPGAEncrypt_bsp/\libucosii_bsp.a(os_q.o)
 .debug_frame   0x00000000000029b0      0x144 ../FPGAEncrypt_bsp/\libucosii_bsp.a(os_sem.o)
 .debug_frame   0x0000000000002af4      0x1e4 ../FPGAEncrypt_bsp/\libucosii_bsp.a(os_task.o)
 .debug_frame   0x0000000000002cd8       0xd8 ../FPGAEncrypt_bsp/\libucosii_bsp.a(os_time.o)
 .debug_frame   0x0000000000002db0       0x88 ../FPGAEncrypt_bsp/\libucosii_bsp.a(alt_sys_init.o)
 .debug_frame   0x0000000000002e38       0xb0 ../FPGAEncrypt_bsp/\libucosii_bsp.a(altera_avalon_jtag_uart_fd.o)
 .debug_frame   0x0000000000002ee8       0xac ../FPGAEncrypt_bsp/\libucosii_bsp.a(altera_avalon_jtag_uart_init.o)
 .debug_frame   0x0000000000002f94       0x34 ../FPGAEncrypt_bsp/\libucosii_bsp.a(altera_avalon_jtag_uart_ioctl.o)
 .debug_frame   0x0000000000002fc8       0x38 ../FPGAEncrypt_bsp/\libucosii_bsp.a(altera_avalon_jtag_uart_read.o)
 .debug_frame   0x0000000000003000       0x38 ../FPGAEncrypt_bsp/\libucosii_bsp.a(altera_avalon_jtag_uart_write.o)
 .debug_frame   0x0000000000003038       0x60 ../FPGAEncrypt_bsp/\libucosii_bsp.a(altera_avalon_timer_sc.o)
 .debug_frame   0x0000000000003098      0x198 ../FPGAEncrypt_bsp/\libucosii_bsp.a(altera_epcq_controller2.o)
 .debug_frame   0x0000000000003230      0x59c ../FPGAEncrypt_bsp/\libucosii_bsp.a(altera_msgdma.o)
 .debug_frame   0x00000000000037cc       0x84 ../FPGAEncrypt_bsp/\libucosii_bsp.a(altera_remote_update.o)
 .debug_frame   0x0000000000003850      0x214 ../FPGAEncrypt_bsp/\libucosii_bsp.a(ins_tse_mac.o)
 .debug_frame   0x0000000000003a64       0x38 ../FPGAEncrypt_bsp/\libucosii_bsp.a(alt_iniche_close.o)
 .debug_frame   0x0000000000003a9c       0x38 ../FPGAEncrypt_bsp/\libucosii_bsp.a(alt_iniche_dev.o)
 .debug_frame   0x0000000000003ad4       0x38 ../FPGAEncrypt_bsp/\libucosii_bsp.a(alt_iniche_read.o)
 .debug_frame   0x0000000000003b0c       0x38 ../FPGAEncrypt_bsp/\libucosii_bsp.a(alt_iniche_write.o)
 .debug_frame   0x0000000000003b44       0xfc ../FPGAEncrypt_bsp/\libucosii_bsp.a(ipnet.o)
 .debug_frame   0x0000000000003c40       0xb0 ../FPGAEncrypt_bsp/\libucosii_bsp.a(ipstart.o)
 .debug_frame   0x0000000000003cf0      0x150 ../FPGAEncrypt_bsp/\libucosii_bsp.a(igmp_cmn.o)
 .debug_frame   0x0000000000003e40      0x19c ../FPGAEncrypt_bsp/\libucosii_bsp.a(bsdsock.o)
 .debug_frame   0x0000000000003fdc       0x5c ../FPGAEncrypt_bsp/\libucosii_bsp.a(cksum.o)
 .debug_frame   0x0000000000004038      0x1f0 ../FPGAEncrypt_bsp/\libucosii_bsp.a(in_utils.o)
 .debug_frame   0x0000000000004228       0x70 ../FPGAEncrypt_bsp/\libucosii_bsp.a(netmain.o)
 .debug_frame   0x0000000000004298      0x128 ../FPGAEncrypt_bsp/\libucosii_bsp.a(tk_crnos.o)
 .debug_frame   0x00000000000043c0      0x32c ../FPGAEncrypt_bsp/\libucosii_bsp.a(dhcpclnt.o)
 .debug_frame   0x00000000000046ec       0x34 ../FPGAEncrypt_bsp/\libucosii_bsp.a(dhcputil.o)
 .debug_frame   0x0000000000004720       0xfc ../FPGAEncrypt_bsp/\libucosii_bsp.a(pktalloc.o)
 .debug_frame   0x000000000000481c       0x88 ../FPGAEncrypt_bsp/\libucosii_bsp.a(q.o)
 .debug_frame   0x00000000000048a4       0x60 ../FPGAEncrypt_bsp/\libucosii_bsp.a(udp_open.o)
 .debug_frame   0x0000000000004904      0x13c ../FPGAEncrypt_bsp/\libucosii_bsp.a(brdutils.o)
 .debug_frame   0x0000000000004a40       0xd8 ../FPGAEncrypt_bsp/\libucosii_bsp.a(osportco.o)
 .debug_frame   0x0000000000004b18      0x198 ../FPGAEncrypt_bsp/\libucosii_bsp.a(targnios.o)
 .debug_frame   0x0000000000004cb0      0x2cc ../FPGAEncrypt_bsp/\libucosii_bsp.a(nptcp.o)
 .debug_frame   0x0000000000004f7c       0x8c ../FPGAEncrypt_bsp/\libucosii_bsp.a(rawsock.o)
 .debug_frame   0x0000000000005008      0x308 ../FPGAEncrypt_bsp/\libucosii_bsp.a(sockcall.o)
 .debug_frame   0x0000000000005310      0x290 ../FPGAEncrypt_bsp/\libucosii_bsp.a(socket.o)
 .debug_frame   0x00000000000055a0      0x398 ../FPGAEncrypt_bsp/\libucosii_bsp.a(socket2.o)
 .debug_frame   0x0000000000005938      0x178 ../FPGAEncrypt_bsp/\libucosii_bsp.a(soselect.o)
 .debug_frame   0x0000000000005ab0      0x130 ../FPGAEncrypt_bsp/\libucosii_bsp.a(tcp_in.o)
 .debug_frame   0x0000000000005be0       0x88 ../FPGAEncrypt_bsp/\libucosii_bsp.a(tcp_out.o)
 .debug_frame   0x0000000000005c68      0x168 ../FPGAEncrypt_bsp/\libucosii_bsp.a(tcp_subr.o)
 .debug_frame   0x0000000000005dd0       0x84 ../FPGAEncrypt_bsp/\libucosii_bsp.a(tcp_timr.o)
 .debug_frame   0x0000000000005e54       0xb0 ../FPGAEncrypt_bsp/\libucosii_bsp.a(tcp_usr.o)
 .debug_frame   0x0000000000005f04       0x38 ../FPGAEncrypt_bsp/\libucosii_bsp.a(tcpport.o)
 .debug_frame   0x0000000000005f3c      0x104 ../FPGAEncrypt_bsp/\libucosii_bsp.a(udpsock.o)
 .debug_frame   0x0000000000006040       0x34 ../FPGAEncrypt_bsp/\libucosii_bsp.a(alt_alarm_start.o)
 .debug_frame   0x0000000000006074       0x38 ../FPGAEncrypt_bsp/\libucosii_bsp.a(alt_busy_sleep.o)
 .debug_frame   0x00000000000060ac       0x60 ../FPGAEncrypt_bsp/\libucosii_bsp.a(alt_close.o)
 .debug_frame   0x000000000000610c       0x34 ../FPGAEncrypt_bsp/\libucosii_bsp.a(alt_dcache_flush.o)
 .debug_frame   0x0000000000006140       0x34 ../FPGAEncrypt_bsp/\libucosii_bsp.a(alt_dev.o)
 .debug_frame   0x0000000000006174       0x60 ../FPGAEncrypt_bsp/\libucosii_bsp.a(alt_dev_llist_insert.o)
 .debug_frame   0x00000000000061d4       0x38 ../FPGAEncrypt_bsp/\libucosii_bsp.a(alt_do_ctors.o)
 .debug_frame   0x000000000000620c       0x38 ../FPGAEncrypt_bsp/\libucosii_bsp.a(alt_do_dtors.o)
 .debug_frame   0x0000000000006244       0x38 ../FPGAEncrypt_bsp/\libucosii_bsp.a(alt_find_dev.o)
 .debug_frame   0x000000000000627c       0x60 ../FPGAEncrypt_bsp/\libucosii_bsp.a(alt_flash_dev.o)
 .debug_frame   0x00000000000062dc       0xa4 ../FPGAEncrypt_bsp/\libucosii_bsp.a(alt_iic.o)
 .debug_frame   0x0000000000006380       0x38 ../FPGAEncrypt_bsp/\libucosii_bsp.a(alt_iic_isr_register.o)
 .debug_frame   0x00000000000063b8       0x60 ../FPGAEncrypt_bsp/\libucosii_bsp.a(alt_io_redirect.o)
 .debug_frame   0x0000000000006418       0x38 ../FPGAEncrypt_bsp/\libucosii_bsp.a(alt_irq_handler.o)
 .debug_frame   0x0000000000006450       0x84 ../FPGAEncrypt_bsp/\libucosii_bsp.a(alt_open.o)
 .debug_frame   0x00000000000064d4       0x38 ../FPGAEncrypt_bsp/\libucosii_bsp.a(alt_printf.o)
 .debug_frame   0x000000000000650c       0x38 ../FPGAEncrypt_bsp/\libucosii_bsp.a(alt_putchar.o)
 .debug_frame   0x0000000000006544       0x60 ../FPGAEncrypt_bsp/\libucosii_bsp.a(alt_read.o)
 .debug_frame   0x00000000000065a4       0x34 ../FPGAEncrypt_bsp/\libucosii_bsp.a(alt_release_fd.o)
 .debug_frame   0x00000000000065d8       0x34 ../FPGAEncrypt_bsp/\libucosii_bsp.a(alt_remap_cached.o)
 .debug_frame   0x000000000000660c       0x5c ../FPGAEncrypt_bsp/\libucosii_bsp.a(alt_tick.o)
 .debug_frame   0x0000000000006668       0x38 ../FPGAEncrypt_bsp/\libucosii_bsp.a(alt_uncached_free.o)
 .debug_frame   0x00000000000066a0       0x38 ../FPGAEncrypt_bsp/\libucosii_bsp.a(alt_uncached_malloc.o)
 .debug_frame   0x00000000000066d8       0x60 ../FPGAEncrypt_bsp/\libucosii_bsp.a(alt_write.o)
 .debug_frame   0x0000000000006738       0x34 ../FPGAEncrypt_bsp/\libucosii_bsp.a(altera_nios2_gen2_irq.o)
 .debug_frame   0x000000000000676c      0x180 ../FPGAEncrypt_bsp/\libucosii_bsp.a(os_cpu_c.o)
 .debug_frame   0x00000000000068ec      0x718 ../FPGAEncrypt_bsp/\libucosii_bsp.a(altera_avalon_tse.o)
 .debug_frame   0x0000000000007004      0x134 ../FPGAEncrypt_bsp/\libucosii_bsp.a(allports.o)
 .debug_frame   0x0000000000007138       0xb0 ../FPGAEncrypt_bsp/\libucosii_bsp.a(timeouts.o)
 .debug_frame   0x00000000000071e8       0x5c ../FPGAEncrypt_bsp/\libucosii_bsp.a(tk_misc.o)
 .debug_frame   0x0000000000007244       0x38 ../FPGAEncrypt_bsp/\libucosii_bsp.a(alt_iniche_fcntl.o)
 .debug_frame   0x000000000000727c      0x1f0 ../FPGAEncrypt_bsp/\libucosii_bsp.a(et_arp.o)
 .debug_frame   0x000000000000746c       0xac ../FPGAEncrypt_bsp/\libucosii_bsp.a(iface.o)
 .debug_frame   0x0000000000007518      0x1f0 ../FPGAEncrypt_bsp/\libucosii_bsp.a(ip.o)
 .debug_frame   0x0000000000007708      0x280 ../FPGAEncrypt_bsp/\libucosii_bsp.a(ip_reasm.o)
 .debug_frame   0x0000000000007988       0x90 ../FPGAEncrypt_bsp/\libucosii_bsp.a(ipdemux.o)
 .debug_frame   0x0000000000007a18       0x84 ../FPGAEncrypt_bsp/\libucosii_bsp.a(ipmc.o)
 .debug_frame   0x0000000000007a9c       0x78 ../FPGAEncrypt_bsp/\libucosii_bsp.a(ipport.o)
 .debug_frame   0x0000000000007b14       0xfc ../FPGAEncrypt_bsp/\libucosii_bsp.a(ipraw.o)
 .debug_frame   0x0000000000007c10       0x84 ../FPGAEncrypt_bsp/\libucosii_bsp.a(iproute.o)
 .debug_frame   0x0000000000007c94      0x11c ../FPGAEncrypt_bsp/\libucosii_bsp.a(udp.o)
 .debug_frame   0x0000000000007db0       0x38 ../FPGAEncrypt_bsp/\libucosii_bsp.a(igmp.o)
 .debug_frame   0x0000000000007de8       0xd4 ../FPGAEncrypt_bsp/\libucosii_bsp.a(igmp2.o)
 .debug_frame   0x0000000000007ebc       0xb0 ../FPGAEncrypt_bsp/\libucosii_bsp.a(ipopt.o)
 .debug_frame   0x0000000000007f6c       0x64 ../FPGAEncrypt_bsp/\libucosii_bsp.a(u_mctest.o)
 .debug_frame   0x0000000000007fd0       0x60 ../FPGAEncrypt_bsp/\libucosii_bsp.a(dhcsetup.o)
 .debug_frame   0x0000000000008030      0x158 ../FPGAEncrypt_bsp/\libucosii_bsp.a(memdev.o)
 .debug_frame   0x0000000000008188      0x16c ../FPGAEncrypt_bsp/\libucosii_bsp.a(parseip.o)
 .debug_frame   0x00000000000082f4       0x38 ../FPGAEncrypt_bsp/\libucosii_bsp.a(tcpcksum.o)
 .debug_frame   0x000000000000832c      0x14c ../FPGAEncrypt_bsp/\libucosii_bsp.a(in_pcb.o)
 .debug_frame   0x0000000000008478      0x460 ../FPGAEncrypt_bsp/\libucosii_bsp.a(vfsfiles.o)
 .debug_frame   0x00000000000088d8       0x34 ../FPGAEncrypt_bsp/\libucosii_bsp.a(vfsport.o)
 .debug_frame   0x000000000000890c       0x60 ../FPGAEncrypt_bsp/\libucosii_bsp.a(alt_fcntl.o)
 .debug_frame   0x000000000000896c       0x38 ../FPGAEncrypt_bsp/\libucosii_bsp.a(alt_find_file.o)
 .debug_frame   0x00000000000089a4       0x38 ../FPGAEncrypt_bsp/\libucosii_bsp.a(alt_get_fd.o)
 .debug_frame   0x00000000000089dc       0x5c ../FPGAEncrypt_bsp/\libucosii_bsp.a(alt_instruction_exception_entry.o)
 .debug_frame   0x0000000000008a38       0x3c ../FPGAEncrypt_bsp/\libucosii_bsp.a(alt_usleep.o)
 .debug_frame   0x0000000000008a74       0xbc ../FPGAEncrypt_bsp/\libucosii_bsp.a(icmp.o)
 .debug_frame   0x0000000000008b30       0x20 c:/intelfpga_lite/18.1/nios2eds/bin/gnu/h-x86_64-mingw32/bin/../lib/gcc/nios2-elf/5.3.0/../../../../../H-x86_64-mingw32/nios2-elf/lib\libc.a(lib_a-atexit.o)
 .debug_frame   0x0000000000008b50       0x30 c:/intelfpga_lite/18.1/nios2eds/bin/gnu/h-x86_64-mingw32/bin/../lib/gcc/nios2-elf/5.3.0/../../../../../H-x86_64-mingw32/nios2-elf/lib\libc.a(lib_a-atoi.o)
 .debug_frame   0x0000000000008b80       0x28 c:/intelfpga_lite/18.1/nios2eds/bin/gnu/h-x86_64-mingw32/bin/../lib/gcc/nios2-elf/5.3.0/../../../../../H-x86_64-mingw32/nios2-elf/lib\libc.a(lib_a-exit.o)
 .debug_frame   0x0000000000008ba8       0x20 c:/intelfpga_lite/18.1/nios2eds/bin/gnu/h-x86_64-mingw32/bin/../lib/gcc/nios2-elf/5.3.0/../../../../../H-x86_64-mingw32/nios2-elf/lib\libc.a(lib_a-malign.o)
 .debug_frame   0x0000000000008bc8       0x5c c:/intelfpga_lite/18.1/nios2eds/bin/gnu/h-x86_64-mingw32/bin/../lib/gcc/nios2-elf/5.3.0/../../../../../H-x86_64-mingw32/nios2-elf/lib\libc.a(lib_a-malignr.o)
 .debug_frame   0x0000000000008c24       0x30 c:/intelfpga_lite/18.1/nios2eds/bin/gnu/h-x86_64-mingw32/bin/../lib/gcc/nios2-elf/5.3.0/../../../../../H-x86_64-mingw32/nios2-elf/lib\libc.a(lib_a-malloc.o)
 .debug_frame   0x0000000000008c54       0x20 c:/intelfpga_lite/18.1/nios2eds/bin/gnu/h-x86_64-mingw32/bin/../lib/gcc/nios2-elf/5.3.0/../../../../../H-x86_64-mingw32/nios2-elf/lib\libc.a(lib_a-strcpy.o)
 .debug_frame   0x0000000000008c74       0x20 c:/intelfpga_lite/18.1/nios2eds/bin/gnu/h-x86_64-mingw32/bin/../lib/gcc/nios2-elf/5.3.0/../../../../../H-x86_64-mingw32/nios2-elf/lib\libc.a(lib_a-strncmp.o)
 .debug_frame   0x0000000000008c94       0x20 c:/intelfpga_lite/18.1/nios2eds/bin/gnu/h-x86_64-mingw32/bin/../lib/gcc/nios2-elf/5.3.0/../../../../../H-x86_64-mingw32/nios2-elf/lib\libc.a(lib_a-strncpy.o)
 .debug_frame   0x0000000000008cb4       0x68 c:/intelfpga_lite/18.1/nios2eds/bin/gnu/h-x86_64-mingw32/bin/../lib/gcc/nios2-elf/5.3.0/../../../../../H-x86_64-mingw32/nios2-elf/lib\libc.a(lib_a-strtol.o)
 .debug_frame   0x0000000000008d1c       0x30 c:/intelfpga_lite/18.1/nios2eds/bin/gnu/h-x86_64-mingw32/bin/../lib/gcc/nios2-elf/5.3.0/../../../../../H-x86_64-mingw32/nios2-elf/lib\libc.a(lib_a-vprintf.o)
 .debug_frame   0x0000000000008d4c       0x3c c:/intelfpga_lite/18.1/nios2eds/bin/gnu/h-x86_64-mingw32/bin/../lib/gcc/nios2-elf/5.3.0/../../../../../H-x86_64-mingw32/nios2-elf/lib\libc.a(lib_a-vsprintf.o)
 .debug_frame   0x0000000000008d88       0x38 c:/intelfpga_lite/18.1/nios2eds/bin/gnu/h-x86_64-mingw32/bin/../lib/gcc/nios2-elf/5.3.0/../../../../../H-x86_64-mingw32/nios2-elf/lib\libc.a(lib_a-__atexit.o)
 .debug_frame   0x0000000000008dc0       0x54 c:/intelfpga_lite/18.1/nios2eds/bin/gnu/h-x86_64-mingw32/bin/../lib/gcc/nios2-elf/5.3.0/../../../../../H-x86_64-mingw32/nios2-elf/lib\libc.a(lib_a-__call_atexit.o)
 .debug_frame   0x0000000000008e14       0x2c c:/intelfpga_lite/18.1/nios2eds/bin/gnu/h-x86_64-mingw32/bin/../lib/gcc/nios2-elf/5.3.0/../../../../../H-x86_64-mingw32/nios2-elf/lib\libc.a(lib_a-vfprintfr_1.o)
 .debug_frame   0x0000000000008e40       0x2c ../FPGAEncrypt_bsp/\libucosii_bsp.a(alt_exit.o)

.debug_str      0x0000000000000000     0xc666
 *(.debug_str)
 .debug_str     0x0000000000000000      0x4f6 obj/default/alt_error_handler.o
                                        0x5c6 (size before relaxing)
 .debug_str     0x00000000000004f6       0xe6 obj/default/iniche_init.o
                                        0x286 (size before relaxing)
 .debug_str     0x00000000000005dc      0x166 obj/default/led.o
                                        0x2c9 (size before relaxing)
 .debug_str     0x0000000000000742      0x4a9 obj/default/network_utilities.o
                                        0xa1d (size before relaxing)
 .debug_str     0x0000000000000beb      0x1be obj/default/simple_socket_server.o
                                        0x4a0 (size before relaxing)
 .debug_str     0x0000000000000da9      0x709 obj/default/tse_my_system.o
                                        0x927 (size before relaxing)
 .debug_str     0x00000000000014b2      0x12d c:/intelfpga_lite/18.1/nios2eds/bin/gnu/h-x86_64-mingw32/bin/../lib/gcc/nios2-elf/5.3.0/../../../../../H-x86_64-mingw32/nios2-elf/lib\libc.a(lib_a-ctype_.o)
                                        0x149 (size before relaxing)
 .debug_str     0x00000000000015df      0x105 c:/intelfpga_lite/18.1/nios2eds/bin/gnu/h-x86_64-mingw32/bin/../lib/gcc/nios2-elf/5.3.0/../../../../../H-x86_64-mingw32/nios2-elf/lib\libc.a(lib_a-fprintf.o)
                                        0x5c6 (size before relaxing)
 .debug_str     0x00000000000016e4       0xa4 c:/intelfpga_lite/18.1/nios2eds/bin/gnu/h-x86_64-mingw32/bin/../lib/gcc/nios2-elf/5.3.0/../../../../../H-x86_64-mingw32/nios2-elf/lib\libc.a(lib_a-fwrite.o)
                                        0x605 (size before relaxing)
 .debug_str     0x0000000000001788       0x49 c:/intelfpga_lite/18.1/nios2eds/bin/gnu/h-x86_64-mingw32/bin/../lib/gcc/nios2-elf/5.3.0/../../../../../H-x86_64-mingw32/nios2-elf/lib\libc.a(lib_a-getc.o)
                                        0x5bb (size before relaxing)
 .debug_str     0x00000000000017d1       0xdb c:/intelfpga_lite/18.1/nios2eds/bin/gnu/h-x86_64-mingw32/bin/../lib/gcc/nios2-elf/5.3.0/../../../../../H-x86_64-mingw32/nios2-elf/lib\libc.a(lib_a-impure.o)
                                        0x59b (size before relaxing)
 .debug_str     0x00000000000018ac       0xec c:/intelfpga_lite/18.1/nios2eds/bin/gnu/h-x86_64-mingw32/bin/../lib/gcc/nios2-elf/5.3.0/../../../../../H-x86_64-mingw32/nios2-elf/lib\libc.a(lib_a-memcpy.o)
                                        0x1f1 (size before relaxing)
 .debug_str     0x0000000000001998       0x55 c:/intelfpga_lite/18.1/nios2eds/bin/gnu/h-x86_64-mingw32/bin/../lib/gcc/nios2-elf/5.3.0/../../../../../H-x86_64-mingw32/nios2-elf/lib\libc.a(lib_a-memmove.o)
                                        0x1fd (size before relaxing)
 .debug_str     0x00000000000019ed       0x4e c:/intelfpga_lite/18.1/nios2eds/bin/gnu/h-x86_64-mingw32/bin/../lib/gcc/nios2-elf/5.3.0/../../../../../H-x86_64-mingw32/nios2-elf/lib\libc.a(lib_a-memset.o)
                                        0x1de (size before relaxing)
 .debug_str     0x0000000000001a3b       0x68 c:/intelfpga_lite/18.1/nios2eds/bin/gnu/h-x86_64-mingw32/bin/../lib/gcc/nios2-elf/5.3.0/../../../../../H-x86_64-mingw32/nios2-elf/lib\libc.a(lib_a-perror.o)
                                        0x5b1 (size before relaxing)
 .debug_str     0x0000000000001aa3       0x5a c:/intelfpga_lite/18.1/nios2eds/bin/gnu/h-x86_64-mingw32/bin/../lib/gcc/nios2-elf/5.3.0/../../../../../H-x86_64-mingw32/nios2-elf/lib\libc.a(lib_a-printf.o)
                                        0x5e1 (size before relaxing)
 .debug_str     0x0000000000001afd       0x49 c:/intelfpga_lite/18.1/nios2eds/bin/gnu/h-x86_64-mingw32/bin/../lib/gcc/nios2-elf/5.3.0/../../../../../H-x86_64-mingw32/nios2-elf/lib\libc.a(lib_a-putc.o)
                                        0x5bb (size before relaxing)
 .debug_str     0x0000000000001b46       0x45 c:/intelfpga_lite/18.1/nios2eds/bin/gnu/h-x86_64-mingw32/bin/../lib/gcc/nios2-elf/5.3.0/../../../../../H-x86_64-mingw32/nios2-elf/lib\libc.a(lib_a-putchar.o)
                                        0x59e (size before relaxing)
 .debug_str     0x0000000000001b8b       0x46 c:/intelfpga_lite/18.1/nios2eds/bin/gnu/h-x86_64-mingw32/bin/../lib/gcc/nios2-elf/5.3.0/../../../../../H-x86_64-mingw32/nios2-elf/lib\libc.a(lib_a-puts.o)
                                        0x602 (size before relaxing)
 .debug_str     0x0000000000001bd1       0x4b c:/intelfpga_lite/18.1/nios2eds/bin/gnu/h-x86_64-mingw32/bin/../lib/gcc/nios2-elf/5.3.0/../../../../../H-x86_64-mingw32/nios2-elf/lib\libc.a(lib_a-rget.o)
                                        0x5b5 (size before relaxing)
 .debug_str     0x0000000000001c1c       0x5d c:/intelfpga_lite/18.1/nios2eds/bin/gnu/h-x86_64-mingw32/bin/../lib/gcc/nios2-elf/5.3.0/../../../../../H-x86_64-mingw32/nios2-elf/lib\libc.a(lib_a-sprintf.o)
                                        0x5d6 (size before relaxing)
 .debug_str     0x0000000000001c79       0x41 c:/intelfpga_lite/18.1/nios2eds/bin/gnu/h-x86_64-mingw32/bin/../lib/gcc/nios2-elf/5.3.0/../../../../../H-x86_64-mingw32/nios2-elf/lib\libc.a(lib_a-strchr.o)
                                        0x1d5 (size before relaxing)
 .debug_str     0x0000000000001cba       0x59 c:/intelfpga_lite/18.1/nios2eds/bin/gnu/h-x86_64-mingw32/bin/../lib/gcc/nios2-elf/5.3.0/../../../../../H-x86_64-mingw32/nios2-elf/lib\libc.a(lib_a-strerror.o)
                                        0x5c1 (size before relaxing)
 .debug_str     0x0000000000001d13       0x3a c:/intelfpga_lite/18.1/nios2eds/bin/gnu/h-x86_64-mingw32/bin/../lib/gcc/nios2-elf/5.3.0/../../../../../H-x86_64-mingw32/nios2-elf/lib\libc.a(lib_a-strlen.o)
                                        0x1dd (size before relaxing)
 .debug_str     0x0000000000001d4d       0xf5 c:/intelfpga_lite/18.1/nios2eds/bin/gnu/h-x86_64-mingw32/bin/../lib/gcc/nios2-elf/5.3.0/../../../../../H-x86_64-mingw32/nios2-elf/lib\libc.a(lib_a-strstr.o)
                                        0x299 (size before relaxing)
 .debug_str     0x0000000000001e42      0x1e7 c:/intelfpga_lite/18.1/nios2eds/bin/gnu/h-x86_64-mingw32/bin/../lib/gcc/nios2-elf/5.3.0/../../../../../H-x86_64-mingw32/nios2-elf/lib\libc.a(lib_a-svfprintf.o)
                                        0x7c5 (size before relaxing)
 .debug_str     0x0000000000002029       0x3c c:/intelfpga_lite/18.1/nios2eds/bin/gnu/h-x86_64-mingw32/bin/../lib/gcc/nios2-elf/5.3.0/../../../../../H-x86_64-mingw32/nios2-elf/lib\libc.a(lib_a-u_strerr.o)
                                        0x14b (size before relaxing)
 .debug_str     0x0000000000002065       0x31 c:/intelfpga_lite/18.1/nios2eds/bin/gnu/h-x86_64-mingw32/bin/../lib/gcc/nios2-elf/5.3.0/../../../../../H-x86_64-mingw32/nios2-elf/lib\libc.a(lib_a-vfprintf.o)
                                        0x823 (size before relaxing)
 .debug_str     0x0000000000002096       0x3f c:/intelfpga_lite/18.1/nios2eds/bin/gnu/h-x86_64-mingw32/bin/../lib/gcc/nios2-elf/5.3.0/../../../../../H-x86_64-mingw32/nios2-elf/lib\libc.a(lib_a-wbuf.o)
                                        0x5bf (size before relaxing)
 .debug_str     0x00000000000020d5       0x4e c:/intelfpga_lite/18.1/nios2eds/bin/gnu/h-x86_64-mingw32/bin/../lib/gcc/nios2-elf/5.3.0/../../../../../H-x86_64-mingw32/nios2-elf/lib\libc.a(lib_a-wsetup.o)
                                        0x5ba (size before relaxing)
 .debug_str     0x0000000000002123      0x1da c:/intelfpga_lite/18.1/nios2eds/bin/gnu/h-x86_64-mingw32/bin/../lib/gcc/nios2-elf/5.3.0/../../../../../H-x86_64-mingw32/nios2-elf/lib\libc.a(lib_a-dtoa.o)
                                        0x6da (size before relaxing)
 .debug_str     0x00000000000022fd       0x62 c:/intelfpga_lite/18.1/nios2eds/bin/gnu/h-x86_64-mingw32/bin/../lib/gcc/nios2-elf/5.3.0/../../../../../H-x86_64-mingw32/nios2-elf/lib\libc.a(lib_a-fflush.o)
                                        0x5fb (size before relaxing)
 .debug_str     0x000000000000235f      0x10c c:/intelfpga_lite/18.1/nios2eds/bin/gnu/h-x86_64-mingw32/bin/../lib/gcc/nios2-elf/5.3.0/../../../../../H-x86_64-mingw32/nios2-elf/lib\libc.a(lib_a-findfp.o)
                                        0x6b1 (size before relaxing)
 .debug_str     0x000000000000246b       0x41 c:/intelfpga_lite/18.1/nios2eds/bin/gnu/h-x86_64-mingw32/bin/../lib/gcc/nios2-elf/5.3.0/../../../../../H-x86_64-mingw32/nios2-elf/lib\libc.a(lib_a-fputc.o)
                                        0x5c1 (size before relaxing)
 .debug_str     0x00000000000024ac       0x41 c:/intelfpga_lite/18.1/nios2eds/bin/gnu/h-x86_64-mingw32/bin/../lib/gcc/nios2-elf/5.3.0/../../../../../H-x86_64-mingw32/nios2-elf/lib\libc.a(lib_a-fputs.o)
                                        0x605 (size before relaxing)
 .debug_str     0x00000000000024ed      0x178 c:/intelfpga_lite/18.1/nios2eds/bin/gnu/h-x86_64-mingw32/bin/../lib/gcc/nios2-elf/5.3.0/../../../../../H-x86_64-mingw32/nios2-elf/lib\libc.a(lib_a-freer.o)
                                        0x6ea (size before relaxing)
 .debug_str     0x0000000000002665       0x63 c:/intelfpga_lite/18.1/nios2eds/bin/gnu/h-x86_64-mingw32/bin/../lib/gcc/nios2-elf/5.3.0/../../../../../H-x86_64-mingw32/nios2-elf/lib\libc.a(lib_a-fvwrite.o)
                                        0x62d (size before relaxing)
 .debug_str     0x00000000000026c8       0x47 c:/intelfpga_lite/18.1/nios2eds/bin/gnu/h-x86_64-mingw32/bin/../lib/gcc/nios2-elf/5.3.0/../../../../../H-x86_64-mingw32/nios2-elf/lib\libc.a(lib_a-fwalk.o)
                                        0x5a0 (size before relaxing)
 .debug_str     0x000000000000270f      0x292 c:/intelfpga_lite/18.1/nios2eds/bin/gnu/h-x86_64-mingw32/bin/../lib/gcc/nios2-elf/5.3.0/../../../../../H-x86_64-mingw32/nios2-elf/lib\libc.a(lib_a-locale.o)
                                        0x7f8 (size before relaxing)
 .debug_str     0x00000000000029a1      0x119 c:/intelfpga_lite/18.1/nios2eds/bin/gnu/h-x86_64-mingw32/bin/../lib/gcc/nios2-elf/5.3.0/../../../../../H-x86_64-mingw32/nios2-elf/lib\libc.a(lib_a-makebuf.o)
                                        0x69d (size before relaxing)
 .debug_str     0x0000000000002aba       0xd9 c:/intelfpga_lite/18.1/nios2eds/bin/gnu/h-x86_64-mingw32/bin/../lib/gcc/nios2-elf/5.3.0/../../../../../H-x86_64-mingw32/nios2-elf/lib\libc.a(lib_a-mallocr.o)
                                        0x7a0 (size before relaxing)
 .debug_str     0x0000000000002b93       0x3f c:/intelfpga_lite/18.1/nios2eds/bin/gnu/h-x86_64-mingw32/bin/../lib/gcc/nios2-elf/5.3.0/../../../../../H-x86_64-mingw32/nios2-elf/lib\libc.a(lib_a-memchr.o)
                                        0x1e4 (size before relaxing)
 .debug_str     0x0000000000002bd2       0x3a c:/intelfpga_lite/18.1/nios2eds/bin/gnu/h-x86_64-mingw32/bin/../lib/gcc/nios2-elf/5.3.0/../../../../../H-x86_64-mingw32/nios2-elf/lib\libc.a(lib_a-memcmp.o)
                                        0x1ca (size before relaxing)
 .debug_str     0x0000000000002c0c       0xa4 c:/intelfpga_lite/18.1/nios2eds/bin/gnu/h-x86_64-mingw32/bin/../lib/gcc/nios2-elf/5.3.0/../../../../../H-x86_64-mingw32/nios2-elf/lib\libc.a(lib_a-mprec.o)
                                        0x694 (size before relaxing)
 .debug_str     0x0000000000002cb0       0x49 c:/intelfpga_lite/18.1/nios2eds/bin/gnu/h-x86_64-mingw32/bin/../lib/gcc/nios2-elf/5.3.0/../../../../../H-x86_64-mingw32/nios2-elf/lib\libc.a(lib_a-reallocr.o)
                                        0x67c (size before relaxing)
 .debug_str     0x0000000000002cf9       0x4b c:/intelfpga_lite/18.1/nios2eds/bin/gnu/h-x86_64-mingw32/bin/../lib/gcc/nios2-elf/5.3.0/../../../../../H-x86_64-mingw32/nios2-elf/lib\libc.a(lib_a-refill.o)
                                        0x5f6 (size before relaxing)
 .debug_str     0x0000000000002d44       0xc4 c:/intelfpga_lite/18.1/nios2eds/bin/gnu/h-x86_64-mingw32/bin/../lib/gcc/nios2-elf/5.3.0/../../../../../H-x86_64-mingw32/nios2-elf/lib\libc.a(lib_a-s_fpclassify.o)
                                        0x1e8 (size before relaxing)
 .debug_str     0x0000000000002e08       0x4c c:/intelfpga_lite/18.1/nios2eds/bin/gnu/h-x86_64-mingw32/bin/../lib/gcc/nios2-elf/5.3.0/../../../../../H-x86_64-mingw32/nios2-elf/lib\libc.a(lib_a-sbrkr.o)
                                        0x591 (size before relaxing)
 .debug_str     0x0000000000002e54       0x98 c:/intelfpga_lite/18.1/nios2eds/bin/gnu/h-x86_64-mingw32/bin/../lib/gcc/nios2-elf/5.3.0/../../../../../H-x86_64-mingw32/nios2-elf/lib\libc.a(lib_a-stdio.o)
                                        0x5ef (size before relaxing)
 .debug_str     0x0000000000002eec       0x3a c:/intelfpga_lite/18.1/nios2eds/bin/gnu/h-x86_64-mingw32/bin/../lib/gcc/nios2-elf/5.3.0/../../../../../H-x86_64-mingw32/nios2-elf/lib\libc.a(lib_a-strcmp.o)
                                        0x1c3 (size before relaxing)
 .debug_str     0x0000000000002f26       0x19 c:/intelfpga_lite/18.1/nios2eds/bin/gnu/h-x86_64-mingw32/bin/../lib/gcc/nios2-elf/5.3.0/../../../../../H-x86_64-mingw32/nios2-elf/lib\libc.a(lib_a-svfiprintf.o)
                                        0x72a (size before relaxing)
 .debug_str     0x0000000000002f3f       0x3f c:/intelfpga_lite/18.1/nios2eds/bin/gnu/h-x86_64-mingw32/bin/../lib/gcc/nios2-elf/5.3.0/../../../../../H-x86_64-mingw32/nios2-elf/lib\libc.a(lib_a-vfiprintf.o)
                                        0x777 (size before relaxing)
 .debug_str     0x0000000000002f7e       0x39 c:/intelfpga_lite/18.1/nios2eds/bin/gnu/h-x86_64-mingw32/bin/../lib/gcc/nios2-elf/5.3.0/../../../../../H-x86_64-mingw32/nios2-elf/lib\libc.a(lib_a-writer.o)
                                        0x595 (size before relaxing)
 .debug_str     0x0000000000002fb7       0x39 c:/intelfpga_lite/18.1/nios2eds/bin/gnu/h-x86_64-mingw32/bin/../lib/gcc/nios2-elf/5.3.0/../../../../../H-x86_64-mingw32/nios2-elf/lib\libc.a(closer.o)
                                        0x585 (size before relaxing)
 .debug_str     0x0000000000002ff0        0xf c:/intelfpga_lite/18.1/nios2eds/bin/gnu/h-x86_64-mingw32/bin/../lib/gcc/nios2-elf/5.3.0/../../../../../H-x86_64-mingw32/nios2-elf/lib\libc.a(lib_a-callocr.o)
                                        0x5d4 (size before relaxing)
 .debug_str     0x0000000000002fff       0x43 c:/intelfpga_lite/18.1/nios2eds/bin/gnu/h-x86_64-mingw32/bin/../lib/gcc/nios2-elf/5.3.0/../../../../../H-x86_64-mingw32/nios2-elf/lib\libc.a(lib_a-fclose.o)
                                        0x5e8 (size before relaxing)
 .debug_str     0x0000000000003042       0x4d c:/intelfpga_lite/18.1/nios2eds/bin/gnu/h-x86_64-mingw32/bin/../lib/gcc/nios2-elf/5.3.0/../../../../../H-x86_64-mingw32/nios2-elf/lib\libc.a(lib_a-fputwc.o)
                                        0x5ec (size before relaxing)
 .debug_str     0x000000000000308f       0x3f c:/intelfpga_lite/18.1/nios2eds/bin/gnu/h-x86_64-mingw32/bin/../lib/gcc/nios2-elf/5.3.0/../../../../../H-x86_64-mingw32/nios2-elf/lib\libc.a(lib_a-fstatr.o)
                                        0x671 (size before relaxing)
 .debug_str     0x00000000000030ce       0x3c c:/intelfpga_lite/18.1/nios2eds/bin/gnu/h-x86_64-mingw32/bin/../lib/gcc/nios2-elf/5.3.0/../../../../../H-x86_64-mingw32/nios2-elf/lib\libc.a(lib_a-int_errno.o)
                                        0x1c3 (size before relaxing)
 .debug_str     0x000000000000310a       0x41 c:/intelfpga_lite/18.1/nios2eds/bin/gnu/h-x86_64-mingw32/bin/../lib/gcc/nios2-elf/5.3.0/../../../../../H-x86_64-mingw32/nios2-elf/lib\libc.a(lib_a-isattyr.o)
                                        0x588 (size before relaxing)
 .debug_str     0x000000000000314b       0x3f c:/intelfpga_lite/18.1/nios2eds/bin/gnu/h-x86_64-mingw32/bin/../lib/gcc/nios2-elf/5.3.0/../../../../../H-x86_64-mingw32/nios2-elf/lib\libc.a(lib_a-lseekr.o)
                                        0x58c (size before relaxing)
 .debug_str     0x000000000000318a       0x38 c:/intelfpga_lite/18.1/nios2eds/bin/gnu/h-x86_64-mingw32/bin/../lib/gcc/nios2-elf/5.3.0/../../../../../H-x86_64-mingw32/nios2-elf/lib\libc.a(lib_a-readr.o)
                                        0x592 (size before relaxing)
 .debug_str     0x00000000000031c2       0x53 c:/intelfpga_lite/18.1/nios2eds/bin/gnu/h-x86_64-mingw32/bin/../lib/gcc/nios2-elf/5.3.0/../../../../../H-x86_64-mingw32/nios2-elf/lib\libc.a(lib_a-wcrtomb.o)
                                        0x5d2 (size before relaxing)
 .debug_str     0x0000000000003215       0x5c c:/intelfpga_lite/18.1/nios2eds/bin/gnu/h-x86_64-mingw32/bin/../lib/gcc/nios2-elf/5.3.0/../../../../../H-x86_64-mingw32/nios2-elf/lib\libc.a(lib_a-wctomb_r.o)
                                        0x5db (size before relaxing)
 .debug_str     0x0000000000003271      0x1e4 c:/intelfpga_lite/18.1/nios2eds/bin/gnu/h-x86_64-mingw32/bin/../lib/gcc/nios2-elf/5.3.0\libgcc.a(_udivdi3.o)
                                        0x282 (size before relaxing)
 .debug_str     0x0000000000003455        0xa c:/intelfpga_lite/18.1/nios2eds/bin/gnu/h-x86_64-mingw32/bin/../lib/gcc/nios2-elf/5.3.0\libgcc.a(_umoddi3.o)
                                        0x282 (size before relaxing)
 .debug_str     0x000000000000345f       0xf0 c:/intelfpga_lite/18.1/nios2eds/bin/gnu/h-x86_64-mingw32/bin/../lib/gcc/nios2-elf/5.3.0\libgcc.a(lib2-divmod.o)
                                        0x1b8 (size before relaxing)
 .debug_str     0x000000000000354f      0x116 c:/intelfpga_lite/18.1/nios2eds/bin/gnu/h-x86_64-mingw32/bin/../lib/gcc/nios2-elf/5.3.0\libgcc.a(adddf3.o)
                                        0x28f (size before relaxing)
 .debug_str     0x0000000000003665      0x123 c:/intelfpga_lite/18.1/nios2eds/bin/gnu/h-x86_64-mingw32/bin/../lib/gcc/nios2-elf/5.3.0\libgcc.a(divdf3.o)
                                        0x347 (size before relaxing)
 .debug_str     0x0000000000003788       0x34 c:/intelfpga_lite/18.1/nios2eds/bin/gnu/h-x86_64-mingw32/bin/../lib/gcc/nios2-elf/5.3.0\libgcc.a(eqdf2.o)
                                        0x1f5 (size before relaxing)
 .debug_str     0x00000000000037bc       0x58 c:/intelfpga_lite/18.1/nios2eds/bin/gnu/h-x86_64-mingw32/bin/../lib/gcc/nios2-elf/5.3.0\libgcc.a(gedf2.o)
                                        0x219 (size before relaxing)
 .debug_str     0x0000000000003814       0x34 c:/intelfpga_lite/18.1/nios2eds/bin/gnu/h-x86_64-mingw32/bin/../lib/gcc/nios2-elf/5.3.0\libgcc.a(ledf2.o)
                                        0x219 (size before relaxing)
 .debug_str     0x0000000000003848      0x15b c:/intelfpga_lite/18.1/nios2eds/bin/gnu/h-x86_64-mingw32/bin/../lib/gcc/nios2-elf/5.3.0\libgcc.a(muldf3.o)
                                        0x3a8 (size before relaxing)
 .debug_str     0x00000000000039a3       0x36 c:/intelfpga_lite/18.1/nios2eds/bin/gnu/h-x86_64-mingw32/bin/../lib/gcc/nios2-elf/5.3.0\libgcc.a(subdf3.o)
                                        0x28f (size before relaxing)
 .debug_str     0x00000000000039d9       0x4b c:/intelfpga_lite/18.1/nios2eds/bin/gnu/h-x86_64-mingw32/bin/../lib/gcc/nios2-elf/5.3.0\libgcc.a(fixdfsi.o)
                                        0x211 (size before relaxing)
 .debug_str     0x0000000000003a24       0x69 c:/intelfpga_lite/18.1/nios2eds/bin/gnu/h-x86_64-mingw32/bin/../lib/gcc/nios2-elf/5.3.0\libgcc.a(floatsidf.o)
                                        0x228 (size before relaxing)
 .debug_str     0x0000000000003a8d       0x40 c:/intelfpga_lite/18.1/nios2eds/bin/gnu/h-x86_64-mingw32/bin/../lib/gcc/nios2-elf/5.3.0\libgcc.a(floatunsidf.o)
                                        0x225 (size before relaxing)
 .debug_str     0x0000000000003acd      0x1c9 c:/intelfpga_lite/18.1/nios2eds/bin/gnu/h-x86_64-mingw32/bin/../lib/gcc/nios2-elf/5.3.0\libgcc.a(_clz.o)
 .debug_str     0x0000000000003acd        0x9 c:/intelfpga_lite/18.1/nios2eds/bin/gnu/h-x86_64-mingw32/bin/../lib/gcc/nios2-elf/5.3.0\libgcc.a(_clzsi2.o)
                                        0x1e6 (size before relaxing)
 .debug_str     0x0000000000003ad6       0xa3 ../FPGAEncrypt_bsp/\libucosii_bsp.a(alt_fstat.o)
                                        0x31a (size before relaxing)
 .debug_str     0x0000000000003b79       0x15 ../FPGAEncrypt_bsp/\libucosii_bsp.a(alt_isatty.o)
                                        0x322 (size before relaxing)
 .debug_str     0x0000000000003b8e       0x14 ../FPGAEncrypt_bsp/\libucosii_bsp.a(alt_lseek.o)
                                        0x23f (size before relaxing)
 .debug_str     0x0000000000003ba2       0x6e ../FPGAEncrypt_bsp/\libucosii_bsp.a(alt_main.o)
                                        0x25e (size before relaxing)
 .debug_str     0x0000000000003c10       0x98 ../FPGAEncrypt_bsp/\libucosii_bsp.a(alt_sbrk.o)
                                        0x1d2 (size before relaxing)
 .debug_str     0x0000000000003ca8      0x236 ../FPGAEncrypt_bsp/\libucosii_bsp.a(alt_env_lock.o)
                                        0x7c6 (size before relaxing)
 .debug_str     0x0000000000003ede       0x24 ../FPGAEncrypt_bsp/\libucosii_bsp.a(alt_malloc_lock.o)
                                        0x828 (size before relaxing)
 .debug_str     0x0000000000003f02      0x4ed ../FPGAEncrypt_bsp/\libucosii_bsp.a(os_core.o)
                                        0x954 (size before relaxing)
 .debug_str     0x00000000000043ef      0x2e5 ../FPGAEncrypt_bsp/\libucosii_bsp.a(os_dbg.o)
                                        0x8c3 (size before relaxing)
 .debug_str     0x00000000000046d4      0x136 ../FPGAEncrypt_bsp/\libucosii_bsp.a(os_flag.o)
                                        0x5f0 (size before relaxing)
 .debug_str     0x000000000000480a       0xcf ../FPGAEncrypt_bsp/\libucosii_bsp.a(os_mem.o)
                                        0x2f9 (size before relaxing)
 .debug_str     0x00000000000048d9       0xc0 ../FPGAEncrypt_bsp/\libucosii_bsp.a(os_q.o)
                                        0x573 (size before relaxing)
 .debug_str     0x0000000000004999       0x77 ../FPGAEncrypt_bsp/\libucosii_bsp.a(os_sem.o)
                                        0x4fc (size before relaxing)
 .debug_str     0x0000000000004a10       0xfa ../FPGAEncrypt_bsp/\libucosii_bsp.a(os_task.o)
                                        0x5ff (size before relaxing)
 .debug_str     0x0000000000004b0a       0x5d ../FPGAEncrypt_bsp/\libucosii_bsp.a(os_time.o)
                                        0x49f (size before relaxing)
 .debug_str     0x0000000000004b67      0x57a ../FPGAEncrypt_bsp/\libucosii_bsp.a(alt_sys_init.o)
                                        0xcca (size before relaxing)
 .debug_str     0x00000000000050e1       0xac ../FPGAEncrypt_bsp/\libucosii_bsp.a(altera_avalon_jtag_uart_fd.o)
                                        0x492 (size before relaxing)
 .debug_str     0x000000000000518d       0xee ../FPGAEncrypt_bsp/\libucosii_bsp.a(altera_avalon_jtag_uart_init.o)
                                        0x459 (size before relaxing)
 .debug_str     0x000000000000527b       0x4a ../FPGAEncrypt_bsp/\libucosii_bsp.a(altera_avalon_jtag_uart_ioctl.o)
                                        0x381 (size before relaxing)
 .debug_str     0x00000000000052c5       0x63 ../FPGAEncrypt_bsp/\libucosii_bsp.a(altera_avalon_jtag_uart_read.o)
                                        0x3f4 (size before relaxing)
 .debug_str     0x0000000000005328       0x4a ../FPGAEncrypt_bsp/\libucosii_bsp.a(altera_avalon_jtag_uart_write.o)
                                        0x3f5 (size before relaxing)
 .debug_str     0x0000000000005372       0x66 ../FPGAEncrypt_bsp/\libucosii_bsp.a(altera_avalon_timer_sc.o)
                                        0x249 (size before relaxing)
 .debug_str     0x00000000000053d8      0x294 ../FPGAEncrypt_bsp/\libucosii_bsp.a(altera_epcq_controller2.o)
                                        0x5dc (size before relaxing)
 .debug_str     0x000000000000566c      0x949 ../FPGAEncrypt_bsp/\libucosii_bsp.a(altera_msgdma.o)
                                        0xdeb (size before relaxing)
 .debug_str     0x0000000000005fb5       0xb6 ../FPGAEncrypt_bsp/\libucosii_bsp.a(altera_remote_update.o)
                                        0x2c7 (size before relaxing)
 .debug_str     0x000000000000606b      0xaaf ../FPGAEncrypt_bsp/\libucosii_bsp.a(ins_tse_mac.o)
                                       0x1afd (size before relaxing)
 .debug_str     0x0000000000006b1a       0x1e ../FPGAEncrypt_bsp/\libucosii_bsp.a(alt_iniche_close.o)
                                        0x173 (size before relaxing)
 .debug_str     0x0000000000006b38       0x48 ../FPGAEncrypt_bsp/\libucosii_bsp.a(alt_iniche_dev.o)
                                        0x59e (size before relaxing)
 .debug_str     0x0000000000006b80       0x1d ../FPGAEncrypt_bsp/\libucosii_bsp.a(alt_iniche_read.o)
                                        0x178 (size before relaxing)
 .debug_str     0x0000000000006b9d       0x1e ../FPGAEncrypt_bsp/\libucosii_bsp.a(alt_iniche_write.o)
                                        0x17a (size before relaxing)
 .debug_str     0x0000000000006bbb       0x92 ../FPGAEncrypt_bsp/\libucosii_bsp.a(ipnet.o)
                                        0x582 (size before relaxing)
 .debug_str     0x0000000000006c4d       0x77 ../FPGAEncrypt_bsp/\libucosii_bsp.a(ipstart.o)
                                        0x562 (size before relaxing)
 .debug_str     0x0000000000006cc4      0x580 ../FPGAEncrypt_bsp/\libucosii_bsp.a(igmp_cmn.o)
                                        0xa98 (size before relaxing)
 .debug_str     0x0000000000007244      0x25c ../FPGAEncrypt_bsp/\libucosii_bsp.a(bsdsock.o)
                                        0x80d (size before relaxing)
 .debug_str     0x00000000000074a0       0x35 ../FPGAEncrypt_bsp/\libucosii_bsp.a(cksum.o)
                                        0x195 (size before relaxing)
 .debug_str     0x00000000000074d5      0x11b ../FPGAEncrypt_bsp/\libucosii_bsp.a(in_utils.o)
                                        0x2e0 (size before relaxing)
 .debug_str     0x00000000000075f0       0xaa ../FPGAEncrypt_bsp/\libucosii_bsp.a(netmain.o)
                                        0x2d1 (size before relaxing)
 .debug_str     0x000000000000769a      0x102 ../FPGAEncrypt_bsp/\libucosii_bsp.a(tk_crnos.o)
                                        0x4e0 (size before relaxing)
 .debug_str     0x000000000000779c      0x2e0 ../FPGAEncrypt_bsp/\libucosii_bsp.a(dhcpclnt.o)
                                        0x7eb (size before relaxing)
 .debug_str     0x0000000000007a7c       0x2a ../FPGAEncrypt_bsp/\libucosii_bsp.a(dhcputil.o)
                                        0x17e (size before relaxing)
 .debug_str     0x0000000000007aa6       0xcd ../FPGAEncrypt_bsp/\libucosii_bsp.a(pktalloc.o)
                                        0x5ae (size before relaxing)
 .debug_str     0x0000000000007b73       0x2d ../FPGAEncrypt_bsp/\libucosii_bsp.a(q.o)
                                        0x1b5 (size before relaxing)
 .debug_str     0x0000000000007ba0       0x51 ../FPGAEncrypt_bsp/\libucosii_bsp.a(udp_open.o)
                                        0x550 (size before relaxing)
 .debug_str     0x0000000000007bf1       0xb2 ../FPGAEncrypt_bsp/\libucosii_bsp.a(brdutils.o)
                                        0x61d (size before relaxing)
 .debug_str     0x0000000000007ca3       0xca ../FPGAEncrypt_bsp/\libucosii_bsp.a(osportco.o)
                                        0x368 (size before relaxing)
 .debug_str     0x0000000000007d6d       0xe0 ../FPGAEncrypt_bsp/\libucosii_bsp.a(targnios.o)
                                        0x349 (size before relaxing)
 .debug_str     0x0000000000007e4d      0x804 ../FPGAEncrypt_bsp/\libucosii_bsp.a(nptcp.o)
                                        0xfa9 (size before relaxing)
 .debug_str     0x0000000000008651       0x92 ../FPGAEncrypt_bsp/\libucosii_bsp.a(rawsock.o)
                                        0x7cc (size before relaxing)
 .debug_str     0x00000000000086e3      0x10e ../FPGAEncrypt_bsp/\libucosii_bsp.a(sockcall.o)
                                        0x9b1 (size before relaxing)
 .debug_str     0x00000000000087f1      0x161 ../FPGAEncrypt_bsp/\libucosii_bsp.a(socket.o)
                                        0x9f0 (size before relaxing)
 .debug_str     0x0000000000008952      0x150 ../FPGAEncrypt_bsp/\libucosii_bsp.a(socket2.o)
                                        0x81a (size before relaxing)
 .debug_str     0x0000000000008aa2       0x95 ../FPGAEncrypt_bsp/\libucosii_bsp.a(soselect.o)
                                        0x7a8 (size before relaxing)
 .debug_str     0x0000000000008b37      0x143 ../FPGAEncrypt_bsp/\libucosii_bsp.a(tcp_in.o)
                                        0xe89 (size before relaxing)
 .debug_str     0x0000000000008c7a       0x99 ../FPGAEncrypt_bsp/\libucosii_bsp.a(tcp_out.o)
                                        0xdd1 (size before relaxing)
 .debug_str     0x0000000000008d13       0x8c ../FPGAEncrypt_bsp/\libucosii_bsp.a(tcp_subr.o)
                                        0xdbe (size before relaxing)
 .debug_str     0x0000000000008d9f       0x72 ../FPGAEncrypt_bsp/\libucosii_bsp.a(tcp_timr.o)
                                        0xd9d (size before relaxing)
 .debug_str     0x0000000000008e11       0x51 ../FPGAEncrypt_bsp/\libucosii_bsp.a(tcp_usr.o)
                                        0xd65 (size before relaxing)
 .debug_str     0x0000000000008e62       0x21 ../FPGAEncrypt_bsp/\libucosii_bsp.a(tcpport.o)
                                        0x170 (size before relaxing)
 .debug_str     0x0000000000008e83       0x99 ../FPGAEncrypt_bsp/\libucosii_bsp.a(udpsock.o)
                                        0x7f1 (size before relaxing)
 .debug_str     0x0000000000008f1c       0x48 ../FPGAEncrypt_bsp/\libucosii_bsp.a(alt_alarm_start.o)
                                        0x27c (size before relaxing)
 .debug_str     0x0000000000008f64       0x42 ../FPGAEncrypt_bsp/\libucosii_bsp.a(alt_busy_sleep.o)
                                        0x169 (size before relaxing)
 .debug_str     0x0000000000008fa6       0x25 ../FPGAEncrypt_bsp/\libucosii_bsp.a(alt_close.o)
                                        0x243 (size before relaxing)
 .debug_str     0x0000000000008fcb       0x2c ../FPGAEncrypt_bsp/\libucosii_bsp.a(alt_dcache_flush.o)
                                        0x159 (size before relaxing)
 .debug_str     0x0000000000008ff7       0x49 ../FPGAEncrypt_bsp/\libucosii_bsp.a(alt_dev.o)
                                        0x3a7 (size before relaxing)
 .debug_str     0x0000000000009040       0x34 ../FPGAEncrypt_bsp/\libucosii_bsp.a(alt_dev_llist_insert.o)
                                        0x1b0 (size before relaxing)
 .debug_str     0x0000000000009074       0x48 ../FPGAEncrypt_bsp/\libucosii_bsp.a(alt_do_ctors.o)
                                         0xb4 (size before relaxing)
 .debug_str     0x00000000000090bc       0x4c ../FPGAEncrypt_bsp/\libucosii_bsp.a(alt_do_dtors.o)
                                         0xb3 (size before relaxing)
 .debug_str     0x0000000000009108       0x14 ../FPGAEncrypt_bsp/\libucosii_bsp.a(alt_errno.o)
                                        0x129 (size before relaxing)
 .debug_str     0x000000000000911c       0x24 ../FPGAEncrypt_bsp/\libucosii_bsp.a(alt_find_dev.o)
                                        0x21a (size before relaxing)
 .debug_str     0x0000000000009140       0x3f ../FPGAEncrypt_bsp/\libucosii_bsp.a(alt_flash_dev.o)
                                        0x331 (size before relaxing)
 .debug_str     0x000000000000917f       0xb7 ../FPGAEncrypt_bsp/\libucosii_bsp.a(alt_iic.o)
                                        0x23c (size before relaxing)
 .debug_str     0x0000000000009236       0x4c ../FPGAEncrypt_bsp/\libucosii_bsp.a(alt_iic_isr_register.o)
                                        0x1e6 (size before relaxing)
 .debug_str     0x0000000000009282       0x56 ../FPGAEncrypt_bsp/\libucosii_bsp.a(alt_io_redirect.o)
                                        0x344 (size before relaxing)
 .debug_str     0x00000000000092d8       0x3a ../FPGAEncrypt_bsp/\libucosii_bsp.a(alt_irq_handler.o)
                                        0x1bd (size before relaxing)
 .debug_str     0x0000000000009312       0x17 ../FPGAEncrypt_bsp/\libucosii_bsp.a(alt_irq_vars.o)
                                        0x138 (size before relaxing)
 .debug_str     0x0000000000009329       0x29 ../FPGAEncrypt_bsp/\libucosii_bsp.a(alt_open.o)
                                        0x271 (size before relaxing)
 .debug_str     0x0000000000009352       0x2c ../FPGAEncrypt_bsp/\libucosii_bsp.a(alt_printf.o)
                                         0xde (size before relaxing)
 .debug_str     0x000000000000937e       0x22 ../FPGAEncrypt_bsp/\libucosii_bsp.a(alt_putchar.o)
                                        0x4e9 (size before relaxing)
 .debug_str     0x00000000000093a0       0x1c ../FPGAEncrypt_bsp/\libucosii_bsp.a(alt_read.o)
                                        0x32e (size before relaxing)
 .debug_str     0x00000000000093bc       0x28 ../FPGAEncrypt_bsp/\libucosii_bsp.a(alt_release_fd.o)
                                        0x223 (size before relaxing)
 .debug_str     0x00000000000093e4       0x2c ../FPGAEncrypt_bsp/\libucosii_bsp.a(alt_remap_cached.o)
                                        0x153 (size before relaxing)
 .debug_str     0x0000000000009410       0x4a ../FPGAEncrypt_bsp/\libucosii_bsp.a(alt_tick.o)
                                        0x25d (size before relaxing)
 .debug_str     0x000000000000945a       0x2e ../FPGAEncrypt_bsp/\libucosii_bsp.a(alt_uncached_free.o)
                                        0x155 (size before relaxing)
 .debug_str     0x0000000000009488       0x49 ../FPGAEncrypt_bsp/\libucosii_bsp.a(alt_uncached_malloc.o)
                                        0x17c (size before relaxing)
 .debug_str     0x00000000000094d1       0x1e ../FPGAEncrypt_bsp/\libucosii_bsp.a(alt_write.o)
                                        0x330 (size before relaxing)
 .debug_str     0x00000000000094ef       0x3b ../FPGAEncrypt_bsp/\libucosii_bsp.a(altera_nios2_gen2_irq.o)
                                        0x15a (size before relaxing)
 .debug_str     0x000000000000952a       0xd5 ../FPGAEncrypt_bsp/\libucosii_bsp.a(os_cpu_c.o)
                                        0x83b (size before relaxing)
 .debug_str     0x00000000000095ff      0xeff ../FPGAEncrypt_bsp/\libucosii_bsp.a(altera_avalon_tse.o)
                                       0x1ecd (size before relaxing)
 .debug_str     0x000000000000a4fe       0xb8 ../FPGAEncrypt_bsp/\libucosii_bsp.a(allports.o)
                                        0x61b (size before relaxing)
 .debug_str     0x000000000000a5b6       0xa6 ../FPGAEncrypt_bsp/\libucosii_bsp.a(timeouts.o)
                                        0x228 (size before relaxing)
 .debug_str     0x000000000000a65c       0x39 ../FPGAEncrypt_bsp/\libucosii_bsp.a(tk_misc.o)
                                        0x1a4 (size before relaxing)
 .debug_str     0x000000000000a695       0x1e ../FPGAEncrypt_bsp/\libucosii_bsp.a(alt_iniche_fcntl.o)
                                        0x1ac (size before relaxing)
 .debug_str     0x000000000000a6b3      0x1e8 ../FPGAEncrypt_bsp/\libucosii_bsp.a(et_arp.o)
                                        0x70e (size before relaxing)
 .debug_str     0x000000000000a89b       0x44 ../FPGAEncrypt_bsp/\libucosii_bsp.a(iface.o)
                                        0x707 (size before relaxing)
 .debug_str     0x000000000000a8df      0x292 ../FPGAEncrypt_bsp/\libucosii_bsp.a(ip.o)
                                        0x9a2 (size before relaxing)
 .debug_str     0x000000000000ab71      0x420 ../FPGAEncrypt_bsp/\libucosii_bsp.a(ip_reasm.o)
                                        0xa85 (size before relaxing)
 .debug_str     0x000000000000af91       0x65 ../FPGAEncrypt_bsp/\libucosii_bsp.a(ipdemux.o)
                                        0x67d (size before relaxing)
 .debug_str     0x000000000000aff6       0x43 ../FPGAEncrypt_bsp/\libucosii_bsp.a(ipmc.o)
                                        0x4e2 (size before relaxing)
 .debug_str     0x000000000000b039       0x48 ../FPGAEncrypt_bsp/\libucosii_bsp.a(ipport.o)
                                        0x1ea (size before relaxing)
 .debug_str     0x000000000000b081       0xa1 ../FPGAEncrypt_bsp/\libucosii_bsp.a(ipraw.o)
                                        0x724 (size before relaxing)
 .debug_str     0x000000000000b122       0xa4 ../FPGAEncrypt_bsp/\libucosii_bsp.a(iproute.o)
                                        0x760 (size before relaxing)
 .debug_str     0x000000000000b1c6       0xe0 ../FPGAEncrypt_bsp/\libucosii_bsp.a(udp.o)
                                        0x7f4 (size before relaxing)
 .debug_str     0x000000000000b2a6       0x24 ../FPGAEncrypt_bsp/\libucosii_bsp.a(igmp.o)
                                        0x983 (size before relaxing)
 .debug_str     0x000000000000b2ca       0xbc ../FPGAEncrypt_bsp/\libucosii_bsp.a(igmp2.o)
                                        0xa2e (size before relaxing)
 .debug_str     0x000000000000b386       0x79 ../FPGAEncrypt_bsp/\libucosii_bsp.a(ipopt.o)
                                        0x76b (size before relaxing)
 .debug_str     0x000000000000b3ff       0x87 ../FPGAEncrypt_bsp/\libucosii_bsp.a(u_mctest.o)
                                        0x5af (size before relaxing)
 .debug_str     0x000000000000b486       0x5a ../FPGAEncrypt_bsp/\libucosii_bsp.a(dhcsetup.o)
                                        0x4cb (size before relaxing)
 .debug_str     0x000000000000b4e0      0x141 ../FPGAEncrypt_bsp/\libucosii_bsp.a(memdev.o)
                                        0x2df (size before relaxing)
 .debug_str     0x000000000000b621       0xba ../FPGAEncrypt_bsp/\libucosii_bsp.a(parseip.o)
                                        0x2a5 (size before relaxing)
 .debug_str     0x000000000000b6db       0x4d ../FPGAEncrypt_bsp/\libucosii_bsp.a(tcpcksum.o)
                                        0x25d (size before relaxing)
 .debug_str     0x000000000000b728       0xdb ../FPGAEncrypt_bsp/\libucosii_bsp.a(in_pcb.o)
                                        0x7f7 (size before relaxing)
 .debug_str     0x000000000000b803      0x23b ../FPGAEncrypt_bsp/\libucosii_bsp.a(vfsfiles.o)
                                        0x493 (size before relaxing)
 .debug_str     0x000000000000ba3e       0x22 ../FPGAEncrypt_bsp/\libucosii_bsp.a(vfsport.o)
                                        0x171 (size before relaxing)
 .debug_str     0x000000000000ba60       0x1e ../FPGAEncrypt_bsp/\libucosii_bsp.a(alt_fcntl.o)
                                        0x358 (size before relaxing)
 .debug_str     0x000000000000ba7e       0x26 ../FPGAEncrypt_bsp/\libucosii_bsp.a(alt_find_file.o)
                                        0x228 (size before relaxing)
 .debug_str     0x000000000000baa4       0x30 ../FPGAEncrypt_bsp/\libucosii_bsp.a(alt_get_fd.o)
                                        0x2c6 (size before relaxing)
 .debug_str     0x000000000000bad4      0x48b ../FPGAEncrypt_bsp/\libucosii_bsp.a(alt_instruction_exception_entry.o)
                                        0x59e (size before relaxing)
 .debug_str     0x000000000000bf5f       0x1c ../FPGAEncrypt_bsp/\libucosii_bsp.a(alt_usleep.o)
                                        0x1b4 (size before relaxing)
 .debug_str     0x000000000000bf7b      0x26e ../FPGAEncrypt_bsp/\libucosii_bsp.a(icmp.o)
                                        0x7d9 (size before relaxing)
 .debug_str     0x000000000000c1e9       0x7e c:/intelfpga_lite/18.1/nios2eds/bin/gnu/h-x86_64-mingw32/bin/../lib/gcc/nios2-elf/5.3.0/../../../../../H-x86_64-mingw32/nios2-elf/lib\libc.a(lib_a-atexit.o)
                                        0x207 (size before relaxing)
 .debug_str     0x000000000000c267       0x56 c:/intelfpga_lite/18.1/nios2eds/bin/gnu/h-x86_64-mingw32/bin/../lib/gcc/nios2-elf/5.3.0/../../../../../H-x86_64-mingw32/nios2-elf/lib\libc.a(lib_a-atoi.o)
                                        0x58e (size before relaxing)
 .debug_str     0x000000000000c2bd       0x49 c:/intelfpga_lite/18.1/nios2eds/bin/gnu/h-x86_64-mingw32/bin/../lib/gcc/nios2-elf/5.3.0/../../../../../H-x86_64-mingw32/nios2-elf/lib\libc.a(lib_a-exit.o)
                                        0x5a4 (size before relaxing)
 .debug_str     0x000000000000c306       0x56 c:/intelfpga_lite/18.1/nios2eds/bin/gnu/h-x86_64-mingw32/bin/../lib/gcc/nios2-elf/5.3.0/../../../../../H-x86_64-mingw32/nios2-elf/lib\libc.a(lib_a-malign.o)
                                        0x5a7 (size before relaxing)
 .debug_str     0x000000000000c35c       0x13 c:/intelfpga_lite/18.1/nios2eds/bin/gnu/h-x86_64-mingw32/bin/../lib/gcc/nios2-elf/5.3.0/../../../../../H-x86_64-mingw32/nios2-elf/lib\libc.a(lib_a-malignr.o)
                                        0x625 (size before relaxing)
 .debug_str     0x000000000000c36f       0x3f c:/intelfpga_lite/18.1/nios2eds/bin/gnu/h-x86_64-mingw32/bin/../lib/gcc/nios2-elf/5.3.0/../../../../../H-x86_64-mingw32/nios2-elf/lib\libc.a(lib_a-malloc.o)
                                        0x5af (size before relaxing)
 .debug_str     0x000000000000c3ae       0x41 c:/intelfpga_lite/18.1/nios2eds/bin/gnu/h-x86_64-mingw32/bin/../lib/gcc/nios2-elf/5.3.0/../../../../../H-x86_64-mingw32/nios2-elf/lib\libc.a(lib_a-strcpy.o)
                                        0x1e5 (size before relaxing)
 .debug_str     0x000000000000c3ef       0x43 c:/intelfpga_lite/18.1/nios2eds/bin/gnu/h-x86_64-mingw32/bin/../lib/gcc/nios2-elf/5.3.0/../../../../../H-x86_64-mingw32/nios2-elf/lib\libc.a(lib_a-strncmp.o)
                                        0x1cc (size before relaxing)
 .debug_str     0x000000000000c432       0x43 c:/intelfpga_lite/18.1/nios2eds/bin/gnu/h-x86_64-mingw32/bin/../lib/gcc/nios2-elf/5.3.0/../../../../../H-x86_64-mingw32/nios2-elf/lib\libc.a(lib_a-strncpy.o)
                                        0x1f4 (size before relaxing)
 .debug_str     0x000000000000c475       0x4f c:/intelfpga_lite/18.1/nios2eds/bin/gnu/h-x86_64-mingw32/bin/../lib/gcc/nios2-elf/5.3.0/../../../../../H-x86_64-mingw32/nios2-elf/lib\libc.a(lib_a-strtol.o)
                                        0x5c1 (size before relaxing)
 .debug_str     0x000000000000c4c4       0x59 c:/intelfpga_lite/18.1/nios2eds/bin/gnu/h-x86_64-mingw32/bin/../lib/gcc/nios2-elf/5.3.0/../../../../../H-x86_64-mingw32/nios2-elf/lib\libc.a(lib_a-vprintf.o)
                                        0x5cb (size before relaxing)
 .debug_str     0x000000000000c51d       0x50 c:/intelfpga_lite/18.1/nios2eds/bin/gnu/h-x86_64-mingw32/bin/../lib/gcc/nios2-elf/5.3.0/../../../../../H-x86_64-mingw32/nios2-elf/lib\libc.a(lib_a-vsprintf.o)
                                        0x5d9 (size before relaxing)
 .debug_str     0x000000000000c56d       0x3c c:/intelfpga_lite/18.1/nios2eds/bin/gnu/h-x86_64-mingw32/bin/../lib/gcc/nios2-elf/5.3.0/../../../../../H-x86_64-mingw32/nios2-elf/lib\libc.a(lib_a-__atexit.o)
                                        0x5dc (size before relaxing)
 .debug_str     0x000000000000c5a9       0x55 c:/intelfpga_lite/18.1/nios2eds/bin/gnu/h-x86_64-mingw32/bin/../lib/gcc/nios2-elf/5.3.0/../../../../../H-x86_64-mingw32/nios2-elf/lib\libc.a(lib_a-__call_atexit.o)
                                        0x5c8 (size before relaxing)
 .debug_str     0x000000000000c5fe       0x3e c:/intelfpga_lite/18.1/nios2eds/bin/gnu/h-x86_64-mingw32/bin/../lib/gcc/nios2-elf/5.3.0/../../../../../H-x86_64-mingw32/nios2-elf/lib\libc.a(lib_a-vfprintfr_1.o)
                                        0x5cb (size before relaxing)
 .debug_str     0x000000000000c63c       0x2a ../FPGAEncrypt_bsp/\libucosii_bsp.a(alt_exit.o)
                                        0x191 (size before relaxing)

.debug_loc      0x0000000000000000    0x1f259
 *(.debug_loc)
 .debug_loc     0x0000000000000000      0x115 c:/intelfpga_lite/18.1/nios2eds/bin/gnu/h-x86_64-mingw32/bin/../lib/gcc/nios2-elf/5.3.0/../../../../../H-x86_64-mingw32/nios2-elf/lib\libc.a(lib_a-fprintf.o)
 .debug_loc     0x0000000000000115      0x2b2 c:/intelfpga_lite/18.1/nios2eds/bin/gnu/h-x86_64-mingw32/bin/../lib/gcc/nios2-elf/5.3.0/../../../../../H-x86_64-mingw32/nios2-elf/lib\libc.a(lib_a-fwrite.o)
 .debug_loc     0x00000000000003c7      0x1a2 c:/intelfpga_lite/18.1/nios2eds/bin/gnu/h-x86_64-mingw32/bin/../lib/gcc/nios2-elf/5.3.0/../../../../../H-x86_64-mingw32/nios2-elf/lib\libc.a(lib_a-getc.o)
 .debug_loc     0x0000000000000569      0x266 c:/intelfpga_lite/18.1/nios2eds/bin/gnu/h-x86_64-mingw32/bin/../lib/gcc/nios2-elf/5.3.0/../../../../../H-x86_64-mingw32/nios2-elf/lib\libc.a(lib_a-memcpy.o)
 .debug_loc     0x00000000000007cf      0x308 c:/intelfpga_lite/18.1/nios2eds/bin/gnu/h-x86_64-mingw32/bin/../lib/gcc/nios2-elf/5.3.0/../../../../../H-x86_64-mingw32/nios2-elf/lib\libc.a(lib_a-memmove.o)
 .debug_loc     0x0000000000000ad7      0x1a6 c:/intelfpga_lite/18.1/nios2eds/bin/gnu/h-x86_64-mingw32/bin/../lib/gcc/nios2-elf/5.3.0/../../../../../H-x86_64-mingw32/nios2-elf/lib\libc.a(lib_a-memset.o)
 .debug_loc     0x0000000000000c7d       0xbb c:/intelfpga_lite/18.1/nios2eds/bin/gnu/h-x86_64-mingw32/bin/../lib/gcc/nios2-elf/5.3.0/../../../../../H-x86_64-mingw32/nios2-elf/lib\libc.a(lib_a-perror.o)
 .debug_loc     0x0000000000000d38       0xd3 c:/intelfpga_lite/18.1/nios2eds/bin/gnu/h-x86_64-mingw32/bin/../lib/gcc/nios2-elf/5.3.0/../../../../../H-x86_64-mingw32/nios2-elf/lib\libc.a(lib_a-printf.o)
 .debug_loc     0x0000000000000e0b      0x224 c:/intelfpga_lite/18.1/nios2eds/bin/gnu/h-x86_64-mingw32/bin/../lib/gcc/nios2-elf/5.3.0/../../../../../H-x86_64-mingw32/nios2-elf/lib\libc.a(lib_a-putc.o)
 .debug_loc     0x000000000000102f       0x81 c:/intelfpga_lite/18.1/nios2eds/bin/gnu/h-x86_64-mingw32/bin/../lib/gcc/nios2-elf/5.3.0/../../../../../H-x86_64-mingw32/nios2-elf/lib\libc.a(lib_a-putchar.o)
 .debug_loc     0x00000000000010b0      0x117 c:/intelfpga_lite/18.1/nios2eds/bin/gnu/h-x86_64-mingw32/bin/../lib/gcc/nios2-elf/5.3.0/../../../../../H-x86_64-mingw32/nios2-elf/lib\libc.a(lib_a-puts.o)
 .debug_loc     0x00000000000011c7       0xf2 c:/intelfpga_lite/18.1/nios2eds/bin/gnu/h-x86_64-mingw32/bin/../lib/gcc/nios2-elf/5.3.0/../../../../../H-x86_64-mingw32/nios2-elf/lib\libc.a(lib_a-rget.o)
 .debug_loc     0x00000000000012b9      0x106 c:/intelfpga_lite/18.1/nios2eds/bin/gnu/h-x86_64-mingw32/bin/../lib/gcc/nios2-elf/5.3.0/../../../../../H-x86_64-mingw32/nios2-elf/lib\libc.a(lib_a-sprintf.o)
 .debug_loc     0x00000000000013bf      0x140 c:/intelfpga_lite/18.1/nios2eds/bin/gnu/h-x86_64-mingw32/bin/../lib/gcc/nios2-elf/5.3.0/../../../../../H-x86_64-mingw32/nios2-elf/lib\libc.a(lib_a-strchr.o)
 .debug_loc     0x00000000000014ff      0x638 c:/intelfpga_lite/18.1/nios2eds/bin/gnu/h-x86_64-mingw32/bin/../lib/gcc/nios2-elf/5.3.0/../../../../../H-x86_64-mingw32/nios2-elf/lib\libc.a(lib_a-strerror.o)
 .debug_loc     0x0000000000001b37       0x47 c:/intelfpga_lite/18.1/nios2eds/bin/gnu/h-x86_64-mingw32/bin/../lib/gcc/nios2-elf/5.3.0/../../../../../H-x86_64-mingw32/nios2-elf/lib\libc.a(lib_a-strlen.o)
 .debug_loc     0x0000000000001b7e      0xb3a c:/intelfpga_lite/18.1/nios2eds/bin/gnu/h-x86_64-mingw32/bin/../lib/gcc/nios2-elf/5.3.0/../../../../../H-x86_64-mingw32/nios2-elf/lib\libc.a(lib_a-strstr.o)
 .debug_loc     0x00000000000026b8     0x30a2 c:/intelfpga_lite/18.1/nios2eds/bin/gnu/h-x86_64-mingw32/bin/../lib/gcc/nios2-elf/5.3.0/../../../../../H-x86_64-mingw32/nios2-elf/lib\libc.a(lib_a-svfprintf.o)
 .debug_loc     0x000000000000575a     0x30cf c:/intelfpga_lite/18.1/nios2eds/bin/gnu/h-x86_64-mingw32/bin/../lib/gcc/nios2-elf/5.3.0/../../../../../H-x86_64-mingw32/nios2-elf/lib\libc.a(lib_a-vfprintf.o)
 .debug_loc     0x0000000000008829      0x1b2 c:/intelfpga_lite/18.1/nios2eds/bin/gnu/h-x86_64-mingw32/bin/../lib/gcc/nios2-elf/5.3.0/../../../../../H-x86_64-mingw32/nios2-elf/lib\libc.a(lib_a-wbuf.o)
 .debug_loc     0x00000000000089db       0xa2 c:/intelfpga_lite/18.1/nios2eds/bin/gnu/h-x86_64-mingw32/bin/../lib/gcc/nios2-elf/5.3.0/../../../../../H-x86_64-mingw32/nios2-elf/lib\libc.a(lib_a-wsetup.o)
 .debug_loc     0x0000000000008a7d     0x2855 c:/intelfpga_lite/18.1/nios2eds/bin/gnu/h-x86_64-mingw32/bin/../lib/gcc/nios2-elf/5.3.0/../../../../../H-x86_64-mingw32/nios2-elf/lib\libc.a(lib_a-dtoa.o)
 .debug_loc     0x000000000000b2d2      0x36f c:/intelfpga_lite/18.1/nios2eds/bin/gnu/h-x86_64-mingw32/bin/../lib/gcc/nios2-elf/5.3.0/../../../../../H-x86_64-mingw32/nios2-elf/lib\libc.a(lib_a-fflush.o)
 .debug_loc     0x000000000000b641      0x2ee c:/intelfpga_lite/18.1/nios2eds/bin/gnu/h-x86_64-mingw32/bin/../lib/gcc/nios2-elf/5.3.0/../../../../../H-x86_64-mingw32/nios2-elf/lib\libc.a(lib_a-findfp.o)
 .debug_loc     0x000000000000b92f      0x126 c:/intelfpga_lite/18.1/nios2eds/bin/gnu/h-x86_64-mingw32/bin/../lib/gcc/nios2-elf/5.3.0/../../../../../H-x86_64-mingw32/nios2-elf/lib\libc.a(lib_a-fputc.o)
 .debug_loc     0x000000000000ba55      0x126 c:/intelfpga_lite/18.1/nios2eds/bin/gnu/h-x86_64-mingw32/bin/../lib/gcc/nios2-elf/5.3.0/../../../../../H-x86_64-mingw32/nios2-elf/lib\libc.a(lib_a-fputs.o)
 .debug_loc     0x000000000000bb7b      0x4e7 c:/intelfpga_lite/18.1/nios2eds/bin/gnu/h-x86_64-mingw32/bin/../lib/gcc/nios2-elf/5.3.0/../../../../../H-x86_64-mingw32/nios2-elf/lib\libc.a(lib_a-freer.o)
 .debug_loc     0x000000000000c062      0x5d7 c:/intelfpga_lite/18.1/nios2eds/bin/gnu/h-x86_64-mingw32/bin/../lib/gcc/nios2-elf/5.3.0/../../../../../H-x86_64-mingw32/nios2-elf/lib\libc.a(lib_a-fvwrite.o)
 .debug_loc     0x000000000000c639      0x25b c:/intelfpga_lite/18.1/nios2eds/bin/gnu/h-x86_64-mingw32/bin/../lib/gcc/nios2-elf/5.3.0/../../../../../H-x86_64-mingw32/nios2-elf/lib\libc.a(lib_a-fwalk.o)
 .debug_loc     0x000000000000c894      0x131 c:/intelfpga_lite/18.1/nios2eds/bin/gnu/h-x86_64-mingw32/bin/../lib/gcc/nios2-elf/5.3.0/../../../../../H-x86_64-mingw32/nios2-elf/lib\libc.a(lib_a-locale.o)
 .debug_loc     0x000000000000c9c5      0x122 c:/intelfpga_lite/18.1/nios2eds/bin/gnu/h-x86_64-mingw32/bin/../lib/gcc/nios2-elf/5.3.0/../../../../../H-x86_64-mingw32/nios2-elf/lib\libc.a(lib_a-makebuf.o)
 .debug_loc     0x000000000000cae7      0xb1b c:/intelfpga_lite/18.1/nios2eds/bin/gnu/h-x86_64-mingw32/bin/../lib/gcc/nios2-elf/5.3.0/../../../../../H-x86_64-mingw32/nios2-elf/lib\libc.a(lib_a-mallocr.o)
 .debug_loc     0x000000000000d602      0x1a1 c:/intelfpga_lite/18.1/nios2eds/bin/gnu/h-x86_64-mingw32/bin/../lib/gcc/nios2-elf/5.3.0/../../../../../H-x86_64-mingw32/nios2-elf/lib\libc.a(lib_a-memchr.o)
 .debug_loc     0x000000000000d7a3      0x126 c:/intelfpga_lite/18.1/nios2eds/bin/gnu/h-x86_64-mingw32/bin/../lib/gcc/nios2-elf/5.3.0/../../../../../H-x86_64-mingw32/nios2-elf/lib\libc.a(lib_a-memcmp.o)
 .debug_loc     0x000000000000d8c9     0x1bee c:/intelfpga_lite/18.1/nios2eds/bin/gnu/h-x86_64-mingw32/bin/../lib/gcc/nios2-elf/5.3.0/../../../../../H-x86_64-mingw32/nios2-elf/lib\libc.a(lib_a-mprec.o)
 .debug_loc     0x000000000000f4b7      0xde4 c:/intelfpga_lite/18.1/nios2eds/bin/gnu/h-x86_64-mingw32/bin/../lib/gcc/nios2-elf/5.3.0/../../../../../H-x86_64-mingw32/nios2-elf/lib\libc.a(lib_a-reallocr.o)
 .debug_loc     0x000000000001029b      0x127 c:/intelfpga_lite/18.1/nios2eds/bin/gnu/h-x86_64-mingw32/bin/../lib/gcc/nios2-elf/5.3.0/../../../../../H-x86_64-mingw32/nios2-elf/lib\libc.a(lib_a-refill.o)
 .debug_loc     0x00000000000103c2       0x2f c:/intelfpga_lite/18.1/nios2eds/bin/gnu/h-x86_64-mingw32/bin/../lib/gcc/nios2-elf/5.3.0/../../../../../H-x86_64-mingw32/nios2-elf/lib\libc.a(lib_a-s_fpclassify.o)
 .debug_loc     0x00000000000103f1       0x58 c:/intelfpga_lite/18.1/nios2eds/bin/gnu/h-x86_64-mingw32/bin/../lib/gcc/nios2-elf/5.3.0/../../../../../H-x86_64-mingw32/nios2-elf/lib\libc.a(lib_a-sbrkr.o)
 .debug_loc     0x0000000000010449      0x33a c:/intelfpga_lite/18.1/nios2eds/bin/gnu/h-x86_64-mingw32/bin/../lib/gcc/nios2-elf/5.3.0/../../../../../H-x86_64-mingw32/nios2-elf/lib\libc.a(lib_a-stdio.o)
 .debug_loc     0x0000000000010783       0xc6 c:/intelfpga_lite/18.1/nios2eds/bin/gnu/h-x86_64-mingw32/bin/../lib/gcc/nios2-elf/5.3.0/../../../../../H-x86_64-mingw32/nios2-elf/lib\libc.a(lib_a-strcmp.o)
 .debug_loc     0x0000000000010849     0x1b2f c:/intelfpga_lite/18.1/nios2eds/bin/gnu/h-x86_64-mingw32/bin/../lib/gcc/nios2-elf/5.3.0/../../../../../H-x86_64-mingw32/nios2-elf/lib\libc.a(lib_a-svfiprintf.o)
 .debug_loc     0x0000000000012378     0x2739 c:/intelfpga_lite/18.1/nios2eds/bin/gnu/h-x86_64-mingw32/bin/../lib/gcc/nios2-elf/5.3.0/../../../../../H-x86_64-mingw32/nios2-elf/lib\libc.a(lib_a-vfiprintf.o)
 .debug_loc     0x0000000000014ab1       0xb0 c:/intelfpga_lite/18.1/nios2eds/bin/gnu/h-x86_64-mingw32/bin/../lib/gcc/nios2-elf/5.3.0/../../../../../H-x86_64-mingw32/nios2-elf/lib\libc.a(lib_a-writer.o)
 .debug_loc     0x0000000000014b61       0x58 c:/intelfpga_lite/18.1/nios2eds/bin/gnu/h-x86_64-mingw32/bin/../lib/gcc/nios2-elf/5.3.0/../../../../../H-x86_64-mingw32/nios2-elf/lib\libc.a(closer.o)
 .debug_loc     0x0000000000014bb9      0x1db c:/intelfpga_lite/18.1/nios2eds/bin/gnu/h-x86_64-mingw32/bin/../lib/gcc/nios2-elf/5.3.0/../../../../../H-x86_64-mingw32/nios2-elf/lib\libc.a(lib_a-callocr.o)
 .debug_loc     0x0000000000014d94      0x199 c:/intelfpga_lite/18.1/nios2eds/bin/gnu/h-x86_64-mingw32/bin/../lib/gcc/nios2-elf/5.3.0/../../../../../H-x86_64-mingw32/nios2-elf/lib\libc.a(lib_a-fclose.o)
 .debug_loc     0x0000000000014f2d      0x2a1 c:/intelfpga_lite/18.1/nios2eds/bin/gnu/h-x86_64-mingw32/bin/../lib/gcc/nios2-elf/5.3.0/../../../../../H-x86_64-mingw32/nios2-elf/lib\libc.a(lib_a-fputwc.o)
 .debug_loc     0x00000000000151ce       0x84 c:/intelfpga_lite/18.1/nios2eds/bin/gnu/h-x86_64-mingw32/bin/../lib/gcc/nios2-elf/5.3.0/../../../../../H-x86_64-mingw32/nios2-elf/lib\libc.a(lib_a-fstatr.o)
 .debug_loc     0x0000000000015252       0x58 c:/intelfpga_lite/18.1/nios2eds/bin/gnu/h-x86_64-mingw32/bin/../lib/gcc/nios2-elf/5.3.0/../../../../../H-x86_64-mingw32/nios2-elf/lib\libc.a(lib_a-isattyr.o)
 .debug_loc     0x00000000000152aa       0xb0 c:/intelfpga_lite/18.1/nios2eds/bin/gnu/h-x86_64-mingw32/bin/../lib/gcc/nios2-elf/5.3.0/../../../../../H-x86_64-mingw32/nios2-elf/lib\libc.a(lib_a-lseekr.o)
 .debug_loc     0x000000000001535a       0xb0 c:/intelfpga_lite/18.1/nios2eds/bin/gnu/h-x86_64-mingw32/bin/../lib/gcc/nios2-elf/5.3.0/../../../../../H-x86_64-mingw32/nios2-elf/lib\libc.a(lib_a-readr.o)
 .debug_loc     0x000000000001540a      0x24e c:/intelfpga_lite/18.1/nios2eds/bin/gnu/h-x86_64-mingw32/bin/../lib/gcc/nios2-elf/5.3.0/../../../../../H-x86_64-mingw32/nios2-elf/lib\libc.a(lib_a-wcrtomb.o)
 .debug_loc     0x0000000000015658       0x8f c:/intelfpga_lite/18.1/nios2eds/bin/gnu/h-x86_64-mingw32/bin/../lib/gcc/nios2-elf/5.3.0/../../../../../H-x86_64-mingw32/nios2-elf/lib\libc.a(lib_a-wctomb_r.o)
 .debug_loc     0x00000000000156e7     0x10ca c:/intelfpga_lite/18.1/nios2eds/bin/gnu/h-x86_64-mingw32/bin/../lib/gcc/nios2-elf/5.3.0\libgcc.a(_udivdi3.o)
 .debug_loc     0x00000000000167b1     0x10ad c:/intelfpga_lite/18.1/nios2eds/bin/gnu/h-x86_64-mingw32/bin/../lib/gcc/nios2-elf/5.3.0\libgcc.a(_umoddi3.o)
 .debug_loc     0x000000000001785e      0x4ce c:/intelfpga_lite/18.1/nios2eds/bin/gnu/h-x86_64-mingw32/bin/../lib/gcc/nios2-elf/5.3.0\libgcc.a(lib2-divmod.o)
 .debug_loc     0x0000000000017d2c     0x16f9 c:/intelfpga_lite/18.1/nios2eds/bin/gnu/h-x86_64-mingw32/bin/../lib/gcc/nios2-elf/5.3.0\libgcc.a(adddf3.o)
 .debug_loc     0x0000000000019425     0x1fc6 c:/intelfpga_lite/18.1/nios2eds/bin/gnu/h-x86_64-mingw32/bin/../lib/gcc/nios2-elf/5.3.0\libgcc.a(divdf3.o)
 .debug_loc     0x000000000001b3eb       0x68 c:/intelfpga_lite/18.1/nios2eds/bin/gnu/h-x86_64-mingw32/bin/../lib/gcc/nios2-elf/5.3.0\libgcc.a(eqdf2.o)
 .debug_loc     0x000000000001b453       0xf9 c:/intelfpga_lite/18.1/nios2eds/bin/gnu/h-x86_64-mingw32/bin/../lib/gcc/nios2-elf/5.3.0\libgcc.a(gedf2.o)
 .debug_loc     0x000000000001b54c      0x163 c:/intelfpga_lite/18.1/nios2eds/bin/gnu/h-x86_64-mingw32/bin/../lib/gcc/nios2-elf/5.3.0\libgcc.a(ledf2.o)
 .debug_loc     0x000000000001b6af     0x100d c:/intelfpga_lite/18.1/nios2eds/bin/gnu/h-x86_64-mingw32/bin/../lib/gcc/nios2-elf/5.3.0\libgcc.a(muldf3.o)
 .debug_loc     0x000000000001c6bc     0x1627 c:/intelfpga_lite/18.1/nios2eds/bin/gnu/h-x86_64-mingw32/bin/../lib/gcc/nios2-elf/5.3.0\libgcc.a(subdf3.o)
 .debug_loc     0x000000000001dce3      0x121 c:/intelfpga_lite/18.1/nios2eds/bin/gnu/h-x86_64-mingw32/bin/../lib/gcc/nios2-elf/5.3.0\libgcc.a(fixdfsi.o)
 .debug_loc     0x000000000001de04      0x175 c:/intelfpga_lite/18.1/nios2eds/bin/gnu/h-x86_64-mingw32/bin/../lib/gcc/nios2-elf/5.3.0\libgcc.a(floatsidf.o)
 .debug_loc     0x000000000001df79      0x19e c:/intelfpga_lite/18.1/nios2eds/bin/gnu/h-x86_64-mingw32/bin/../lib/gcc/nios2-elf/5.3.0\libgcc.a(floatunsidf.o)
 .debug_loc     0x000000000001e117       0x6b c:/intelfpga_lite/18.1/nios2eds/bin/gnu/h-x86_64-mingw32/bin/../lib/gcc/nios2-elf/5.3.0\libgcc.a(_clzsi2.o)
 .debug_loc     0x000000000001e182       0x2c c:/intelfpga_lite/18.1/nios2eds/bin/gnu/h-x86_64-mingw32/bin/../lib/gcc/nios2-elf/5.3.0/../../../../../H-x86_64-mingw32/nios2-elf/lib\libc.a(lib_a-atexit.o)
 .debug_loc     0x000000000001e1ae       0x63 c:/intelfpga_lite/18.1/nios2eds/bin/gnu/h-x86_64-mingw32/bin/../lib/gcc/nios2-elf/5.3.0/../../../../../H-x86_64-mingw32/nios2-elf/lib\libc.a(lib_a-atoi.o)
 .debug_loc     0x000000000001e211       0x1e c:/intelfpga_lite/18.1/nios2eds/bin/gnu/h-x86_64-mingw32/bin/../lib/gcc/nios2-elf/5.3.0/../../../../../H-x86_64-mingw32/nios2-elf/lib\libc.a(lib_a-exit.o)
 .debug_loc     0x000000000001e22f       0x58 c:/intelfpga_lite/18.1/nios2eds/bin/gnu/h-x86_64-mingw32/bin/../lib/gcc/nios2-elf/5.3.0/../../../../../H-x86_64-mingw32/nios2-elf/lib\libc.a(lib_a-malign.o)
 .debug_loc     0x000000000001e287      0x267 c:/intelfpga_lite/18.1/nios2eds/bin/gnu/h-x86_64-mingw32/bin/../lib/gcc/nios2-elf/5.3.0/../../../../../H-x86_64-mingw32/nios2-elf/lib\libc.a(lib_a-malignr.o)
 .debug_loc     0x000000000001e4ee       0x58 c:/intelfpga_lite/18.1/nios2eds/bin/gnu/h-x86_64-mingw32/bin/../lib/gcc/nios2-elf/5.3.0/../../../../../H-x86_64-mingw32/nios2-elf/lib\libc.a(lib_a-malloc.o)
 .debug_loc     0x000000000001e546       0xe8 c:/intelfpga_lite/18.1/nios2eds/bin/gnu/h-x86_64-mingw32/bin/../lib/gcc/nios2-elf/5.3.0/../../../../../H-x86_64-mingw32/nios2-elf/lib\libc.a(lib_a-strcpy.o)
 .debug_loc     0x000000000001e62e       0x9c c:/intelfpga_lite/18.1/nios2eds/bin/gnu/h-x86_64-mingw32/bin/../lib/gcc/nios2-elf/5.3.0/../../../../../H-x86_64-mingw32/nios2-elf/lib\libc.a(lib_a-strncmp.o)
 .debug_loc     0x000000000001e6ca      0x1f0 c:/intelfpga_lite/18.1/nios2eds/bin/gnu/h-x86_64-mingw32/bin/../lib/gcc/nios2-elf/5.3.0/../../../../../H-x86_64-mingw32/nios2-elf/lib\libc.a(lib_a-strncpy.o)
 .debug_loc     0x000000000001e8ba      0x3d1 c:/intelfpga_lite/18.1/nios2eds/bin/gnu/h-x86_64-mingw32/bin/../lib/gcc/nios2-elf/5.3.0/../../../../../H-x86_64-mingw32/nios2-elf/lib\libc.a(lib_a-strtol.o)
 .debug_loc     0x000000000001ec8b       0xe4 c:/intelfpga_lite/18.1/nios2eds/bin/gnu/h-x86_64-mingw32/bin/../lib/gcc/nios2-elf/5.3.0/../../../../../H-x86_64-mingw32/nios2-elf/lib\libc.a(lib_a-vprintf.o)
 .debug_loc     0x000000000001ed6f      0x113 c:/intelfpga_lite/18.1/nios2eds/bin/gnu/h-x86_64-mingw32/bin/../lib/gcc/nios2-elf/5.3.0/../../../../../H-x86_64-mingw32/nios2-elf/lib\libc.a(lib_a-vsprintf.o)
 .debug_loc     0x000000000001ee82      0x185 c:/intelfpga_lite/18.1/nios2eds/bin/gnu/h-x86_64-mingw32/bin/../lib/gcc/nios2-elf/5.3.0/../../../../../H-x86_64-mingw32/nios2-elf/lib\libc.a(lib_a-__atexit.o)
 .debug_loc     0x000000000001f007      0x1ce c:/intelfpga_lite/18.1/nios2eds/bin/gnu/h-x86_64-mingw32/bin/../lib/gcc/nios2-elf/5.3.0/../../../../../H-x86_64-mingw32/nios2-elf/lib\libc.a(lib_a-__call_atexit.o)
 .debug_loc     0x000000000001f1d5       0x84 c:/intelfpga_lite/18.1/nios2eds/bin/gnu/h-x86_64-mingw32/bin/../lib/gcc/nios2-elf/5.3.0/../../../../../H-x86_64-mingw32/nios2-elf/lib\libc.a(lib_a-vfprintfr_1.o)

.debug_macinfo
 *(.debug_macinfo)

.debug_weaknames
 *(.debug_weaknames)

.debug_funcnames
 *(.debug_funcnames)

.debug_typenames
 *(.debug_typenames)

.debug_varnames
 *(.debug_varnames)

.debug_alt_sim_info
                0x0000000000000000       0x50
 *(.debug_alt_sim_info)
 .debug_alt_sim_info
                0x0000000000000000       0x20 ../FPGAEncrypt_bsp//obj/HAL/src/crt0.o
 .debug_alt_sim_info
                0x0000000000000020       0x30 ../FPGAEncrypt_bsp/\libucosii_bsp.a(alt_busy_sleep.o)
                0x0000000006000000                __alt_data_end = 0x6000000
                0x0000000006000000                PROVIDE (__alt_stack_pointer, __alt_data_end)
                [!provide]                        PROVIDE (__alt_stack_limit, __alt_stack_base)
                0x0000000005060280                PROVIDE (__alt_heap_start, end)
                0x0000000006000000                PROVIDE (__alt_heap_limit, 0x6000000)
OUTPUT(FPGAEncrypt.elf elf32-littlenios2)

.debug_ranges   0x0000000000000000     0x1ed0
 .debug_ranges  0x0000000000000000       0x18 c:/intelfpga_lite/18.1/nios2eds/bin/gnu/h-x86_64-mingw32/bin/../lib/gcc/nios2-elf/5.3.0/../../../../../H-x86_64-mingw32/nios2-elf/lib\libc.a(lib_a-fprintf.o)
 .debug_ranges  0x0000000000000018       0x30 c:/intelfpga_lite/18.1/nios2eds/bin/gnu/h-x86_64-mingw32/bin/../lib/gcc/nios2-elf/5.3.0/../../../../../H-x86_64-mingw32/nios2-elf/lib\libc.a(lib_a-fwrite.o)
 .debug_ranges  0x0000000000000048       0x48 c:/intelfpga_lite/18.1/nios2eds/bin/gnu/h-x86_64-mingw32/bin/../lib/gcc/nios2-elf/5.3.0/../../../../../H-x86_64-mingw32/nios2-elf/lib\libc.a(lib_a-getc.o)
 .debug_ranges  0x0000000000000090       0x10 c:/intelfpga_lite/18.1/nios2eds/bin/gnu/h-x86_64-mingw32/bin/../lib/gcc/nios2-elf/5.3.0/../../../../../H-x86_64-mingw32/nios2-elf/lib\libc.a(lib_a-memcpy.o)
 .debug_ranges  0x00000000000000a0       0x10 c:/intelfpga_lite/18.1/nios2eds/bin/gnu/h-x86_64-mingw32/bin/../lib/gcc/nios2-elf/5.3.0/../../../../../H-x86_64-mingw32/nios2-elf/lib\libc.a(lib_a-memmove.o)
 .debug_ranges  0x00000000000000b0       0x10 c:/intelfpga_lite/18.1/nios2eds/bin/gnu/h-x86_64-mingw32/bin/../lib/gcc/nios2-elf/5.3.0/../../../../../H-x86_64-mingw32/nios2-elf/lib\libc.a(lib_a-memset.o)
 .debug_ranges  0x00000000000000c0       0x18 c:/intelfpga_lite/18.1/nios2eds/bin/gnu/h-x86_64-mingw32/bin/../lib/gcc/nios2-elf/5.3.0/../../../../../H-x86_64-mingw32/nios2-elf/lib\libc.a(lib_a-perror.o)
 .debug_ranges  0x00000000000000d8       0x18 c:/intelfpga_lite/18.1/nios2eds/bin/gnu/h-x86_64-mingw32/bin/../lib/gcc/nios2-elf/5.3.0/../../../../../H-x86_64-mingw32/nios2-elf/lib\libc.a(lib_a-printf.o)
 .debug_ranges  0x00000000000000f0       0x48 c:/intelfpga_lite/18.1/nios2eds/bin/gnu/h-x86_64-mingw32/bin/../lib/gcc/nios2-elf/5.3.0/../../../../../H-x86_64-mingw32/nios2-elf/lib\libc.a(lib_a-putc.o)
 .debug_ranges  0x0000000000000138       0x18 c:/intelfpga_lite/18.1/nios2eds/bin/gnu/h-x86_64-mingw32/bin/../lib/gcc/nios2-elf/5.3.0/../../../../../H-x86_64-mingw32/nios2-elf/lib\libc.a(lib_a-putchar.o)
 .debug_ranges  0x0000000000000150       0x30 c:/intelfpga_lite/18.1/nios2eds/bin/gnu/h-x86_64-mingw32/bin/../lib/gcc/nios2-elf/5.3.0/../../../../../H-x86_64-mingw32/nios2-elf/lib\libc.a(lib_a-puts.o)
 .debug_ranges  0x0000000000000180       0x30 c:/intelfpga_lite/18.1/nios2eds/bin/gnu/h-x86_64-mingw32/bin/../lib/gcc/nios2-elf/5.3.0/../../../../../H-x86_64-mingw32/nios2-elf/lib\libc.a(lib_a-rget.o)
 .debug_ranges  0x00000000000001b0       0x18 c:/intelfpga_lite/18.1/nios2eds/bin/gnu/h-x86_64-mingw32/bin/../lib/gcc/nios2-elf/5.3.0/../../../../../H-x86_64-mingw32/nios2-elf/lib\libc.a(lib_a-sprintf.o)
 .debug_ranges  0x00000000000001c8       0x10 c:/intelfpga_lite/18.1/nios2eds/bin/gnu/h-x86_64-mingw32/bin/../lib/gcc/nios2-elf/5.3.0/../../../../../H-x86_64-mingw32/nios2-elf/lib\libc.a(lib_a-strchr.o)
 .debug_ranges  0x00000000000001d8       0x18 c:/intelfpga_lite/18.1/nios2eds/bin/gnu/h-x86_64-mingw32/bin/../lib/gcc/nios2-elf/5.3.0/../../../../../H-x86_64-mingw32/nios2-elf/lib\libc.a(lib_a-strerror.o)
 .debug_ranges  0x00000000000001f0       0x10 c:/intelfpga_lite/18.1/nios2eds/bin/gnu/h-x86_64-mingw32/bin/../lib/gcc/nios2-elf/5.3.0/../../../../../H-x86_64-mingw32/nios2-elf/lib\libc.a(lib_a-strlen.o)
 .debug_ranges  0x0000000000000200       0x88 c:/intelfpga_lite/18.1/nios2eds/bin/gnu/h-x86_64-mingw32/bin/../lib/gcc/nios2-elf/5.3.0/../../../../../H-x86_64-mingw32/nios2-elf/lib\libc.a(lib_a-strstr.o)
 .debug_ranges  0x0000000000000288      0x158 c:/intelfpga_lite/18.1/nios2eds/bin/gnu/h-x86_64-mingw32/bin/../lib/gcc/nios2-elf/5.3.0/../../../../../H-x86_64-mingw32/nios2-elf/lib\libc.a(lib_a-svfprintf.o)
 .debug_ranges  0x00000000000003e0       0x10 c:/intelfpga_lite/18.1/nios2eds/bin/gnu/h-x86_64-mingw32/bin/../lib/gcc/nios2-elf/5.3.0/../../../../../H-x86_64-mingw32/nios2-elf/lib\libc.a(lib_a-u_strerr.o)
 .debug_ranges  0x00000000000003f0      0x178 c:/intelfpga_lite/18.1/nios2eds/bin/gnu/h-x86_64-mingw32/bin/../lib/gcc/nios2-elf/5.3.0/../../../../../H-x86_64-mingw32/nios2-elf/lib\libc.a(lib_a-vfprintf.o)
 .debug_ranges  0x0000000000000568       0x30 c:/intelfpga_lite/18.1/nios2eds/bin/gnu/h-x86_64-mingw32/bin/../lib/gcc/nios2-elf/5.3.0/../../../../../H-x86_64-mingw32/nios2-elf/lib\libc.a(lib_a-wbuf.o)
 .debug_ranges  0x0000000000000598       0x40 c:/intelfpga_lite/18.1/nios2eds/bin/gnu/h-x86_64-mingw32/bin/../lib/gcc/nios2-elf/5.3.0/../../../../../H-x86_64-mingw32/nios2-elf/lib\libc.a(lib_a-wsetup.o)
 .debug_ranges  0x00000000000005d8       0x18 c:/intelfpga_lite/18.1/nios2eds/bin/gnu/h-x86_64-mingw32/bin/../lib/gcc/nios2-elf/5.3.0/../../../../../H-x86_64-mingw32/nios2-elf/lib\libc.a(lib_a-dtoa.o)
 .debug_ranges  0x00000000000005f0       0x58 c:/intelfpga_lite/18.1/nios2eds/bin/gnu/h-x86_64-mingw32/bin/../lib/gcc/nios2-elf/5.3.0/../../../../../H-x86_64-mingw32/nios2-elf/lib\libc.a(lib_a-fflush.o)
 .debug_ranges  0x0000000000000648       0xc8 c:/intelfpga_lite/18.1/nios2eds/bin/gnu/h-x86_64-mingw32/bin/../lib/gcc/nios2-elf/5.3.0/../../../../../H-x86_64-mingw32/nios2-elf/lib\libc.a(lib_a-findfp.o)
 .debug_ranges  0x0000000000000710       0x18 c:/intelfpga_lite/18.1/nios2eds/bin/gnu/h-x86_64-mingw32/bin/../lib/gcc/nios2-elf/5.3.0/../../../../../H-x86_64-mingw32/nios2-elf/lib\libc.a(lib_a-fputc.o)
 .debug_ranges  0x0000000000000728       0x30 c:/intelfpga_lite/18.1/nios2eds/bin/gnu/h-x86_64-mingw32/bin/../lib/gcc/nios2-elf/5.3.0/../../../../../H-x86_64-mingw32/nios2-elf/lib\libc.a(lib_a-fputs.o)
 .debug_ranges  0x0000000000000758       0x18 c:/intelfpga_lite/18.1/nios2eds/bin/gnu/h-x86_64-mingw32/bin/../lib/gcc/nios2-elf/5.3.0/../../../../../H-x86_64-mingw32/nios2-elf/lib\libc.a(lib_a-freer.o)
 .debug_ranges  0x0000000000000770       0x30 c:/intelfpga_lite/18.1/nios2eds/bin/gnu/h-x86_64-mingw32/bin/../lib/gcc/nios2-elf/5.3.0/../../../../../H-x86_64-mingw32/nios2-elf/lib\libc.a(lib_a-fvwrite.o)
 .debug_ranges  0x00000000000007a0       0x18 c:/intelfpga_lite/18.1/nios2eds/bin/gnu/h-x86_64-mingw32/bin/../lib/gcc/nios2-elf/5.3.0/../../../../../H-x86_64-mingw32/nios2-elf/lib\libc.a(lib_a-fwalk.o)
 .debug_ranges  0x00000000000007b8       0x60 c:/intelfpga_lite/18.1/nios2eds/bin/gnu/h-x86_64-mingw32/bin/../lib/gcc/nios2-elf/5.3.0/../../../../../H-x86_64-mingw32/nios2-elf/lib\libc.a(lib_a-locale.o)
 .debug_ranges  0x0000000000000818       0x10 c:/intelfpga_lite/18.1/nios2eds/bin/gnu/h-x86_64-mingw32/bin/../lib/gcc/nios2-elf/5.3.0/../../../../../H-x86_64-mingw32/nios2-elf/lib\libc.a(lib_a-makebuf.o)
 .debug_ranges  0x0000000000000828       0x48 c:/intelfpga_lite/18.1/nios2eds/bin/gnu/h-x86_64-mingw32/bin/../lib/gcc/nios2-elf/5.3.0/../../../../../H-x86_64-mingw32/nios2-elf/lib\libc.a(lib_a-mallocr.o)
 .debug_ranges  0x0000000000000870       0x10 c:/intelfpga_lite/18.1/nios2eds/bin/gnu/h-x86_64-mingw32/bin/../lib/gcc/nios2-elf/5.3.0/../../../../../H-x86_64-mingw32/nios2-elf/lib\libc.a(lib_a-memchr.o)
 .debug_ranges  0x0000000000000880       0x10 c:/intelfpga_lite/18.1/nios2eds/bin/gnu/h-x86_64-mingw32/bin/../lib/gcc/nios2-elf/5.3.0/../../../../../H-x86_64-mingw32/nios2-elf/lib\libc.a(lib_a-memcmp.o)
 .debug_ranges  0x0000000000000890       0xe8 c:/intelfpga_lite/18.1/nios2eds/bin/gnu/h-x86_64-mingw32/bin/../lib/gcc/nios2-elf/5.3.0/../../../../../H-x86_64-mingw32/nios2-elf/lib\libc.a(lib_a-mprec.o)
 .debug_ranges  0x0000000000000978      0x148 c:/intelfpga_lite/18.1/nios2eds/bin/gnu/h-x86_64-mingw32/bin/../lib/gcc/nios2-elf/5.3.0/../../../../../H-x86_64-mingw32/nios2-elf/lib\libc.a(lib_a-reallocr.o)
 .debug_ranges  0x0000000000000ac0       0x30 c:/intelfpga_lite/18.1/nios2eds/bin/gnu/h-x86_64-mingw32/bin/../lib/gcc/nios2-elf/5.3.0/../../../../../H-x86_64-mingw32/nios2-elf/lib\libc.a(lib_a-refill.o)
 .debug_ranges  0x0000000000000af0       0x10 c:/intelfpga_lite/18.1/nios2eds/bin/gnu/h-x86_64-mingw32/bin/../lib/gcc/nios2-elf/5.3.0/../../../../../H-x86_64-mingw32/nios2-elf/lib\libc.a(lib_a-s_fpclassify.o)
 .debug_ranges  0x0000000000000b00       0x10 c:/intelfpga_lite/18.1/nios2eds/bin/gnu/h-x86_64-mingw32/bin/../lib/gcc/nios2-elf/5.3.0/../../../../../H-x86_64-mingw32/nios2-elf/lib\libc.a(lib_a-sbrkr.o)
 .debug_ranges  0x0000000000000b10       0x30 c:/intelfpga_lite/18.1/nios2eds/bin/gnu/h-x86_64-mingw32/bin/../lib/gcc/nios2-elf/5.3.0/../../../../../H-x86_64-mingw32/nios2-elf/lib\libc.a(lib_a-stdio.o)
 .debug_ranges  0x0000000000000b40       0x10 c:/intelfpga_lite/18.1/nios2eds/bin/gnu/h-x86_64-mingw32/bin/../lib/gcc/nios2-elf/5.3.0/../../../../../H-x86_64-mingw32/nios2-elf/lib\libc.a(lib_a-strcmp.o)
 .debug_ranges  0x0000000000000b50       0x58 c:/intelfpga_lite/18.1/nios2eds/bin/gnu/h-x86_64-mingw32/bin/../lib/gcc/nios2-elf/5.3.0/../../../../../H-x86_64-mingw32/nios2-elf/lib\libc.a(lib_a-svfiprintf.o)
 .debug_ranges  0x0000000000000ba8      0x1b8 c:/intelfpga_lite/18.1/nios2eds/bin/gnu/h-x86_64-mingw32/bin/../lib/gcc/nios2-elf/5.3.0/../../../../../H-x86_64-mingw32/nios2-elf/lib\libc.a(lib_a-vfiprintf.o)
 .debug_ranges  0x0000000000000d60       0x10 c:/intelfpga_lite/18.1/nios2eds/bin/gnu/h-x86_64-mingw32/bin/../lib/gcc/nios2-elf/5.3.0/../../../../../H-x86_64-mingw32/nios2-elf/lib\libc.a(lib_a-writer.o)
 .debug_ranges  0x0000000000000d70       0x10 c:/intelfpga_lite/18.1/nios2eds/bin/gnu/h-x86_64-mingw32/bin/../lib/gcc/nios2-elf/5.3.0/../../../../../H-x86_64-mingw32/nios2-elf/lib\libc.a(closer.o)
 .debug_ranges  0x0000000000000d80       0x48 c:/intelfpga_lite/18.1/nios2eds/bin/gnu/h-x86_64-mingw32/bin/../lib/gcc/nios2-elf/5.3.0/../../../../../H-x86_64-mingw32/nios2-elf/lib\libc.a(lib_a-callocr.o)
 .debug_ranges  0x0000000000000dc8       0x48 c:/intelfpga_lite/18.1/nios2eds/bin/gnu/h-x86_64-mingw32/bin/../lib/gcc/nios2-elf/5.3.0/../../../../../H-x86_64-mingw32/nios2-elf/lib\libc.a(lib_a-fclose.o)
 .debug_ranges  0x0000000000000e10       0x50 c:/intelfpga_lite/18.1/nios2eds/bin/gnu/h-x86_64-mingw32/bin/../lib/gcc/nios2-elf/5.3.0/../../../../../H-x86_64-mingw32/nios2-elf/lib\libc.a(lib_a-fputwc.o)
 .debug_ranges  0x0000000000000e60       0x10 c:/intelfpga_lite/18.1/nios2eds/bin/gnu/h-x86_64-mingw32/bin/../lib/gcc/nios2-elf/5.3.0/../../../../../H-x86_64-mingw32/nios2-elf/lib\libc.a(lib_a-fstatr.o)
 .debug_ranges  0x0000000000000e70       0x10 c:/intelfpga_lite/18.1/nios2eds/bin/gnu/h-x86_64-mingw32/bin/../lib/gcc/nios2-elf/5.3.0/../../../../../H-x86_64-mingw32/nios2-elf/lib\libc.a(lib_a-isattyr.o)
 .debug_ranges  0x0000000000000e80       0x10 c:/intelfpga_lite/18.1/nios2eds/bin/gnu/h-x86_64-mingw32/bin/../lib/gcc/nios2-elf/5.3.0/../../../../../H-x86_64-mingw32/nios2-elf/lib\libc.a(lib_a-lseekr.o)
 .debug_ranges  0x0000000000000e90       0x10 c:/intelfpga_lite/18.1/nios2eds/bin/gnu/h-x86_64-mingw32/bin/../lib/gcc/nios2-elf/5.3.0/../../../../../H-x86_64-mingw32/nios2-elf/lib\libc.a(lib_a-readr.o)
 .debug_ranges  0x0000000000000ea0       0x18 c:/intelfpga_lite/18.1/nios2eds/bin/gnu/h-x86_64-mingw32/bin/../lib/gcc/nios2-elf/5.3.0/../../../../../H-x86_64-mingw32/nios2-elf/lib\libc.a(lib_a-wcrtomb.o)
 .debug_ranges  0x0000000000000eb8       0x18 c:/intelfpga_lite/18.1/nios2eds/bin/gnu/h-x86_64-mingw32/bin/../lib/gcc/nios2-elf/5.3.0/../../../../../H-x86_64-mingw32/nios2-elf/lib\libc.a(lib_a-wctomb_r.o)
 .debug_ranges  0x0000000000000ed0      0x158 c:/intelfpga_lite/18.1/nios2eds/bin/gnu/h-x86_64-mingw32/bin/../lib/gcc/nios2-elf/5.3.0\libgcc.a(_udivdi3.o)
 .debug_ranges  0x0000000000001028      0x160 c:/intelfpga_lite/18.1/nios2eds/bin/gnu/h-x86_64-mingw32/bin/../lib/gcc/nios2-elf/5.3.0\libgcc.a(_umoddi3.o)
 .debug_ranges  0x0000000000001188       0x60 c:/intelfpga_lite/18.1/nios2eds/bin/gnu/h-x86_64-mingw32/bin/../lib/gcc/nios2-elf/5.3.0\libgcc.a(lib2-divmod.o)
 .debug_ranges  0x00000000000011e8      0x240 c:/intelfpga_lite/18.1/nios2eds/bin/gnu/h-x86_64-mingw32/bin/../lib/gcc/nios2-elf/5.3.0\libgcc.a(adddf3.o)
 .debug_ranges  0x0000000000001428      0x138 c:/intelfpga_lite/18.1/nios2eds/bin/gnu/h-x86_64-mingw32/bin/../lib/gcc/nios2-elf/5.3.0\libgcc.a(divdf3.o)
 .debug_ranges  0x0000000000001560       0x48 c:/intelfpga_lite/18.1/nios2eds/bin/gnu/h-x86_64-mingw32/bin/../lib/gcc/nios2-elf/5.3.0\libgcc.a(eqdf2.o)
 .debug_ranges  0x00000000000015a8       0x88 c:/intelfpga_lite/18.1/nios2eds/bin/gnu/h-x86_64-mingw32/bin/../lib/gcc/nios2-elf/5.3.0\libgcc.a(gedf2.o)
 .debug_ranges  0x0000000000001630       0xa8 c:/intelfpga_lite/18.1/nios2eds/bin/gnu/h-x86_64-mingw32/bin/../lib/gcc/nios2-elf/5.3.0\libgcc.a(ledf2.o)
 .debug_ranges  0x00000000000016d8      0x1f0 c:/intelfpga_lite/18.1/nios2eds/bin/gnu/h-x86_64-mingw32/bin/../lib/gcc/nios2-elf/5.3.0\libgcc.a(muldf3.o)
 .debug_ranges  0x00000000000018c8      0x268 c:/intelfpga_lite/18.1/nios2eds/bin/gnu/h-x86_64-mingw32/bin/../lib/gcc/nios2-elf/5.3.0\libgcc.a(subdf3.o)
 .debug_ranges  0x0000000000001b30       0x30 c:/intelfpga_lite/18.1/nios2eds/bin/gnu/h-x86_64-mingw32/bin/../lib/gcc/nios2-elf/5.3.0\libgcc.a(fixdfsi.o)
 .debug_ranges  0x0000000000001b60       0x20 c:/intelfpga_lite/18.1/nios2eds/bin/gnu/h-x86_64-mingw32/bin/../lib/gcc/nios2-elf/5.3.0\libgcc.a(floatsidf.o)
 .debug_ranges  0x0000000000001b80       0x18 c:/intelfpga_lite/18.1/nios2eds/bin/gnu/h-x86_64-mingw32/bin/../lib/gcc/nios2-elf/5.3.0\libgcc.a(floatunsidf.o)
 .debug_ranges  0x0000000000001b98       0x18 c:/intelfpga_lite/18.1/nios2eds/bin/gnu/h-x86_64-mingw32/bin/../lib/gcc/nios2-elf/5.3.0\libgcc.a(_clzsi2.o)
 .debug_ranges  0x0000000000001bb0       0x30 ../FPGAEncrypt_bsp/\libucosii_bsp.a(altera_avalon_jtag_uart_init.o)
 .debug_ranges  0x0000000000001be0       0x18 ../FPGAEncrypt_bsp/\libucosii_bsp.a(altera_avalon_jtag_uart_read.o)
 .debug_ranges  0x0000000000001bf8       0x18 ../FPGAEncrypt_bsp/\libucosii_bsp.a(altera_epcq_controller2.o)
 .debug_ranges  0x0000000000001c10       0x30 ../FPGAEncrypt_bsp/\libucosii_bsp.a(pktalloc.o)
 .debug_ranges  0x0000000000001c40       0x18 ../FPGAEncrypt_bsp/\libucosii_bsp.a(nptcp.o)
 .debug_ranges  0x0000000000001c58       0x48 ../FPGAEncrypt_bsp/\libucosii_bsp.a(tcp_in.o)
 .debug_ranges  0x0000000000001ca0       0x48 ../FPGAEncrypt_bsp/\libucosii_bsp.a(tcp_out.o)
 .debug_ranges  0x0000000000001ce8       0x28 ../FPGAEncrypt_bsp/\libucosii_bsp.a(alt_irq_entry.o)
 .debug_ranges  0x0000000000001d10       0x10 ../FPGAEncrypt_bsp/\libucosii_bsp.a(alt_irq_handler.o)
 .debug_ranges  0x0000000000001d20       0x30 ../FPGAEncrypt_bsp/\libucosii_bsp.a(ipdemux.o)
 .debug_ranges  0x0000000000001d50       0x30 ../FPGAEncrypt_bsp/\libucosii_bsp.a(alt_exception_entry.o)
 .debug_ranges  0x0000000000001d80       0x18 ../FPGAEncrypt_bsp/\libucosii_bsp.a(alt_instruction_exception_entry.o)
 .debug_ranges  0x0000000000001d98       0x10 c:/intelfpga_lite/18.1/nios2eds/bin/gnu/h-x86_64-mingw32/bin/../lib/gcc/nios2-elf/5.3.0/../../../../../H-x86_64-mingw32/nios2-elf/lib\libc.a(lib_a-atexit.o)
 .debug_ranges  0x0000000000001da8       0x18 c:/intelfpga_lite/18.1/nios2eds/bin/gnu/h-x86_64-mingw32/bin/../lib/gcc/nios2-elf/5.3.0/../../../../../H-x86_64-mingw32/nios2-elf/lib\libc.a(lib_a-atoi.o)
 .debug_ranges  0x0000000000001dc0       0x10 c:/intelfpga_lite/18.1/nios2eds/bin/gnu/h-x86_64-mingw32/bin/../lib/gcc/nios2-elf/5.3.0/../../../../../H-x86_64-mingw32/nios2-elf/lib\libc.a(lib_a-exit.o)
 .debug_ranges  0x0000000000001dd0       0x10 c:/intelfpga_lite/18.1/nios2eds/bin/gnu/h-x86_64-mingw32/bin/../lib/gcc/nios2-elf/5.3.0/../../../../../H-x86_64-mingw32/nios2-elf/lib\libc.a(lib_a-malign.o)
 .debug_ranges  0x0000000000001de0       0x10 c:/intelfpga_lite/18.1/nios2eds/bin/gnu/h-x86_64-mingw32/bin/../lib/gcc/nios2-elf/5.3.0/../../../../../H-x86_64-mingw32/nios2-elf/lib\libc.a(lib_a-malignr.o)
 .debug_ranges  0x0000000000001df0       0x18 c:/intelfpga_lite/18.1/nios2eds/bin/gnu/h-x86_64-mingw32/bin/../lib/gcc/nios2-elf/5.3.0/../../../../../H-x86_64-mingw32/nios2-elf/lib\libc.a(lib_a-malloc.o)
 .debug_ranges  0x0000000000001e08       0x10 c:/intelfpga_lite/18.1/nios2eds/bin/gnu/h-x86_64-mingw32/bin/../lib/gcc/nios2-elf/5.3.0/../../../../../H-x86_64-mingw32/nios2-elf/lib\libc.a(lib_a-strcpy.o)
 .debug_ranges  0x0000000000001e18       0x10 c:/intelfpga_lite/18.1/nios2eds/bin/gnu/h-x86_64-mingw32/bin/../lib/gcc/nios2-elf/5.3.0/../../../../../H-x86_64-mingw32/nios2-elf/lib\libc.a(lib_a-strncmp.o)
 .debug_ranges  0x0000000000001e28       0x10 c:/intelfpga_lite/18.1/nios2eds/bin/gnu/h-x86_64-mingw32/bin/../lib/gcc/nios2-elf/5.3.0/../../../../../H-x86_64-mingw32/nios2-elf/lib\libc.a(lib_a-strncpy.o)
 .debug_ranges  0x0000000000001e38       0x18 c:/intelfpga_lite/18.1/nios2eds/bin/gnu/h-x86_64-mingw32/bin/../lib/gcc/nios2-elf/5.3.0/../../../../../H-x86_64-mingw32/nios2-elf/lib\libc.a(lib_a-strtol.o)
 .debug_ranges  0x0000000000001e50       0x18 c:/intelfpga_lite/18.1/nios2eds/bin/gnu/h-x86_64-mingw32/bin/../lib/gcc/nios2-elf/5.3.0/../../../../../H-x86_64-mingw32/nios2-elf/lib\libc.a(lib_a-vprintf.o)
 .debug_ranges  0x0000000000001e68       0x18 c:/intelfpga_lite/18.1/nios2eds/bin/gnu/h-x86_64-mingw32/bin/../lib/gcc/nios2-elf/5.3.0/../../../../../H-x86_64-mingw32/nios2-elf/lib\libc.a(lib_a-vsprintf.o)
 .debug_ranges  0x0000000000001e80       0x10 c:/intelfpga_lite/18.1/nios2eds/bin/gnu/h-x86_64-mingw32/bin/../lib/gcc/nios2-elf/5.3.0/../../../../../H-x86_64-mingw32/nios2-elf/lib\libc.a(lib_a-__atexit.o)
 .debug_ranges  0x0000000000001e90       0x30 c:/intelfpga_lite/18.1/nios2eds/bin/gnu/h-x86_64-mingw32/bin/../lib/gcc/nios2-elf/5.3.0/../../../../../H-x86_64-mingw32/nios2-elf/lib\libc.a(lib_a-__call_atexit.o)
 .debug_ranges  0x0000000000001ec0       0x10 c:/intelfpga_lite/18.1/nios2eds/bin/gnu/h-x86_64-mingw32/bin/../lib/gcc/nios2-elf/5.3.0/../../../../../H-x86_64-mingw32/nios2-elf/lib\libc.a(lib_a-vfprintfr_1.o)
